ARM GAS  C:\DOCUME~1\pstang\LOCALS~1\Temp/ccquaaaa.s 			page 1


   1              		.file	"arp.c"
   8 0000 1D010000 		.text
   8      02008F00 
   8      00000201 
   8      FB0E0D00 
   8      01010101 
   9              	.Ltext0:
  10              		.align	2
  11              		.global	arpInit
  12              		.type	arpInit, %function
  13              	arpInit:
  14              	.LFB2:
  15              		.file 1 "c:\\code\\arm\\armlib/net/arp.c"
   1:c:\code\arm\armlib/net\arp.c **** /*! \file arp.c \brief ARP Protocol Library. */
   2:c:\code\arm\armlib/net\arp.c **** //*****************************************************************************
   3:c:\code\arm\armlib/net\arp.c **** //
   4:c:\code\arm\armlib/net\arp.c **** // File Name	: 'arp.c'
   5:c:\code\arm\armlib/net\arp.c **** // Title		: ARP Protocol Library
   6:c:\code\arm\armlib/net\arp.c **** // Author		: Pascal Stang
   7:c:\code\arm\armlib/net\arp.c **** // Created		: 9/7/2004
   8:c:\code\arm\armlib/net\arp.c **** // Revised		: 7/3/2005
   9:c:\code\arm\armlib/net\arp.c **** // Version		: 0.1
  10:c:\code\arm\armlib/net\arp.c **** // Target MCU	: Atmel AVR series
  11:c:\code\arm\armlib/net\arp.c **** // Editor Tabs	: 4
  12:c:\code\arm\armlib/net\arp.c **** //
  13:c:\code\arm\armlib/net\arp.c **** //*****************************************************************************
  14:c:\code\arm\armlib/net\arp.c **** 
  15:c:\code\arm\armlib/net\arp.c **** #include "global.h"
  16:c:\code\arm\armlib/net\arp.c **** #include "net.h"
  17:c:\code\arm\armlib/net\arp.c **** #include "nic.h"
  18:c:\code\arm\armlib/net\arp.c **** #include "arp.h"
  19:c:\code\arm\armlib/net\arp.c **** 
  20:c:\code\arm\armlib/net\arp.c **** #include "rprintf.h"
  21:c:\code\arm\armlib/net\arp.c **** 
  22:c:\code\arm\armlib/net\arp.c **** // global variables
  23:c:\code\arm\armlib/net\arp.c **** 
  24:c:\code\arm\armlib/net\arp.c **** /// Single ARP table entry/record
  25:c:\code\arm\armlib/net\arp.c **** struct ArpEntry
  26:c:\code\arm\armlib/net\arp.c **** {
  27:c:\code\arm\armlib/net\arp.c **** 	uint32_t ipaddr;			///< remote-note IP address
  28:c:\code\arm\armlib/net\arp.c **** 	struct netEthAddr ethaddr;	///< remote-node ethernet (hardware/mac) address
  29:c:\code\arm\armlib/net\arp.c **** 	uint8_t time;				///< time to live (in ARP table); this is decremented by arpTimer()
  30:c:\code\arm\armlib/net\arp.c **** };
  31:c:\code\arm\armlib/net\arp.c **** 
  32:c:\code\arm\armlib/net\arp.c **** struct ArpEntry ArpMyAddr;		///< my local interface information (IP and MAC address)
  33:c:\code\arm\armlib/net\arp.c **** struct ArpEntry ArpTable[ARP_TABLE_SIZE];	///< ARP table of matched IP<->MAC associations
  34:c:\code\arm\armlib/net\arp.c **** 
  35:c:\code\arm\armlib/net\arp.c **** 
  36:c:\code\arm\armlib/net\arp.c **** void arpInit(void)
  37:c:\code\arm\armlib/net\arp.c **** {
  16              	 args = 0, pretend = 0, frame = 0
ARM GAS  C:\DOCUME~1\pstang\LOCALS~1\Temp/ccquaaaa.s 			page 2


  17              		@ frame_needed = 0, uses_anonymous_args = 0
  18              		@ link register save eliminated.
  19              		@ lr needed for prologue
  20              		.loc 1 37 0
  21              		ldr	r3, .L7
  22 0000 1C309FE5 		mov	r2, #0
  23 0004 0020A0E3 		ldr	r1, .L7+4
  24 0008 18109FE5 	.L2:
  25              		.loc 1 42 0
  38:c:\code\arm\armlib/net\arp.c **** 	u08 i;
  39:c:\code\arm\armlib/net\arp.c **** 	// initialize all ArpTable elements to unused
  40:c:\code\arm\armlib/net\arp.c **** 	for(i=0; i<ARP_TABLE_SIZE; i++)
  41:c:\code\arm\armlib/net\arp.c **** 	{
  42:c:\code\arm\armlib/net\arp.c **** 		ArpTable[i].ipaddr = 0;
  26              	r3, #0]
  27 000c 002083E5 		.loc 1 43 0
  43:c:\code\arm\armlib/net\arp.c **** 		ArpTable[i].time = 0;
  28              	trb	r2, [r3, #10]
  29 0010 0A20C3E5 		add	r3, r3, #12
  30 0014 0C3083E2 		.loc 1 40 0
  31              		cmp	r3, r1
  32 0018 010053E1 		bne	.L2
  33 001c FAFFFF1A 		.loc 1 45 0
  44:c:\code\arm\armlib/net\arp.c **** 	}
  45:c:\code\arm\armlib/net\arp.c **** }
  34              	
  35 0020 1EFF2FE1 	.L8:
  36              		.align	2
  37              	.L7:
  38              		.word	ArpTable
  39 0024 00000000 		.word	ArpTable+96
  40 0028 60000000 	.LFE2:
  41              		.size	arpInit, .-arpInit
  42              		.align	2
  43              		.global	arpSetAddress
  44              		.type	arpSetAddress, %function
  45              	arpSetAddress:
  46              	.LFB3:
  47              		.loc 1 48 0
  46:c:\code\arm\armlib/net\arp.c **** 
  47:c:\code\arm\armlib/net\arp.c **** void arpSetAddress(struct netEthAddr* myeth, uint32_t myip)
  48:c:\code\arm\armlib/net\arp.c **** {
  48              	pretend = 0, frame = 0
  49              		@ frame_needed = 0, uses_anonymous_args = 0
  50              	.LVL0:
  51              		stmfd	sp!, {r4, r5, lr}
  52 002c 30402DE9 	.LCFI0:
  53              		mov	r3, r0
  54 0030 0030A0E1 		mov	r5, r1
  55 0034 0150A0E1 		.loc 1 50 0
  49:c:\code\arm\armlib/net\arp.c **** 	// set local address record
  50:c:\code\arm\armlib/net\arp.c **** 	ArpMyAddr.ethaddr = *myeth;
  56              	 .L11
  57 0038 14409FE5 		add	r0, r4, #4
  58 003c 040084E2 	.LVL1:
  59              		mov	r1, r3
  60 0040 0310A0E1 	.LVL2:
ARM GAS  C:\DOCUME~1\pstang\LOCALS~1\Temp/ccquaaaa.s 			page 3


  61              		mov	r2, #6
  62 0044 0620A0E3 		bl	memcpy
  63 0048 FEFFFFEB 	.LVL3:
  64              		.loc 1 51 0
  51:c:\code\arm\armlib/net\arp.c **** 	ArpMyAddr.ipaddr = myip;
  65              	[r4, #0]
  66 004c 005084E5 		.loc 1 52 0
  52:c:\code\arm\armlib/net\arp.c **** }
  67              	dmfd	sp!, {r4, r5, pc}
  68 0050 3080BDE8 	.L12:
  69              		.align	2
  70              	.L11:
  71              		.word	ArpMyAddr
  72 0054 00000000 	.LFE3:
  73              		.size	arpSetAddress, .-arpSetAddress
  74              		.align	2
  75              		.global	arpTimer
  76              		.type	arpTimer, %function
  77              	arpTimer:
  78              	.LFB7:
  79              		.loc 1 157 0
  53:c:\code\arm\armlib/net\arp.c **** 
  54:c:\code\arm\armlib/net\arp.c **** void arpArpIn(unsigned int len, struct netEthArpHeader* packet)
  55:c:\code\arm\armlib/net\arp.c **** {
  56:c:\code\arm\armlib/net\arp.c **** 	#ifdef ARP_DEBUG
  57:c:\code\arm\armlib/net\arp.c **** 	rprintfProgStrM("Received ARP Request\r\n");
  58:c:\code\arm\armlib/net\arp.c **** 	arpPrintHeader( &packet->arp );
  59:c:\code\arm\armlib/net\arp.c **** 	#endif
  60:c:\code\arm\armlib/net\arp.c **** 
  61:c:\code\arm\armlib/net\arp.c **** 	// for now, we just reply to requests
  62:c:\code\arm\armlib/net\arp.c **** 	// need to add ARP cache
  63:c:\code\arm\armlib/net\arp.c **** 	if(	(packet->arp.dipaddr == HTONL(ArpMyAddr.ipaddr)) &&
  64:c:\code\arm\armlib/net\arp.c **** 		(packet->arp.opcode == htons(ARP_OPCODE_REQUEST)) )
  65:c:\code\arm\armlib/net\arp.c **** 	{
  66:c:\code\arm\armlib/net\arp.c **** 		// in ARP header
  67:c:\code\arm\armlib/net\arp.c **** 		// copy sender's address info to dest. fields
  68:c:\code\arm\armlib/net\arp.c **** 		packet->arp.dhwaddr = packet->arp.shwaddr;
  69:c:\code\arm\armlib/net\arp.c **** 		packet->arp.dipaddr = packet->arp.sipaddr;
  70:c:\code\arm\armlib/net\arp.c **** 		// fill in our information
  71:c:\code\arm\armlib/net\arp.c **** 		packet->arp.shwaddr = ArpMyAddr.ethaddr;
  72:c:\code\arm\armlib/net\arp.c **** 		packet->arp.sipaddr = HTONL(ArpMyAddr.ipaddr);
  73:c:\code\arm\armlib/net\arp.c **** 		// change op to reply
  74:c:\code\arm\armlib/net\arp.c **** 		packet->arp.opcode = htons(ARP_OPCODE_REPLY);
  75:c:\code\arm\armlib/net\arp.c **** 		
  76:c:\code\arm\armlib/net\arp.c **** 		// in ethernet header
  77:c:\code\arm\armlib/net\arp.c **** 		packet->eth.dest = packet->eth.src;
  78:c:\code\arm\armlib/net\arp.c **** 		packet->eth.src  = ArpMyAddr.ethaddr;
  79:c:\code\arm\armlib/net\arp.c **** 
  80:c:\code\arm\armlib/net\arp.c **** 		#ifdef ARP_DEBUG
  81:c:\code\arm\armlib/net\arp.c **** 		rprintfProgStrM("Sending ARP Reply\r\n");
  82:c:\code\arm\armlib/net\arp.c **** 		arpPrintHeader( &packet->arp );
  83:c:\code\arm\armlib/net\arp.c **** 		//netPrintEthHeader((struct netEthHeader*)packet);
  84:c:\code\arm\armlib/net\arp.c **** 		//debugPrintHexTable(len, ((unsigned char*)packet));
  85:c:\code\arm\armlib/net\arp.c **** 		#endif
  86:c:\code\arm\armlib/net\arp.c **** 
  87:c:\code\arm\armlib/net\arp.c **** 		// send reply!
  88:c:\code\arm\armlib/net\arp.c **** 		nicSend(len, (unsigned char*)packet);
ARM GAS  C:\DOCUME~1\pstang\LOCALS~1\Temp/ccquaaaa.s 			page 4


  89:c:\code\arm\armlib/net\arp.c **** 	}
  90:c:\code\arm\armlib/net\arp.c **** }
  91:c:\code\arm\armlib/net\arp.c **** 
  92:c:\code\arm\armlib/net\arp.c **** void arpIpIn(struct netEthIpHeader* packet)
  93:c:\code\arm\armlib/net\arp.c **** {
  94:c:\code\arm\armlib/net\arp.c **** 	int8_t index;
  95:c:\code\arm\armlib/net\arp.c **** 
  96:c:\code\arm\armlib/net\arp.c **** 	// check if sender is already present in arp table
  97:c:\code\arm\armlib/net\arp.c **** 	index = arpMatchIp(HTONL(packet->ip.srcipaddr));
  98:c:\code\arm\armlib/net\arp.c **** 	if(index != -1)
  99:c:\code\arm\armlib/net\arp.c **** 	{
 100:c:\code\arm\armlib/net\arp.c **** 		// sender's IP address found, update ARP entry
 101:c:\code\arm\armlib/net\arp.c **** 		ArpTable[index].ethaddr = packet->eth.src;
 102:c:\code\arm\armlib/net\arp.c **** 		// and we're done
 103:c:\code\arm\armlib/net\arp.c **** 		return;
 104:c:\code\arm\armlib/net\arp.c **** 	}
 105:c:\code\arm\armlib/net\arp.c **** 
 106:c:\code\arm\armlib/net\arp.c **** 	// sender was not present in table,
 107:c:\code\arm\armlib/net\arp.c **** 	// must add in empty/expired slot
 108:c:\code\arm\armlib/net\arp.c **** 	for(index=0; index<ARP_TABLE_SIZE; index++)
 109:c:\code\arm\armlib/net\arp.c **** 	{
 110:c:\code\arm\armlib/net\arp.c **** 		if(!ArpTable[index].time)
 111:c:\code\arm\armlib/net\arp.c **** 		{
 112:c:\code\arm\armlib/net\arp.c **** 			// write entry
 113:c:\code\arm\armlib/net\arp.c **** 			ArpTable[index].ethaddr = packet->eth.src;
 114:c:\code\arm\armlib/net\arp.c **** 			ArpTable[index].ipaddr = HTONL(packet->ip.srcipaddr);
 115:c:\code\arm\armlib/net\arp.c **** 			ArpTable[index].time = ARP_CACHE_TIME_TO_LIVE;
 116:c:\code\arm\armlib/net\arp.c **** 			// and we're done
 117:c:\code\arm\armlib/net\arp.c **** 			return;
 118:c:\code\arm\armlib/net\arp.c **** 		}
 119:c:\code\arm\armlib/net\arp.c **** 	}
 120:c:\code\arm\armlib/net\arp.c **** 
 121:c:\code\arm\armlib/net\arp.c **** 	// no space in table, we give up
 122:c:\code\arm\armlib/net\arp.c **** }
 123:c:\code\arm\armlib/net\arp.c **** 
 124:c:\code\arm\armlib/net\arp.c **** void arpIpOut(struct netEthIpHeader* packet, uint32_t phyDstIp)
 125:c:\code\arm\armlib/net\arp.c **** {
 126:c:\code\arm\armlib/net\arp.c **** 	int index;
 127:c:\code\arm\armlib/net\arp.c **** 	// check if destination is already present in arp table
 128:c:\code\arm\armlib/net\arp.c **** 	// use the physical dstIp if it's provided, otherwise the dstIp in packet
 129:c:\code\arm\armlib/net\arp.c **** 	if(phyDstIp)
 130:c:\code\arm\armlib/net\arp.c **** 		index = arpMatchIp(phyDstIp);
 131:c:\code\arm\armlib/net\arp.c **** 	else
 132:c:\code\arm\armlib/net\arp.c **** 		index = arpMatchIp(HTONL(packet->ip.destipaddr));
 133:c:\code\arm\armlib/net\arp.c **** 	// fill in ethernet info
 134:c:\code\arm\armlib/net\arp.c **** 	if(index != -1)
 135:c:\code\arm\armlib/net\arp.c **** 	{
 136:c:\code\arm\armlib/net\arp.c **** 		// ARP entry present, fill eth address(es)
 137:c:\code\arm\armlib/net\arp.c **** 		packet->eth.src  = ArpMyAddr.ethaddr;
 138:c:\code\arm\armlib/net\arp.c **** 		packet->eth.dest = ArpTable[index].ethaddr;
 139:c:\code\arm\armlib/net\arp.c **** 		packet->eth.type = HTONS(ETHTYPE_IP);
 140:c:\code\arm\armlib/net\arp.c **** 	}
 141:c:\code\arm\armlib/net\arp.c **** 	else
 142:c:\code\arm\armlib/net\arp.c **** 	{
 143:c:\code\arm\armlib/net\arp.c **** 		// not in table, must send ARP request
 144:c:\code\arm\armlib/net\arp.c **** 		packet->eth.src = ArpMyAddr.ethaddr;
 145:c:\code\arm\armlib/net\arp.c **** 		// MUST CHANGE, but for now, send this one broadcast
ARM GAS  C:\DOCUME~1\pstang\LOCALS~1\Temp/ccquaaaa.s 			page 5


 146:c:\code\arm\armlib/net\arp.c **** 		packet->eth.dest.addr[0] = 0xFF;
 147:c:\code\arm\armlib/net\arp.c **** 		packet->eth.dest.addr[1] = 0xFF;
 148:c:\code\arm\armlib/net\arp.c **** 		packet->eth.dest.addr[2] = 0xFF;
 149:c:\code\arm\armlib/net\arp.c **** 		packet->eth.dest.addr[3] = 0xFF;
 150:c:\code\arm\armlib/net\arp.c **** 		packet->eth.dest.addr[4] = 0xFF;
 151:c:\code\arm\armlib/net\arp.c **** 		packet->eth.dest.addr[5] = 0xFF;
 152:c:\code\arm\armlib/net\arp.c **** 		packet->eth.type = HTONS(ETHTYPE_IP);
 153:c:\code\arm\armlib/net\arp.c **** 	}
 154:c:\code\arm\armlib/net\arp.c **** }
 155:c:\code\arm\armlib/net\arp.c **** 
 156:c:\code\arm\armlib/net\arp.c **** void arpTimer(void)
 157:c:\code\arm\armlib/net\arp.c **** {
  80              	pretend = 0, frame = 0
  81              		@ frame_needed = 0, uses_anonymous_args = 0
  82              		@ link register save eliminated.
  83              		@ lr needed for prologue
  84              		.loc 1 157 0
  85              		ldr	r2, .L21
  86 0058 20209FE5 		ldr	r1, .L21+4
  87 005c 20109FE5 	.L14:
  88              		.loc 1 164 0
 158:c:\code\arm\armlib/net\arp.c **** 	int index;
 159:c:\code\arm\armlib/net\arp.c **** 	// this function meant to be called on a regular time interval
 160:c:\code\arm\armlib/net\arp.c **** 
 161:c:\code\arm\armlib/net\arp.c **** 	// decrement time-to-live for all entries
 162:c:\code\arm\armlib/net\arp.c **** 	for(index=0; index<ARP_TABLE_SIZE; index++)
 163:c:\code\arm\armlib/net\arp.c **** 	{
 164:c:\code\arm\armlib/net\arp.c **** 		if(ArpTable[index].time)
  89              	 [r2, #10]	@ zero_extendqisi2
  90 0060 0A30D2E5 		cmp	r3, #0
  91 0064 000053E3 		.loc 1 165 0
 165:c:\code\arm\armlib/net\arp.c **** 			ArpTable[index].time--;
  92              	bne	r3, r3, #1
  93 0068 01304312 		strneb	r3, [r2, #10]
  94 006c 0A30C215 		add	r2, r2, #12
  95 0070 0C2082E2 		.loc 1 162 0
  96              		cmp	r2, r1
  97 0074 010052E1 		bne	.L14
  98 0078 F8FFFF1A 		.loc 1 167 0
 166:c:\code\arm\armlib/net\arp.c **** 	}
 167:c:\code\arm\armlib/net\arp.c **** }
  99              	.L22:
 100 007c 1EFF2FE1 		.align	2
 101              	.L21:
 102              		.word	ArpTable
 103              		.word	ArpTable+96
 104 0080 00000000 	.LFE7:
 105 0084 60000000 		.size	arpTimer, .-arpTimer
 106              		.align	2
 107              		.global	arpMatchIp
 108              		.type	arpMatchIp, %function
 109              	arpMatchIp:
 110              	.LFB8:
 111              		.loc 1 170 0
 112              		@ args = 0, pretend = 0, frame = 0
 168:c:\code\arm\armlib/net\arp.c **** 
 169:c:\code\arm\armlib/net\arp.c **** int arpMatchIp(uint32_t ipaddr)
ARM GAS  C:\DOCUME~1\pstang\LOCALS~1\Temp/ccquaaaa.s 			page 6


 170:c:\code\arm\armlib/net\arp.c **** {
 113              	d = 0, uses_anonymous_args = 0
 114              		@ link register save eliminated.
 115              	.LVL4:
 116              		@ lr needed for prologue
 117              		mov	r1, r0
 118              		.loc 1 170 0
 119 0088 0010A0E1 		mov	r0, #0
 120              	.LVL5:
 121 008c 0000A0E3 		ldr	r2, .L31
 122              	.L24:
 123 0090 20209FE5 		.loc 1 176 0
 124              		ldr	r3, [r2, #0]
 171:c:\code\arm\armlib/net\arp.c **** 	uint8_t i;
 172:c:\code\arm\armlib/net\arp.c **** 
 173:c:\code\arm\armlib/net\arp.c **** 	// check if IP address is present in arp table
 174:c:\code\arm\armlib/net\arp.c **** 	for(i=0; i<ARP_TABLE_SIZE; i++)
 175:c:\code\arm\armlib/net\arp.c **** 	{
 176:c:\code\arm\armlib/net\arp.c **** 		if(ArpTable[i].ipaddr == ipaddr)
 125              		bxeq	lr
 126 0094 003092E5 		add	r0, r0, #1
 127 0098 010053E1 		add	r2, r2, #12
 128 009c 1EFF2F01 		.loc 1 174 0
 129 00a0 010080E2 		cmp	r0, #8
 130 00a4 0C2082E2 		bne	.L24
 131              		sub	r0, r0, #9
 132 00a8 080050E3 		.loc 1 185 0
 133 00ac F8FFFF1A 		bx	lr
 134 00b0 090040E2 	.L32:
 177:c:\code\arm\armlib/net\arp.c **** 		{
 178:c:\code\arm\armlib/net\arp.c **** 			// IP address found
 179:c:\code\arm\armlib/net\arp.c **** 			return i;
 180:c:\code\arm\armlib/net\arp.c **** 		}
 181:c:\code\arm\armlib/net\arp.c **** 	}
 182:c:\code\arm\armlib/net\arp.c **** 
 183:c:\code\arm\armlib/net\arp.c **** 	// no match
 184:c:\code\arm\armlib/net\arp.c **** 	return -1;
 185:c:\code\arm\armlib/net\arp.c **** }
 135              	.L31:
 136 00b4 1EFF2FE1 		.word	ArpTable
 137              	.LFE8:
 138              		.size	arpMatchIp, .-arpMatchIp
 139              		.align	2
 140 00b8 00000000 		.global	arpIpOut
 141              		.type	arpIpOut, %function
 142              	arpIpOut:
 143              	.LFB6:
 144              		.loc 1 125 0
 145              		@ args = 0, pretend = 0, frame = 0
 146              		@ frame_needed = 0, uses_anonymous_args = 0
 147              	.LVL6:
 148              		stmfd	sp!, {r4, r5, r6, lr}
 149              	.LCFI1:
 150              		mov	r5, r0
 151              		.loc 1 129 0
 152 00bc 70402DE9 		subs	r0, r1, #0
 153              	.LVL7:
ARM GAS  C:\DOCUME~1\pstang\LOCALS~1\Temp/ccquaaaa.s 			page 7


 154 00c0 0050A0E1 		beq	.L34
 155              	.LVL8:
 156 00c4 000051E2 		.loc 1 130 0
 157              		bl	arpMatchIp
 158 00c8 0200000A 	.LVL9:
 159              		mov	r6, r0
 160              	.LVL10:
 161 00cc FEFFFFEB 		b	.L36
 162              	.LVL11:
 163 00d0 0060A0E1 	.L34:
 164              		.loc 1 132 0
 165 00d4 0E0000EA 		ldrb	r3, [r5, #30]	@ zero_extendqisi2
 166              		ldrb	r2, [r5, #31]	@ zero_extendqisi2
 167              		orr	r3, r3, r2, asl #8
 168              		ldrb	r2, [r5, #32]	@ zero_extendqisi2
 169 00d8 1E30D5E5 		orr	r3, r3, r2, asl #16
 170 00dc 1F20D5E5 		ldrb	r2, [r5, #33]	@ zero_extendqisi2
 171 00e0 023483E1 		orr	r3, r3, r2, asl #24
 172 00e4 2020D5E5 		and	r2, r3, #65280
 173 00e8 023883E1 		and	r0, r3, #16711680
 174 00ec 2120D5E5 	.LVL12:
 175 00f0 023C83E1 		mov	r0, r0, lsr #8
 176 00f4 FF2C03E2 		orr	r0, r0, r3, asl #24
 177 00f8 FF0803E2 		orr	r0, r0, r3, lsr #24
 178              		orr	r0, r0, r2, asl #8
 179 00fc 2004A0E1 		bl	arpMatchIp
 180 0100 030C80E1 	.LVL13:
 181 0104 230C80E1 		mov	r6, r0
 182 0108 020480E1 	.LVL14:
 183 010c FEFFFFEB 	.L36:
 184              		.loc 1 134 0
 185 0110 0060A0E1 		cmn	r6, #1
 186              		beq	.L37
 187              		.loc 1 137 0
 188              		mov	r4, #6
 189 0114 010076E3 		add	r0, r5, r4
 190 0118 1000000A 		ldr	r1, .L41
 191              		mov	r2, r4
 192 011c 0640A0E3 		bl	memcpy
 193 0120 040085E0 		.loc 1 138 0
 194 0124 74109FE5 		add	r3, r6, r6, asl #1
 195 0128 0420A0E1 		ldr	r1, .L41+4
 196 012c FEFFFFEB 		add	r1, r1, r3, asl #2
 197              		mov	r0, r5
 198 0130 863086E0 		add	r1, r1, #4
 199 0134 68109FE5 		mov	r2, r4
 200 0138 031181E0 		bl	memcpy
 201 013c 0500A0E1 		.loc 1 139 0
 202 0140 041081E2 		mov	r2, #0
 203 0144 0420A0E1 		orr	r3, r2, #8
 204 0148 FEFFFFEB 		strb	r3, [r5, #12]
 205              		strb	r2, [r5, #13]
 206 014c 0020A0E3 		ldmfd	sp!, {r4, r5, r6, pc}
 207 0150 083082E3 	.L37:
 208 0154 0C30C5E5 		.loc 1 144 0
 209 0158 0D20C5E5 		add	r0, r5, #6
 210 015c 7080BDE8 		ldr	r1, .L41
ARM GAS  C:\DOCUME~1\pstang\LOCALS~1\Temp/ccquaaaa.s 			page 8


 211              		mov	r2, #6
 212              		bl	memcpy
 213 0160 060085E2 		.loc 1 146 0
 214 0164 34109FE5 		mvn	r3, #0
 215 0168 0620A0E3 		strb	r3, [r5, #0]
 216 016c FEFFFFEB 		.loc 1 147 0
 217              		strb	r3, [r5, #1]
 218 0170 0030E0E3 		.loc 1 148 0
 219 0174 0030C5E5 		strb	r3, [r5, #2]
 220              		.loc 1 149 0
 221 0178 0130C5E5 		strb	r3, [r5, #3]
 222              		.loc 1 150 0
 223 017c 0230C5E5 		strb	r3, [r5, #4]
 224              		.loc 1 151 0
 225 0180 0330C5E5 		strb	r3, [r5, #5]
 226              		.loc 1 152 0
 227 0184 0430C5E5 		mov	r2, #0
 228              		orr	r3, r2, #8
 229 0188 0530C5E5 		strb	r3, [r5, #12]
 230              		strb	r2, [r5, #13]
 231 018c 0020A0E3 		ldmfd	sp!, {r4, r5, r6, pc}
 232 0190 083082E3 	.L42:
 233 0194 0C30C5E5 		.align	2
 234 0198 0D20C5E5 	.L41:
 235 019c 7080BDE8 		.word	ArpMyAddr+4
 236              		.word	ArpTable
 237              	.LFE6:
 238              		.size	arpIpOut, .-arpIpOut
 239 01a0 04000000 		.align	2
 240 01a4 00000000 		.global	arpIpIn
 241              		.type	arpIpIn, %function
 242              	arpIpIn:
 243              	.LFB5:
 244              		.loc 1 93 0
 245              		@ args = 0, pretend = 0, frame = 0
 246              		@ frame_needed = 0, uses_anonymous_args = 0
 247              	.LVL15:
 248              		stmfd	sp!, {r4, r5, r6, r7, lr}
 249              	.LCFI2:
 250              		mov	r7, r0
 251              		.loc 1 97 0
 252 01a8 F0402DE9 		ldrb	r3, [r0, #26]	@ zero_extendqisi2
 253              		ldrb	r2, [r0, #27]	@ zero_extendqisi2
 254 01ac 0070A0E1 		orr	r3, r3, r2, asl #8
 255              		ldrb	r2, [r0, #28]	@ zero_extendqisi2
 256 01b0 1A30D0E5 		orr	r3, r3, r2, asl #16
 257 01b4 1B20D0E5 		ldrb	r2, [r0, #29]	@ zero_extendqisi2
 258 01b8 023483E1 		orr	r3, r3, r2, asl #24
 259 01bc 1C20D0E5 		and	r2, r3, #65280
 260 01c0 023883E1 		and	r0, r3, #16711680
 261 01c4 1D20D0E5 	.LVL16:
 262 01c8 023C83E1 		mov	r0, r0, lsr #8
 263 01cc FF2C03E2 		orr	r0, r0, r3, asl #24
 264 01d0 FF0803E2 		orr	r0, r0, r3, lsr #24
 265              		orr	r0, r0, r2, asl #8
 266 01d4 2004A0E1 		bl	arpMatchIp
 267 01d8 030C80E1 		.loc 1 98 0
ARM GAS  C:\DOCUME~1\pstang\LOCALS~1\Temp/ccquaaaa.s 			page 9


 268 01dc 230C80E1 		mov	r0, r0, asl #24
 269 01e0 020480E1 		mov	r0, r0, asr #24
 270 01e4 FEFFFFEB 		cmn	r0, #1
 271              		beq	.L44
 272 01e8 000CA0E1 		.loc 1 101 0
 273 01ec 400CA0E1 		add	r3, r0, r0, asl #1
 274 01f0 010070E3 		ldr	r0, .L53
 275 01f4 2000000A 		add	r0, r0, r3, asl #2
 276              		add	r0, r0, #4
 277 01f8 803080E0 		add	r1, r7, #6
 278 01fc A0009FE5 		mov	r2, #6
 279 0200 030180E0 		bl	memcpy
 280 0204 040080E2 		ldmfd	sp!, {r4, r5, r6, r7, pc}
 281 0208 061087E2 	.L51:
 282 020c 0620A0E3 		.loc 1 113 0
 283 0210 FEFFFFEB 		ldr	r6, .L53
 284 0214 F080BDE8 		add	r4, r1, r1, asl #1
 285              		mov	r4, r4, asl #2
 286              		add	r5, r4, r6
 287 0218 84609FE5 		add	r0, r5, #4
 288 021c 814081E0 		add	r1, r7, #6
 289 0220 0441A0E1 		mov	r2, #6
 290 0224 065084E0 		bl	memcpy
 291 0228 040085E2 		.loc 1 114 0
 292 022c 061087E2 		ldrb	r2, [r7, #26]	@ zero_extendqisi2
 293 0230 0620A0E3 		ldrb	r3, [r7, #27]	@ zero_extendqisi2
 294 0234 FEFFFFEB 		orr	r2, r2, r3, asl #8
 295              		ldrb	r3, [r7, #28]	@ zero_extendqisi2
 296 0238 1A20D7E5 		orr	r2, r2, r3, asl #16
 297 023c 1B30D7E5 		ldrb	r3, [r7, #29]	@ zero_extendqisi2
 298 0240 032482E1 		orr	r2, r2, r3, asl #24
 299 0244 1C30D7E5 		and	r1, r2, #65280
 300 0248 032882E1 		and	r3, r2, #16711680
 301 024c 1D30D7E5 		mov	r3, r3, lsr #8
 302 0250 032C82E1 		orr	r3, r3, r2, asl #24
 303 0254 FF1C02E2 		orr	r3, r3, r2, lsr #24
 304 0258 FF3802E2 		orr	r3, r3, r1, asl #8
 305 025c 2334A0E1 		str	r3, [r4, r6]
 306 0260 023C83E1 		.loc 1 115 0
 307 0264 223C83E1 		mov	r3, #100
 308 0268 013483E1 		strb	r3, [r5, #10]
 309 026c 063084E7 		ldmfd	sp!, {r4, r5, r6, r7, pc}
 310              	.L44:
 311 0270 6430A0E3 		.loc 1 103 0
 312 0274 0A30C5E5 		ldr	r2, .L53
 313 0278 F080BDE8 		mov	r1, #0
 314              	.L47:
 315              		.loc 1 110 0
 316 027c 20209FE5 		ldrb	r3, [r2, #10]	@ zero_extendqisi2
 317 0280 0010A0E3 		cmp	r3, #0
 318              		beq	.L51
 319              		.loc 1 117 0
 320 0284 0A30D2E5 		add	r1, r1, #1
 321 0288 000053E3 		add	r2, r2, #12
 322 028c E1FFFF0A 		.loc 1 108 0
 323              		cmp	r1, #8
 324 0290 011081E2 		bne	.L47
ARM GAS  C:\DOCUME~1\pstang\LOCALS~1\Temp/ccquaaaa.s 			page 10


 325 0294 0C2082E2 		ldmfd	sp!, {r4, r5, r6, r7, pc}
 326              	.L54:
 327 0298 080051E3 		.align	2
 328 029c F8FFFF1A 	.L53:
 329 02a0 F080BDE8 		.word	ArpTable
 330              	.LFE5:
 331              		.size	arpIpIn, .-arpIpIn
 332              		.section	.rodata.str1.4,"aMS",%progbits,1
 333 02a4 00000000 		.align	2
 334              	.LC0:
 335              		.ascii	"Time    Eth Address    IP Address\015\012\000"
 336              		.align	2
 337              	.LC1:
 338              		.ascii	"---------------------------------------\015\012\000"
 339 0000 54696D65 		.align	2
 339      20202020 
 339      45746820 
 339      41646472 
 339      65737320 
 340              	.LC2:
 341              		.ascii	"   \000"
 342 0024 2D2D2D2D 		.align	2
 342      2D2D2D2D 
 342      2D2D2D2D 
 342      2D2D2D2D 
 342      2D2D2D2D 
 343 004e 0000     	.LC3:
 344              		.ascii	"  \000"
 345 0050 20202000 		.text
 346              		.align	2
 347              		.global	arpPrintTable
 348 0054 202000   		.type	arpPrintTable, %function
 349              	arpPrintTable:
 350              	.LFB10:
 351              		.loc 1 213 0
 352              		@ args = 0, pretend = 0, frame = 0
 353              		@ frame_needed = 0, uses_anonymous_args = 0
 354              		stmfd	sp!, {r4, r5, lr}
 186:c:\code\arm\armlib/net\arp.c **** 
 187:c:\code\arm\armlib/net\arp.c **** #ifdef ARP_DEBUG_PRINT
 188:c:\code\arm\armlib/net\arp.c **** void arpPrintHeader(struct netArpHeader* packet)
 189:c:\code\arm\armlib/net\arp.c **** {
 190:c:\code\arm\armlib/net\arp.c **** 	rprintfProgStrM("ARP Packet:\r\n");
 191:c:\code\arm\armlib/net\arp.c **** 	//debugPrintHexTable(60, ((unsigned char*)&packet)-14);
 192:c:\code\arm\armlib/net\arp.c **** 	// print operation type
 193:c:\code\arm\armlib/net\arp.c **** 	rprintfProgStrM("Operation   : ");
 194:c:\code\arm\armlib/net\arp.c **** 	if(packet->opcode == htons(ARP_OPCODE_REQUEST))
 195:c:\code\arm\armlib/net\arp.c **** 		rprintfProgStrM("REQUEST");
 196:c:\code\arm\armlib/net\arp.c **** 	else if(packet->opcode == htons(ARP_OPCODE_REPLY))
 197:c:\code\arm\armlib/net\arp.c **** 		rprintfProgStrM("REPLY");
 198:c:\code\arm\armlib/net\arp.c **** 	else
 199:c:\code\arm\armlib/net\arp.c **** 		rprintfProgStrM("UNKNOWN");
 200:c:\code\arm\armlib/net\arp.c **** 	rprintfCRLF();
 201:c:\code\arm\armlib/net\arp.c **** 	// print source hardware address
 202:c:\code\arm\armlib/net\arp.c **** 	rprintfProgStrM("SrcHwAddr   : ");	netPrintEthAddr(&packet->shwaddr);	rprintfCRLF();
 203:c:\code\arm\armlib/net\arp.c **** 	// print source protocol address
 204:c:\code\arm\armlib/net\arp.c **** 	rprintfProgStrM("SrcProtoAddr: ");	netPrintIPAddr(HTONL(packet->sipaddr));	rprintfCRLF();
ARM GAS  C:\DOCUME~1\pstang\LOCALS~1\Temp/ccquaaaa.s 			page 11


 205:c:\code\arm\armlib/net\arp.c **** 	// print target hardware address
 206:c:\code\arm\armlib/net\arp.c **** 	rprintfProgStrM("DstHwAddr   : ");	netPrintEthAddr(&packet->dhwaddr);	rprintfCRLF();
 207:c:\code\arm\armlib/net\arp.c **** 	// print target protocol address
 208:c:\code\arm\armlib/net\arp.c **** 	rprintfProgStrM("DstProtoAddr: ");	netPrintIPAddr(HTONL(packet->dipaddr));	rprintfCRLF();
 209:c:\code\arm\armlib/net\arp.c **** }
 210:c:\code\arm\armlib/net\arp.c **** 
 211:c:\code\arm\armlib/net\arp.c **** 
 212:c:\code\arm\armlib/net\arp.c **** void arpPrintTable(void)
 213:c:\code\arm\armlib/net\arp.c **** {
 355              	.L61+12
 356              		bl	rprintfStr
 357              		.loc 1 223 0
 358 02a8 30402DE9 		add	r3, r4, r4, asl #1
 359              		ldr	r0, .L61+16
 214:c:\code\arm\armlib/net\arp.c **** 	uint8_t i;
 215:c:\code\arm\armlib/net\arp.c **** 
 216:c:\code\arm\armlib/net\arp.c **** 	// print ARP table
 217:c:\code\arm\armlib/net\arp.c **** 	rprintfProgStrM("Time    Eth Address    IP Address\r\n");
 360              	r0, r0, r3, asl #2
 361 02ac 58009FE5 		bl	netPrintEthAddr
 362 02b0 FEFFFFEB 		.loc 1 224 0
 218:c:\code\arm\armlib/net\arp.c **** 	rprintfProgStrM("---------------------------------------\r\n");
 363              	r	r0, .L61+20
 364 02b4 54009FE5 		bl	rprintfStr
 365 02b8 FEFFFFEB 		.loc 1 225 0
 366 02bc 0040A0E3 		ldr	r0, [r5, #-10]
 367 02c0 4C509FE5 		bl	netPrintIPAddr
 368              		.loc 1 226 0
 219:c:\code\arm\armlib/net\arp.c **** 	for(i=0; i<ARP_TABLE_SIZE; i++)
 220:c:\code\arm\armlib/net\arp.c **** 	{
 221:c:\code\arm\armlib/net\arp.c **** 		rprintfu08(ArpTable[i].time);
 369              	rintfCRLF
 370 02c4 0000D5E5 		add	r4, r4, #1
 371 02c8 FEFFFFEB 		add	r5, r5, #12
 222:c:\code\arm\armlib/net\arp.c **** 		rprintfProgStrM("   ");
 372              	oc 1 219 0
 373 02cc 44009FE5 		cmp	r4, #8
 374 02d0 FEFFFFEB 		bne	.L56
 223:c:\code\arm\armlib/net\arp.c **** 		netPrintEthAddr(&ArpTable[i].ethaddr);
 375              	oc 1 228 0
 376 02d4 843084E0 		ldmfd	sp!, {r4, r5, pc}
 377 02d8 3C009FE5 	.L62:
 378 02dc 030180E0 		.align	2
 379 02e0 FEFFFFEB 	.L61:
 224:c:\code\arm\armlib/net\arp.c **** 		rprintfProgStrM("  ");
 380              	d	.LC0
 381 02e4 34009FE5 		.word	.LC1
 382 02e8 FEFFFFEB 		.word	ArpTable+10
 225:c:\code\arm\armlib/net\arp.c **** 		netPrintIPAddr(ArpTable[i].ipaddr);
 383              	ord	.LC2
 384 02ec 0A0015E5 		.word	ArpTable+4
 385 02f0 FEFFFFEB 		.word	.LC3
 226:c:\code\arm\armlib/net\arp.c **** 		rprintfCRLF();
 386              	E10:
 387 02f4 FEFFFFEB 		.size	arpPrintTable, .-arpPrintTable
 388 02f8 014084E2 		.section	.rodata.str1.4
 389 02fc 0C5085E2 		.align	2
ARM GAS  C:\DOCUME~1\pstang\LOCALS~1\Temp/ccquaaaa.s 			page 12


 390              	.LC4:
 391 0300 080054E3 		.ascii	"ARP Packet:\015\012\000"
 392 0304 EEFFFF1A 		.align	2
 227:c:\code\arm\armlib/net\arp.c **** 	}
 228:c:\code\arm\armlib/net\arp.c **** }
 393              	.ascii	"Operation   : \000"
 394 0308 3080BDE8 		.align	2
 395              	.LC6:
 396              		.ascii	"REQUEST\000"
 397              		.align	2
 398 030c 00000000 	.LC7:
 399 0310 24000000 		.ascii	"REPLY\000"
 400 0314 0A000000 		.align	2
 401 0318 50000000 	.LC8:
 402 031c 04000000 		.ascii	"UNKNOWN\000"
 403 0320 54000000 		.align	2
 404              	.LC9:
 405              		.ascii	"SrcHwAddr   : \000"
 406              		.align	2
 407 0057 00       	.LC10:
 408              		.ascii	"SrcProtoAddr: \000"
 409 0058 41525020 		.align	2
 409      5061636B 
 409      65743A0D 
 409      0A00
 410 0066 0000     	.LC11:
 411              		.ascii	"DstHwAddr   : \000"
 412 0068 4F706572 		.align	2
 412      6174696F 
 412      6E202020 
 412      3A2000
 413 0077 00       	.LC12:
 414              		.ascii	"DstProtoAddr: \000"
 415 0078 52455155 		.text
 415      45535400 
 416              		.align	2
 417              		.global	arpPrintHeader
 418 0080 5245504C 		.type	arpPrintHeader, %function
 418      5900
 419 0086 0000     	arpPrintHeader:
 420              	.LFB9:
 421 0088 554E4B4E 		.loc 1 189 0
 421      4F574E00 
 422              		@ args = 0, pretend = 0, frame = 0
 423              		@ frame_needed = 0, uses_anonymous_args = 0
 424 0090 53726348 	.LVL17:
 424      77416464 
 424      72202020 
 424      3A2000
 425 009f 00       		stmfd	sp!, {r4, r5, lr}
 426              	.LCFI4:
 427 00a0 53726350 		mov	r5, r0
 427      726F746F 
 427      41646472 
 427      3A2000
 428 00af 00       		.loc 1 190 0
 429              		ldr	r0, .L70
ARM GAS  C:\DOCUME~1\pstang\LOCALS~1\Temp/ccquaaaa.s 			page 13


 430 00b0 44737448 	.LVL18:
 430      77416464 
 430      72202020 
 430      3A2000
 431 00bf 00       		bl	rprintfStr
 432              		.loc 1 193 0
 433 00c0 44737450 		ldr	r0, .L70+4
 433      726F746F 
 433      41646472 
 433      3A2000
 434 00cf 00       		bl	rprintfStr
 435              		.loc 1 194 0
 436              		ldrb	r4, [r5, #6]	@ zero_extendqisi2
 437              		ldrb	r3, [r5, #7]	@ zero_extendqisi2
 438              		orr	r4, r4, r3, asl #8
 439              		mov	r0, #1
 440              		bl	htons
 441              		cmp	r4, r0
 442              		bne	.L64
 443              		.loc 1 195 0
 444 0324 30402DE9 		ldr	r0, .L70+8
 445              		bl	rprintfStr
 446 0328 0050A0E1 		b	.L66
 447              	.L64:
 448 032c 18019FE5 		.loc 1 196 0
 449              		ldrb	r4, [r5, #6]	@ zero_extendqisi2
 450 0330 FEFFFFEB 		ldrb	r3, [r5, #7]	@ zero_extendqisi2
 451              		orr	r4, r4, r3, asl #8
 452 0334 14019FE5 		mov	r0, #2
 453 0338 FEFFFFEB 		bl	htons
 454              		cmp	r4, r0
 455 033c 0640D5E5 		bne	.L67
 456 0340 0730D5E5 		.loc 1 197 0
 457 0344 034484E1 		ldr	r0, .L70+12
 458 0348 0100A0E3 		bl	rprintfStr
 459 034c FEFFFFEB 		b	.L66
 460 0350 000054E1 	.L67:
 461 0354 0200001A 		.loc 1 199 0
 462              		ldr	r0, .L70+16
 463 0358 F4009FE5 		bl	rprintfStr
 464 035c FEFFFFEB 	.L66:
 465 0360 0B0000EA 		.loc 1 200 0
 466              		bl	rprintfCRLF
 467              		.loc 1 202 0
 468 0364 0640D5E5 		ldr	r0, .L70+20
 469 0368 0730D5E5 		bl	rprintfStr
 470 036c 034484E1 		add	r0, r5, #8
 471 0370 0200A0E3 		bl	netPrintEthAddr
 472 0374 FEFFFFEB 		bl	rprintfCRLF
 473 0378 000054E1 		.loc 1 204 0
 474 037c 0200001A 		ldr	r0, .L70+24
 475              		bl	rprintfStr
 476 0380 D0009FE5 		ldrb	r3, [r5, #14]	@ zero_extendqisi2
 477 0384 FEFFFFEB 		ldrb	r2, [r5, #15]	@ zero_extendqisi2
 478 0388 010000EA 		orr	r3, r3, r2, asl #8
 479              		ldrb	r2, [r5, #16]	@ zero_extendqisi2
 480              		orr	r3, r3, r2, asl #16
ARM GAS  C:\DOCUME~1\pstang\LOCALS~1\Temp/ccquaaaa.s 			page 14


 481 038c C8009FE5 		ldrb	r2, [r5, #17]	@ zero_extendqisi2
 482 0390 FEFFFFEB 		orr	r3, r3, r2, asl #24
 483              		and	r2, r3, #65280
 484              		and	r0, r3, #16711680
 485 0394 FEFFFFEB 		mov	r0, r0, lsr #8
 486              		orr	r0, r0, r3, asl #24
 487 0398 C0009FE5 		orr	r0, r0, r3, lsr #24
 488 039c FEFFFFEB 		orr	r0, r0, r2, asl #8
 489 03a0 080085E2 		bl	netPrintIPAddr
 490 03a4 FEFFFFEB 		bl	rprintfCRLF
 491 03a8 FEFFFFEB 		.loc 1 206 0
 492              		ldr	r0, .L70+28
 493 03ac B0009FE5 		bl	rprintfStr
 494 03b0 FEFFFFEB 		add	r0, r5, #18
 495 03b4 0E30D5E5 		bl	netPrintEthAddr
 496 03b8 0F20D5E5 		bl	rprintfCRLF
 497 03bc 023483E1 		.loc 1 208 0
 498 03c0 1020D5E5 		ldr	r0, .L70+32
 499 03c4 023883E1 		bl	rprintfStr
 500 03c8 1120D5E5 		ldrb	r3, [r5, #24]	@ zero_extendqisi2
 501 03cc 023C83E1 		ldrb	r2, [r5, #25]	@ zero_extendqisi2
 502 03d0 FF2C03E2 		orr	r3, r3, r2, asl #8
 503 03d4 FF0803E2 		ldrb	r2, [r5, #26]	@ zero_extendqisi2
 504 03d8 2004A0E1 		orr	r3, r3, r2, asl #16
 505 03dc 030C80E1 		ldrb	r2, [r5, #27]	@ zero_extendqisi2
 506 03e0 230C80E1 		orr	r3, r3, r2, asl #24
 507 03e4 020480E1 		and	r2, r3, #65280
 508 03e8 FEFFFFEB 		and	r0, r3, #16711680
 509 03ec FEFFFFEB 		mov	r0, r0, lsr #8
 510              		orr	r0, r0, r3, asl #24
 511 03f0 70009FE5 		orr	r0, r0, r3, lsr #24
 512 03f4 FEFFFFEB 		orr	r0, r0, r2, asl #8
 513 03f8 120085E2 		bl	netPrintIPAddr
 514 03fc FEFFFFEB 		bl	rprintfCRLF
 515 0400 FEFFFFEB 		.loc 1 209 0
 516              		ldmfd	sp!, {r4, r5, pc}
 517 0404 60009FE5 	.L71:
 518 0408 FEFFFFEB 		.align	2
 519 040c 1830D5E5 	.L70:
 520 0410 1920D5E5 		.word	.LC4
 521 0414 023483E1 		.word	.LC5
 522 0418 1A20D5E5 		.word	.LC6
 523 041c 023883E1 		.word	.LC7
 524 0420 1B20D5E5 		.word	.LC8
 525 0424 023C83E1 		.word	.LC9
 526 0428 FF2C03E2 		.word	.LC10
 527 042c FF0803E2 		.word	.LC11
 528 0430 2004A0E1 		.word	.LC12
 529 0434 030C80E1 	.LFE9:
 530 0438 230C80E1 		.size	arpPrintHeader, .-arpPrintHeader
 531 043c 020480E1 		.align	2
 532 0440 FEFFFFEB 		.global	arpArpIn
 533 0444 FEFFFFEB 		.type	arpArpIn, %function
 534              	arpArpIn:
 535 0448 3080BDE8 	.LFB4:
 536              		.loc 1 55 0
 537              		@ args = 0, pretend = 0, frame = 0
ARM GAS  C:\DOCUME~1\pstang\LOCALS~1\Temp/ccquaaaa.s 			page 15


 538              		@ frame_needed = 0, uses_anonymous_args = 0
 539 044c 58000000 	.LVL19:
 540 0450 68000000 		stmfd	sp!, {r4, r5, r6, r7, r8, sl, lr}
 541 0454 78000000 	.LCFI5:
 542 0458 80000000 		mov	sl, r0
 543 045c 88000000 		mov	r7, r1
 544 0460 90000000 		.loc 1 63 0
 545 0464 A0000000 		ldr	r8, .L77
 546 0468 B0000000 		ldr	r1, [r8, #0]
 547 046c C0000000 	.LVL20:
 548              		ldrb	r2, [r7, #38]	@ zero_extendqisi2
 549              		ldrb	r3, [r7, #39]	@ zero_extendqisi2
 550              		orr	r2, r2, r3, asl #8
 551              		ldrb	r3, [r7, #40]	@ zero_extendqisi2
 552              		orr	r2, r2, r3, asl #16
 553              		ldrb	r3, [r7, #41]	@ zero_extendqisi2
 554              		orr	r2, r2, r3, asl #24
 555              		and	r0, r1, #65280
 556              	.LVL21:
 557              		and	r3, r1, #16711680
 558              		mov	r3, r3, lsr #8
 559 0470 F0452DE9 		orr	r3, r3, r1, asl #24
 560              		orr	r3, r3, r1, lsr #24
 561 0474 00A0A0E1 		orr	r3, r3, r0, asl #8
 562 0478 0170A0E1 		cmp	r2, r3
 563              		ldmnefd	sp!, {r4, r5, r6, r7, r8, sl, pc}
 564 047c 3C819FE5 		ldrb	r4, [r7, #20]	@ zero_extendqisi2
 565 0480 001098E5 		ldrb	r3, [r7, #21]	@ zero_extendqisi2
 566              		orr	r4, r4, r3, asl #8
 567 0484 2620D7E5 		mov	r0, #1
 568 0488 2730D7E5 		bl	htons
 569 048c 032482E1 		cmp	r4, r0
 570 0490 2830D7E5 		ldmnefd	sp!, {r4, r5, r6, r7, r8, sl, pc}
 571 0494 032882E1 		.loc 1 68 0
 572 0498 2930D7E5 		add	r4, r7, #22
 573 049c 032C82E1 		mov	r5, #6
 574 04a0 FF0C01E2 		add	r0, r7, #32
 575              		mov	r1, r4
 576 04a4 FF3801E2 		mov	r2, r5
 577 04a8 2334A0E1 		bl	memcpy
 578 04ac 013C83E1 		.loc 1 69 0
 579 04b0 213C83E1 		ldrb	r3, [r7, #28]	@ zero_extendqisi2
 580 04b4 003483E1 		ldrb	r2, [r7, #29]	@ zero_extendqisi2
 581 04b8 030052E1 		orr	r3, r3, r2, asl #8
 582 04bc F085BD18 		ldrb	r2, [r7, #30]	@ zero_extendqisi2
 583 04c0 1440D7E5 		orr	r3, r3, r2, asl #16
 584 04c4 1530D7E5 		ldrb	r2, [r7, #31]	@ zero_extendqisi2
 585 04c8 034484E1 		orr	r3, r3, r2, asl #24
 586 04cc 0100A0E3 		strb	r3, [r7, #38]
 587 04d0 FEFFFFEB 		mov	r2, r3, lsr #8
 588 04d4 000054E1 		strb	r2, [r7, #39]
 589 04d8 F085BD18 		mov	r2, r3, lsr #16
 590              		strb	r2, [r7, #40]
 591 04dc 164087E2 		mov	r3, r3, lsr #24
 592 04e0 0650A0E3 		strb	r3, [r7, #41]
 593 04e4 200087E2 		.loc 1 71 0
 594 04e8 0410A0E1 		add	r6, r8, #4
ARM GAS  C:\DOCUME~1\pstang\LOCALS~1\Temp/ccquaaaa.s 			page 16


 595 04ec 0520A0E1 		mov	r0, r4
 596 04f0 FEFFFFEB 		mov	r1, r6
 597              		mov	r2, r5
 598 04f4 1C30D7E5 		bl	memcpy
 599 04f8 1D20D7E5 		.loc 1 72 0
 600 04fc 023483E1 		ldr	r2, [r8, #0]
 601 0500 1E20D7E5 		and	r1, r2, #65280
 602 0504 023883E1 		and	r3, r2, #16711680
 603 0508 1F20D7E5 		mov	r3, r3, lsr #8
 604 050c 023C83E1 		orr	r3, r3, r2, asl #24
 605 0510 2630C7E5 		orr	r3, r3, r2, lsr #24
 606 0514 2324A0E1 		orr	r3, r3, r1, asl #8
 607 0518 2720C7E5 		strb	r3, [r7, #28]
 608 051c 2328A0E1 		mov	r2, r3, lsr #8
 609 0520 2820C7E5 		strb	r2, [r7, #29]
 610 0524 233CA0E1 		mov	r2, r3, lsr #16
 611 0528 2930C7E5 		strb	r2, [r7, #30]
 612              		mov	r3, r3, lsr #24
 613 052c 046088E2 		strb	r3, [r7, #31]
 614 0530 0400A0E1 		.loc 1 74 0
 615 0534 0610A0E1 		mov	r0, #2
 616 0538 0520A0E1 		bl	htons
 617 053c FEFFFFEB 		strb	r0, [r7, #20]
 618              		mov	r0, r0, lsr #8
 619 0540 002098E5 		strb	r0, [r7, #21]
 620 0544 FF1C02E2 		.loc 1 77 0
 621 0548 FF3802E2 		add	r4, r7, r5
 622 054c 2334A0E1 		mov	r0, r7
 623 0550 023C83E1 		mov	r1, r4
 624 0554 223C83E1 		mov	r2, r5
 625 0558 013483E1 		bl	memcpy
 626 055c 1C30C7E5 		.loc 1 78 0
 627 0560 2324A0E1 		mov	r0, r4
 628 0564 1D20C7E5 		mov	r1, r6
 629 0568 2328A0E1 		mov	r2, r5
 630 056c 1E20C7E5 		bl	memcpy
 631 0570 233CA0E1 		.loc 1 88 0
 632 0574 1F30C7E5 		mov	r0, sl
 633              		mov	r1, r7
 634 0578 0200A0E3 		bl	nicSend
 635 057c FEFFFFEB 		ldmfd	sp!, {r4, r5, r6, r7, r8, sl, pc}
 636 0580 1400C7E5 	.L78:
 637 0584 2004A0E1 		.align	2
 638 0588 1500C7E5 	.L77:
 639              		.word	ArpMyAddr
 640 058c 054087E0 	.LFE4:
 641 0590 0700A0E1 		.size	arpArpIn, .-arpArpIn
 642 0594 0410A0E1 		.comm	ArpMyAddr,12,4
 643 0598 0520A0E1 		.comm	ArpTable,96,4
 644 059c FEFFFFEB 		.section	.debug_frame,"",%progbits
 645              	.Lframe0:
 646 05a0 0400A0E1 		.4byte	.LECIE0-.LSCIE0
 647 05a4 0610A0E1 	.LSCIE0:
 648 05a8 0520A0E1 		.4byte	0xffffffff
 649 05ac FEFFFFEB 		.byte	0x1
 650              		.ascii	"\000"
 651 05b0 0A00A0E1 		.uleb128 0x1
ARM GAS  C:\DOCUME~1\pstang\LOCALS~1\Temp/ccquaaaa.s 			page 17


 652 05b4 0710A0E1 		.sleb128 -4
 653 05b8 FEFFFFEB 		.byte	0xe
 654 05bc F085BDE8 		.byte	0xc
 655              		.uleb128 0xd
 656              		.uleb128 0x0
 657              		.align	2
 658 05c0 00000000 	.LECIE0:
 659              	.LSFDE0:
 660              		.4byte	.LEFDE0-.LASFDE0
 661              	.LASFDE0:
 662              		.4byte	.Lframe0
 663              		.4byte	.LFB2
 664              		.4byte	.LFE2-.LFB2
 665 0000 0C000000 		.align	2
 666              	.LEFDE0:
 667 0004 FFFFFFFF 	.LSFDE2:
 668 0008 01       		.4byte	.LEFDE2-.LASFDE2
 669 0009 00       	.LASFDE2:
 670 000a 01       		.4byte	.Lframe0
 671 000b 7C       		.4byte	.LFB3
 672 000c 0E       		.4byte	.LFE3-.LFB3
 673 000d 0C       		.byte	0x4
 674 000e 0D       		.4byte	.LCFI0-.LFB3
 675 000f 00       		.byte	0xe
 676              		.uleb128 0xc
 677              		.byte	0x8e
 678              		.uleb128 0x1
 679 0010 0C000000 		.byte	0x85
 680              		.uleb128 0x2
 681 0014 00000000 		.byte	0x84
 682 0018 00000000 		.uleb128 0x3
 683 001c 2C000000 		.align	2
 684              	.LEFDE2:
 685              	.LSFDE4:
 686              		.4byte	.LEFDE4-.LASFDE4
 687 0020 18000000 	.LASFDE4:
 688              		.4byte	.Lframe0
 689 0024 00000000 		.4byte	.LFB7
 690 0028 2C000000 		.4byte	.LFE7-.LFB7
 691 002c 2C000000 		.align	2
 692 0030 44       	.LEFDE4:
 693              	.LSFDE6:
 694 0031 0E       		.4byte	.LEFDE6-.LASFDE6
 695 0032 0C       	.LASFDE6:
 696 0033 8E       		.4byte	.Lframe0
 697 0034 01       		.4byte	.LFB8
 698 0035 85       		.4byte	.LFE8-.LFB8
 699 0036 02       		.align	2
 700 0037 84       	.LEFDE6:
 701 0038 03       	.LSFDE8:
 702 0039 000000   		.4byte	.LEFDE8-.LASFDE8
 703              	.LASFDE8:
 704              		.4byte	.Lframe0
 705 003c 0C000000 		.4byte	.LFB6
 706              		.4byte	.LFE6-.LFB6
 707 0040 00000000 		.byte	0x4
 708 0044 58000000 		.4byte	.LCFI1-.LFB6
ARM GAS  C:\DOCUME~1\pstang\LOCALS~1\Temp/ccquaaaa.s 			page 18


 709 0048 30000000 		.byte	0xe
 710              		.uleb128 0x10
 711              		.byte	0x8e
 712              		.uleb128 0x1
 713 004c 0C000000 		.byte	0x86
 714              		.uleb128 0x2
 715 0050 00000000 		.byte	0x85
 716 0054 88000000 		.uleb128 0x3
 717 0058 34000000 		.byte	0x84
 718              		.uleb128 0x4
 719              		.align	2
 720              	.LEFDE8:
 721 005c 18000000 	.LSFDE10:
 722              		.4byte	.LEFDE10-.LASFDE10
 723 0060 00000000 	.LASFDE10:
 724 0064 BC000000 		.4byte	.Lframe0
 725 0068 EC000000 		.4byte	.LFB5
 726 006c 44       		.4byte	.LFE5-.LFB5
 727              		.byte	0x4
 728 006d 0E       		.4byte	.LCFI2-.LFB5
 729 006e 10       		.byte	0xe
 730 006f 8E       		.uleb128 0x14
 731 0070 01       		.byte	0x8e
 732 0071 86       		.uleb128 0x1
 733 0072 02       		.byte	0x87
 734 0073 85       		.uleb128 0x2
 735 0074 03       		.byte	0x86
 736 0075 84       		.uleb128 0x3
 737 0076 04       		.byte	0x85
 738 0077 00       		.uleb128 0x4
 739              		.byte	0x84
 740              		.uleb128 0x5
 741 0078 1C000000 		.align	2
 742              	.LEFDE10:
 743 007c 00000000 	.LSFDE12:
 744 0080 A8010000 		.4byte	.LEFDE12-.LASFDE12
 745 0084 00010000 	.LASFDE12:
 746 0088 44       		.4byte	.Lframe0
 747              		.4byte	.LFB10
 748 0089 0E       		.4byte	.LFE10-.LFB10
 749 008a 14       		.byte	0x4
 750 008b 8E       		.4byte	.LCFI3-.LFB10
 751 008c 01       		.byte	0xe
 752 008d 87       		.uleb128 0xc
 753 008e 02       		.byte	0x8e
 754 008f 86       		.uleb128 0x1
 755 0090 03       		.byte	0x85
 756 0091 85       		.uleb128 0x2
 757 0092 04       		.byte	0x84
 758 0093 84       		.uleb128 0x3
 759 0094 05       		.align	2
 760 0095 000000   	.LEFDE12:
 761              	.LSFDE14:
 762              		.4byte	.LEFDE14-.LASFDE14
 763 0098 18000000 	.LASFDE14:
 764              		.4byte	.Lframe0
 765 009c 00000000 		.4byte	.LFB9
ARM GAS  C:\DOCUME~1\pstang\LOCALS~1\Temp/ccquaaaa.s 			page 19


 766 00a0 A8020000 		.4byte	.LFE9-.LFB9
 767 00a4 7C000000 		.byte	0x4
 768 00a8 44       		.4byte	.LCFI4-.LFB9
 769              		.byte	0xe
 770 00a9 0E       		.uleb128 0xc
 771 00aa 0C       		.byte	0x8e
 772 00ab 8E       		.uleb128 0x1
 773 00ac 01       		.byte	0x85
 774 00ad 85       		.uleb128 0x2
 775 00ae 02       		.byte	0x84
 776 00af 84       		.uleb128 0x3
 777 00b0 03       		.align	2
 778 00b1 000000   	.LEFDE14:
 779              	.LSFDE16:
 780              		.4byte	.LEFDE16-.LASFDE16
 781 00b4 18000000 	.LASFDE16:
 782              		.4byte	.Lframe0
 783 00b8 00000000 		.4byte	.LFB4
 784 00bc 24030000 		.4byte	.LFE4-.LFB4
 785 00c0 4C010000 		.byte	0x4
 786 00c4 44       		.4byte	.LCFI5-.LFB4
 787              		.byte	0xe
 788 00c5 0E       		.uleb128 0x1c
 789 00c6 0C       		.byte	0x8e
 790 00c7 8E       		.uleb128 0x1
 791 00c8 01       		.byte	0x8a
 792 00c9 85       		.uleb128 0x2
 793 00ca 02       		.byte	0x88
 794 00cb 84       		.uleb128 0x3
 795 00cc 03       		.byte	0x87
 796 00cd 000000   		.uleb128 0x4
 797              		.byte	0x86
 798              		.uleb128 0x5
 799 00d0 20000000 		.byte	0x85
 800              		.uleb128 0x6
 801 00d4 00000000 		.byte	0x84
 802 00d8 70040000 		.uleb128 0x7
 803 00dc 54010000 		.align	2
 804 00e0 44       	.LEFDE16:
 805              		.file 2 "c:\\code\\arm\\armlib/armlibtypes.h"
 806 00e1 0E       		.file 3 "c:\\code\\arm\\armlib/net/net.h"
 807 00e2 1C       		.file 4 "c:\\programa\\winarm/arm-elf/include/stdint.h"
 808 00e3 8E       		.text
 809 00e4 01       	.Letext0: