ARM GAS  C:\DOCUME~1\pstang\LOCALS~1\Temp/cc80aaaa.s 			page 1


   1              		.file	"ax88796.c"
   2              		.section	.debug_abbrev,"",%progbits
   3              	.Ldebug_abbrev0:
   4              		.section	.debug_info,"",%progbits
   5              	.Ldebug_info0:
   6              		.section	.debug_line,"",%progbits
   7              	.Ldebug_line0:
   8 0000 07050000 		.text
   8      02005B00 
   8      00000201 
   8      FB0E0D00 
   8      01010101 
   9              	.Ltext0:
  10              		.align	2
  11              		.global	ax88796SetupPorts
  12              		.type	ax88796SetupPorts, %function
  13              	ax88796SetupPorts:
  14              	.LFB8:
  15              		.file 1 "c:\\code\\arm\\armlib/net/ax88796.c"
   1:c:\code\arm\armlib/net\ax88796.c **** /*! \file ax88796.c \brief ASIX AX88796 Ethernet Interface Driver. */
   2:c:\code\arm\armlib/net\ax88796.c **** //*****************************************************************************
   3:c:\code\arm\armlib/net\ax88796.c **** //
   4:c:\code\arm\armlib/net\ax88796.c **** // File Name	: 'ax88796.c'
   5:c:\code\arm\armlib/net\ax88796.c **** // Title		: ASIX AX88796 Ethernet Interface Driver
   6:c:\code\arm\armlib/net\ax88796.c **** // Author		: Pascal Stang
   7:c:\code\arm\armlib/net\ax88796.c **** // Created		: 10/22/2002
   8:c:\code\arm\armlib/net\ax88796.c **** // Revised		: 8/21/2005
   9:c:\code\arm\armlib/net\ax88796.c **** // Version		: 0.1
  10:c:\code\arm\armlib/net\ax88796.c **** // Target MCU	: Atmel AVR series
  11:c:\code\arm\armlib/net\ax88796.c **** // Editor Tabs	: 4
  12:c:\code\arm\armlib/net\ax88796.c **** //
  13:c:\code\arm\armlib/net\ax88796.c **** // Description	: This driver provides initialization and transmit/receive
  14:c:\code\arm\armlib/net\ax88796.c **** //		functions for the ASIX AX88796 10/100Mb Ethernet Controller and PHY.
  15:c:\code\arm\armlib/net\ax88796.c **** //
  16:c:\code\arm\armlib/net\ax88796.c **** // Based in part on code by Louis Beaudoin (www.embedded-creations.com).
  17:c:\code\arm\armlib/net\ax88796.c **** // Thanks to Adam Dunkels and Louis Beaudoin for providing the initial
  18:c:\code\arm\armlib/net\ax88796.c **** // structure in which to write this driver.
  19:c:\code\arm\armlib/net\ax88796.c **** //
  20:c:\code\arm\armlib/net\ax88796.c **** //*****************************************************************************
  21:c:\code\arm\armlib/net\ax88796.c **** 
  22:c:\code\arm\armlib/net\ax88796.c **** #include "global.h"
  23:c:\code\arm\armlib/net\ax88796.c **** #include "timer.h"
  24:c:\code\arm\armlib/net\ax88796.c **** #include "rprintf.h"
  25:c:\code\arm\armlib/net\ax88796.c **** 
  26:c:\code\arm\armlib/net\ax88796.c **** #include "ax88796.h"
  27:c:\code\arm\armlib/net\ax88796.c **** 
  28:c:\code\arm\armlib/net\ax88796.c **** // include configuration
  29:c:\code\arm\armlib/net\ax88796.c **** #include "ax88796conf.h"
  30:c:\code\arm\armlib/net\ax88796.c **** 
  31:c:\code\arm\armlib/net\ax88796.c **** // pointers to locations in the ax88796 receive buffer
  32:c:\code\arm\armlib/net\ax88796.c **** static unsigned char NextPage;				// page pointer to next Rx packet
  33:c:\code\arm\armlib/net\ax88796.c **** static unsigned int CurrentRetreiveAddress;	// DMA address for read Rx packet location
  34:c:\code\arm\armlib/net\ax88796.c **** 
  35:c:\code\arm\armlib/net\ax88796.c **** 
  36:c:\code\arm\armlib/net\ax88796.c **** void nicInit(void)
  37:c:\code\arm\armlib/net\ax88796.c **** {
  38:c:\code\arm\armlib/net\ax88796.c **** 	ax88796Init();
ARM GAS  C:\DOCUME~1\pstang\LOCALS~1\Temp/cc80aaaa.s 			page 2


  39:c:\code\arm\armlib/net\ax88796.c **** }
  40:c:\code\arm\armlib/net\ax88796.c **** 
  41:c:\code\arm\armlib/net\ax88796.c **** void nicSend(unsigned int len, unsigned char* packet)
  42:c:\code\arm\armlib/net\ax88796.c **** {
  43:c:\code\arm\armlib/net\ax88796.c **** 	ax88796BeginPacketSend(len);
  44:c:\code\arm\armlib/net\ax88796.c **** 	ax88796SendPacketData(packet, len);
  45:c:\code\arm\armlib/net\ax88796.c **** 	ax88796EndPacketSend();
  46:c:\code\arm\armlib/net\ax88796.c **** }
  47:c:\code\arm\armlib/net\ax88796.c **** 
  48:c:\code\arm\armlib/net\ax88796.c **** unsigned int nicPoll(unsigned int maxlen, unsigned char* packet)
  49:c:\code\arm\armlib/net\ax88796.c **** {
  50:c:\code\arm\armlib/net\ax88796.c **** 	unsigned int packetLength;
  51:c:\code\arm\armlib/net\ax88796.c **** 	
  52:c:\code\arm\armlib/net\ax88796.c **** 	packetLength = ax88796BeginPacketRetreive();
  53:c:\code\arm\armlib/net\ax88796.c **** 
  54:c:\code\arm\armlib/net\ax88796.c **** 	// if there's no packet or an error - exit without ending the operation
  55:c:\code\arm\armlib/net\ax88796.c **** 	if( !packetLength )
  56:c:\code\arm\armlib/net\ax88796.c **** 		return 0;
  57:c:\code\arm\armlib/net\ax88796.c **** 
  58:c:\code\arm\armlib/net\ax88796.c **** 	// drop anything too big for the buffer
  59:c:\code\arm\armlib/net\ax88796.c **** 	if( packetLength > maxlen )
  60:c:\code\arm\armlib/net\ax88796.c **** 	{
  61:c:\code\arm\armlib/net\ax88796.c **** 		ax88796EndPacketRetreive();
  62:c:\code\arm\armlib/net\ax88796.c **** 		return 0;
  63:c:\code\arm\armlib/net\ax88796.c **** 	}
  64:c:\code\arm\armlib/net\ax88796.c **** 	
  65:c:\code\arm\armlib/net\ax88796.c **** 	// copy the packet data into the uIP packet buffer
  66:c:\code\arm\armlib/net\ax88796.c **** 	ax88796RetreivePacketData( packet, packetLength );
  67:c:\code\arm\armlib/net\ax88796.c **** 	ax88796EndPacketRetreive();
  68:c:\code\arm\armlib/net\ax88796.c **** 		
  69:c:\code\arm\armlib/net\ax88796.c **** 	return packetLength;
  70:c:\code\arm\armlib/net\ax88796.c **** }
  71:c:\code\arm\armlib/net\ax88796.c **** 
  72:c:\code\arm\armlib/net\ax88796.c **** void nicGetMacAddress(u08* macaddr)
  73:c:\code\arm\armlib/net\ax88796.c **** {
  74:c:\code\arm\armlib/net\ax88796.c **** 	u08 tempCR;
  75:c:\code\arm\armlib/net\ax88796.c **** 	// switch register pages
  76:c:\code\arm\armlib/net\ax88796.c **** 	tempCR = ax88796Read(CR);
  77:c:\code\arm\armlib/net\ax88796.c **** 	ax88796Write(CR,tempCR|PS0);
  78:c:\code\arm\armlib/net\ax88796.c **** 	// read MAC address registers
  79:c:\code\arm\armlib/net\ax88796.c **** 	*macaddr++ = ax88796Read(PAR0);
  80:c:\code\arm\armlib/net\ax88796.c **** 	*macaddr++ = ax88796Read(PAR1);
  81:c:\code\arm\armlib/net\ax88796.c **** 	*macaddr++ = ax88796Read(PAR2);
  82:c:\code\arm\armlib/net\ax88796.c **** 	*macaddr++ = ax88796Read(PAR3);
  83:c:\code\arm\armlib/net\ax88796.c **** 	*macaddr++ = ax88796Read(PAR4);
  84:c:\code\arm\armlib/net\ax88796.c **** 	*macaddr++ = ax88796Read(PAR5);
  85:c:\code\arm\armlib/net\ax88796.c **** 	// switch register pages back
  86:c:\code\arm\armlib/net\ax88796.c **** 	ax88796Write(CR,tempCR);
  87:c:\code\arm\armlib/net\ax88796.c **** }
  88:c:\code\arm\armlib/net\ax88796.c **** 
  89:c:\code\arm\armlib/net\ax88796.c **** void nicSetMacAddress(u08* macaddr)
  90:c:\code\arm\armlib/net\ax88796.c **** {
  91:c:\code\arm\armlib/net\ax88796.c **** 	u08 tempCR;
  92:c:\code\arm\armlib/net\ax88796.c **** 	// switch register pages
  93:c:\code\arm\armlib/net\ax88796.c **** 	tempCR = ax88796Read(CR);
  94:c:\code\arm\armlib/net\ax88796.c **** 	ax88796Write(CR,tempCR|PS0);
  95:c:\code\arm\armlib/net\ax88796.c **** 	// write MAC address registers
ARM GAS  C:\DOCUME~1\pstang\LOCALS~1\Temp/cc80aaaa.s 			page 3


  96:c:\code\arm\armlib/net\ax88796.c **** 	ax88796Write(PAR0, *macaddr++);
  97:c:\code\arm\armlib/net\ax88796.c **** 	ax88796Write(PAR1, *macaddr++);
  98:c:\code\arm\armlib/net\ax88796.c **** 	ax88796Write(PAR2, *macaddr++);
  99:c:\code\arm\armlib/net\ax88796.c **** 	ax88796Write(PAR3, *macaddr++);
 100:c:\code\arm\armlib/net\ax88796.c **** 	ax88796Write(PAR4, *macaddr++);
 101:c:\code\arm\armlib/net\ax88796.c **** 	ax88796Write(PAR5, *macaddr++);
 102:c:\code\arm\armlib/net\ax88796.c **** 	// switch register pages back
 103:c:\code\arm\armlib/net\ax88796.c **** 	ax88796Write(CR,tempCR);
 104:c:\code\arm\armlib/net\ax88796.c **** }
 105:c:\code\arm\armlib/net\ax88796.c **** 
 106:c:\code\arm\armlib/net\ax88796.c **** void nicRegDump(void)
 107:c:\code\arm\armlib/net\ax88796.c **** {
 108:c:\code\arm\armlib/net\ax88796.c **** 	ax88796RegDump();
 109:c:\code\arm\armlib/net\ax88796.c **** }
 110:c:\code\arm\armlib/net\ax88796.c **** 
 111:c:\code\arm\armlib/net\ax88796.c **** 
 112:c:\code\arm\armlib/net\ax88796.c **** void ax88796SetupPorts(void)
 113:c:\code\arm\armlib/net\ax88796.c **** {
  16              	@ args = 0, pretend = 0, frame = 0
  17              		@ frame_needed = 0, uses_anonymous_args = 0
  18              		@ link register save eliminated.
  19              		@ lr needed for prologue
  20              		.loc 1 138 0
 114:c:\code\arm\armlib/net\ax88796.c **** #if NIC_CONNECTION == MEMORY_MAPPED
 115:c:\code\arm\armlib/net\ax88796.c **** 	// enable external SRAM interface - no wait states
 116:c:\code\arm\armlib/net\ax88796.c **** //	sbi(MCUCR, SRE);
 117:c:\code\arm\armlib/net\ax88796.c **** //	sbi(MCUCR, SRW10);
 118:c:\code\arm\armlib/net\ax88796.c **** //	sbi(XMCRA, SRW00);
 119:c:\code\arm\armlib/net\ax88796.c **** //	sbi(XMCRA, SRW01);
 120:c:\code\arm\armlib/net\ax88796.c **** //	sbi(XMCRA, SRW11);
 121:c:\code\arm\armlib/net\ax88796.c **** #else
 122:c:\code\arm\armlib/net\ax88796.c **** 	// set address port to output
 123:c:\code\arm\armlib/net\ax88796.c **** 	AX88796_ADDRESS_DDR = AX88796_ADDRESS_MASK;
 124:c:\code\arm\armlib/net\ax88796.c ****     
 125:c:\code\arm\armlib/net\ax88796.c **** 	// set data port to input with pull-ups
 126:c:\code\arm\armlib/net\ax88796.c **** 	AX88796_DATA_DDR = 0x00;
 127:c:\code\arm\armlib/net\ax88796.c **** 	AX88796_DATA_PORT = 0xFF;
 128:c:\code\arm\armlib/net\ax88796.c **** 
 129:c:\code\arm\armlib/net\ax88796.c **** 	// initialize the control port read and write pins to de-asserted
 130:c:\code\arm\armlib/net\ax88796.c **** 	sbi( AX88796_CONTROL_PORT, AX88796_CONTROL_READPIN );
 131:c:\code\arm\armlib/net\ax88796.c **** 	sbi( AX88796_CONTROL_PORT, AX88796_CONTROL_WRITEPIN );
 132:c:\code\arm\armlib/net\ax88796.c **** 	// set the read and write pins to output
 133:c:\code\arm\armlib/net\ax88796.c **** 	sbi( AX88796_CONTROL_DDR, AX88796_CONTROL_READPIN );
 134:c:\code\arm\armlib/net\ax88796.c **** 	sbi( AX88796_CONTROL_DDR, AX88796_CONTROL_WRITEPIN );
 135:c:\code\arm\armlib/net\ax88796.c **** #endif
 136:c:\code\arm\armlib/net\ax88796.c **** 	// set reset pin to output
 137:c:\code\arm\armlib/net\ax88796.c **** //	sbi( AX88796_RESET_DDR, AX88796_RESET_PIN );
 138:c:\code\arm\armlib/net\ax88796.c **** }
  21              	r
  22 0000 1EFF2FE1 	.LFE8:
  23              		.size	ax88796SetupPorts, .-ax88796SetupPorts
  24              		.align	2
  25              		.global	ax88796Write
  26              		.type	ax88796Write, %function
  27              	ax88796Write:
  28              	.LFB9:
  29              		.loc 1 143 0
ARM GAS  C:\DOCUME~1\pstang\LOCALS~1\Temp/cc80aaaa.s 			page 4


 139:c:\code\arm\armlib/net\ax88796.c **** 
 140:c:\code\arm\armlib/net\ax88796.c **** 
 141:c:\code\arm\armlib/net\ax88796.c **** #if NIC_CONNECTION == MEMORY_MAPPED
 142:c:\code\arm\armlib/net\ax88796.c **** inline void ax88796Write(u08 address, u08 data)
 143:c:\code\arm\armlib/net\ax88796.c **** {
  30              	 0, pretend = 0, frame = 0
  31              		@ frame_needed = 0, uses_anonymous_args = 0
  32              		@ link register save eliminated.
  33              	.LVL0:
  34              		@ lr needed for prologue
  35              		and	r0, r0, #255
  36 0004 FF0000E2 		and	r1, r1, #255
  37 0008 FF1001E2 		.loc 1 144 0
 144:c:\code\arm\armlib/net\ax88796.c **** 	*(volatile u08*)(AX88796_MEMORY_MAPPED_OFFSET + address) = data;
  38              	 #-2147483648
  39 000c 0231A0E3 		add	r3, r3, #512
  40 0010 023C83E2 		strb	r1, [r0, r3]
  41 0014 0310C0E7 		.loc 1 145 0
 145:c:\code\arm\armlib/net\ax88796.c **** }
  42              	lr
  43 0018 1EFF2FE1 	.LFE9:
  44              		.size	ax88796Write, .-ax88796Write
  45              		.align	2
  46              		.global	ax88796Read
  47              		.type	ax88796Read, %function
  48              	ax88796Read:
  49              	.LFB10:
  50              		.loc 1 171 0
 146:c:\code\arm\armlib/net\ax88796.c **** #else
 147:c:\code\arm\armlib/net\ax88796.c **** void ax88796Write(u08 address, u08 data)
 148:c:\code\arm\armlib/net\ax88796.c **** {
 149:c:\code\arm\armlib/net\ax88796.c **** 	// assert the address
 150:c:\code\arm\armlib/net\ax88796.c ****     AX88796_ADDRESS_PORT = address | (AX88796_ADDRESS_PORT&~AX88796_ADDRESS_MASK);
 151:c:\code\arm\armlib/net\ax88796.c **** 
 152:c:\code\arm\armlib/net\ax88796.c **** 	// set data bus as output and place data on bus
 153:c:\code\arm\armlib/net\ax88796.c **** 	AX88796_DATA_DDR = 0xFF;
 154:c:\code\arm\armlib/net\ax88796.c **** 	AX88796_DATA_PORT = data;
 155:c:\code\arm\armlib/net\ax88796.c ****     
 156:c:\code\arm\armlib/net\ax88796.c **** 	// clock write pin
 157:c:\code\arm\armlib/net\ax88796.c **** 	cbi(AX88796_CONTROL_PORT, AX88796_CONTROL_WRITEPIN);
 158:c:\code\arm\armlib/net\ax88796.c **** 	nop();
 159:c:\code\arm\armlib/net\ax88796.c **** 	nop();
 160:c:\code\arm\armlib/net\ax88796.c **** 	sbi(AX88796_CONTROL_PORT, AX88796_CONTROL_WRITEPIN);
 161:c:\code\arm\armlib/net\ax88796.c ****     
 162:c:\code\arm\armlib/net\ax88796.c **** 	// set data bus back to input with pullups enabled
 163:c:\code\arm\armlib/net\ax88796.c **** 	AX88796_DATA_DDR = 0x00;
 164:c:\code\arm\armlib/net\ax88796.c **** 	AX88796_DATA_PORT = 0xFF;
 165:c:\code\arm\armlib/net\ax88796.c **** }
 166:c:\code\arm\armlib/net\ax88796.c **** #endif
 167:c:\code\arm\armlib/net\ax88796.c **** 
 168:c:\code\arm\armlib/net\ax88796.c **** 
 169:c:\code\arm\armlib/net\ax88796.c **** #if NIC_CONNECTION == MEMORY_MAPPED
 170:c:\code\arm\armlib/net\ax88796.c **** inline u08 ax88796Read(u08 address)
 171:c:\code\arm\armlib/net\ax88796.c **** {
  51              	 0, pretend = 0, frame = 0
  52              		@ frame_needed = 0, uses_anonymous_args = 0
  53              		@ link register save eliminated.
ARM GAS  C:\DOCUME~1\pstang\LOCALS~1\Temp/cc80aaaa.s 			page 5


  54              	.LVL1:
  55              		@ lr needed for prologue
  56              		and	r0, r0, #255
  57 001c FF0000E2 		.loc 1 172 0
 172:c:\code\arm\armlib/net\ax88796.c **** 	return *(volatile u08*)(AX88796_MEMORY_MAPPED_OFFSET + address);
  58              	, #-2147483648
  59 0020 0231A0E3 		add	r3, r3, #512
  60 0024 023C83E2 		ldrb	r0, [r0, r3]	@ zero_extendqisi2
  61 0028 0300D0E7 	.LVL2:
  62              		.loc 1 173 0
 173:c:\code\arm\armlib/net\ax88796.c **** }
  63              	r
  64 002c 1EFF2FE1 	.LFE10:
  65              		.size	ax88796Read, .-ax88796Read
  66              		.align	2
  67              		.global	ax88796BeginPacketSend
  68              		.type	ax88796BeginPacketSend, %function
  69              	ax88796BeginPacketSend:
  70              	.LFB12:
  71              		.loc 1 283 0
 174:c:\code\arm\armlib/net\ax88796.c **** #else
 175:c:\code\arm\armlib/net\ax88796.c **** u08 ax88796Read(u08 address)
 176:c:\code\arm\armlib/net\ax88796.c **** {
 177:c:\code\arm\armlib/net\ax88796.c **** 	u08 data;
 178:c:\code\arm\armlib/net\ax88796.c ****    
 179:c:\code\arm\armlib/net\ax88796.c **** 	// assert the address
 180:c:\code\arm\armlib/net\ax88796.c ****     AX88796_ADDRESS_PORT = address | (AX88796_ADDRESS_PORT&~AX88796_ADDRESS_MASK);
 181:c:\code\arm\armlib/net\ax88796.c **** 
 182:c:\code\arm\armlib/net\ax88796.c **** 	// assert read
 183:c:\code\arm\armlib/net\ax88796.c **** 	cbi(AX88796_CONTROL_PORT, AX88796_CONTROL_READPIN);
 184:c:\code\arm\armlib/net\ax88796.c **** 	nop();
 185:c:\code\arm\armlib/net\ax88796.c **** 	nop();
 186:c:\code\arm\armlib/net\ax88796.c **** 	// read in the data
 187:c:\code\arm\armlib/net\ax88796.c **** 	data = AX88796_DATA_PIN;
 188:c:\code\arm\armlib/net\ax88796.c **** 
 189:c:\code\arm\armlib/net\ax88796.c **** 	// negate read
 190:c:\code\arm\armlib/net\ax88796.c **** 	sbi(AX88796_CONTROL_PORT, AX88796_CONTROL_READPIN);
 191:c:\code\arm\armlib/net\ax88796.c **** 
 192:c:\code\arm\armlib/net\ax88796.c **** 	return data;
 193:c:\code\arm\armlib/net\ax88796.c **** }
 194:c:\code\arm\armlib/net\ax88796.c **** #endif                       
 195:c:\code\arm\armlib/net\ax88796.c **** 
 196:c:\code\arm\armlib/net\ax88796.c **** 
 197:c:\code\arm\armlib/net\ax88796.c **** void ax88796Init(void)
 198:c:\code\arm\armlib/net\ax88796.c **** {
 199:c:\code\arm\armlib/net\ax88796.c **** 	unsigned char tcrFduFlag;
 200:c:\code\arm\armlib/net\ax88796.c **** 	
 201:c:\code\arm\armlib/net\ax88796.c **** 	// initialize I/O ports
 202:c:\code\arm\armlib/net\ax88796.c **** 	ax88796SetupPorts();
 203:c:\code\arm\armlib/net\ax88796.c **** 
 204:c:\code\arm\armlib/net\ax88796.c **** 	// do a hard reset
 205:c:\code\arm\armlib/net\ax88796.c **** //	sbi(AX88796_RESET_PORT, AX88796_RESET_PIN);
 206:c:\code\arm\armlib/net\ax88796.c **** //	delay_ms(100);
 207:c:\code\arm\armlib/net\ax88796.c **** //	cbi(AX88796_RESET_PORT, AX88796_RESET_PIN);
 208:c:\code\arm\armlib/net\ax88796.c **** 
 209:c:\code\arm\armlib/net\ax88796.c **** 	// do soft reset
 210:c:\code\arm\armlib/net\ax88796.c **** 	ax88796Write(ISR, ax88796Read(ISR));
ARM GAS  C:\DOCUME~1\pstang\LOCALS~1\Temp/cc80aaaa.s 			page 6


 211:c:\code\arm\armlib/net\ax88796.c **** 	delay_ms(50);
 212:c:\code\arm\armlib/net\ax88796.c **** 
 213:c:\code\arm\armlib/net\ax88796.c **** 	// wait for PHY to come out of reset
 214:c:\code\arm\armlib/net\ax88796.c **** 	ax88796Read(RSTPORT);
 215:c:\code\arm\armlib/net\ax88796.c **** 	while(ax88796Read(TR) & RST_B);
 216:c:\code\arm\armlib/net\ax88796.c ****   
 217:c:\code\arm\armlib/net\ax88796.c **** 	// if the phy has not completed autonegotiation,
 218:c:\code\arm\armlib/net\ax88796.c **** 	// power it down, wait 2.5sec, and then re-enable autonegotioation
 219:c:\code\arm\armlib/net\ax88796.c **** 	if(!(ax88796Read(TR) & AUTOD))
 220:c:\code\arm\armlib/net\ax88796.c **** 	{
 221:c:\code\arm\armlib/net\ax88796.c **** 	ax88796WriteMii(0x10,0x00,0x0800);
 222:c:\code\arm\armlib/net\ax88796.c **** 		delay_ms(2500);
 223:c:\code\arm\armlib/net\ax88796.c **** 	ax88796WriteMii(0x10,0x00,0x1200);
 224:c:\code\arm\armlib/net\ax88796.c **** 	}
 225:c:\code\arm\armlib/net\ax88796.c **** 
 226:c:\code\arm\armlib/net\ax88796.c **** 	ax88796Write(CR,(RD2|STOP));		// stop the NIC, abort DMA, page 0
 227:c:\code\arm\armlib/net\ax88796.c **** 	delay_ms(5);						// make sure nothing is coming in or going out
 228:c:\code\arm\armlib/net\ax88796.c **** 	ax88796Write(DCR,DCR_INIT);    
 229:c:\code\arm\armlib/net\ax88796.c **** 	ax88796Write(RBCR0,0x00);
 230:c:\code\arm\armlib/net\ax88796.c **** 	ax88796Write(RBCR1,0x00);
 231:c:\code\arm\armlib/net\ax88796.c **** 	ax88796Write(IMR,0x00);
 232:c:\code\arm\armlib/net\ax88796.c **** 	ax88796Write(ISR,0xFF);
 233:c:\code\arm\armlib/net\ax88796.c **** 	ax88796Write(RCR,0x20);
 234:c:\code\arm\armlib/net\ax88796.c **** 	ax88796Write(BNRY,RXSTART_INIT);
 235:c:\code\arm\armlib/net\ax88796.c **** 	ax88796Write(PSTART,RXSTART_INIT);
 236:c:\code\arm\armlib/net\ax88796.c **** 	ax88796Write(PSTOP,RXSTOP_INIT);
 237:c:\code\arm\armlib/net\ax88796.c **** 	
 238:c:\code\arm\armlib/net\ax88796.c **** 	// switch to page 1
 239:c:\code\arm\armlib/net\ax88796.c **** 	ax88796Write(CR,(PS0|RD2|STOP));
 240:c:\code\arm\armlib/net\ax88796.c **** 	// write mac address
 241:c:\code\arm\armlib/net\ax88796.c **** 	ax88796Write(PAR0, AX88796_MAC0);
 242:c:\code\arm\armlib/net\ax88796.c **** 	ax88796Write(PAR1, AX88796_MAC1);
 243:c:\code\arm\armlib/net\ax88796.c **** 	ax88796Write(PAR2, AX88796_MAC2);
 244:c:\code\arm\armlib/net\ax88796.c **** 	ax88796Write(PAR3, AX88796_MAC3);
 245:c:\code\arm\armlib/net\ax88796.c **** 	ax88796Write(PAR4, AX88796_MAC4);
 246:c:\code\arm\armlib/net\ax88796.c **** 	ax88796Write(PAR5, AX88796_MAC5);
 247:c:\code\arm\armlib/net\ax88796.c **** 	// set start point
 248:c:\code\arm\armlib/net\ax88796.c **** 	ax88796Write(CURR,RXSTART_INIT+1);
 249:c:\code\arm\armlib/net\ax88796.c **** 
 250:c:\code\arm\armlib/net\ax88796.c **** 	ax88796Write(CR,(RD2|START));
 251:c:\code\arm\armlib/net\ax88796.c **** 	ax88796Write(RCR,RCR_INIT);
 252:c:\code\arm\armlib/net\ax88796.c **** 
 253:c:\code\arm\armlib/net\ax88796.c **** 	if(ax88796Read(GPI) & I_SPD)		// check PHY speed setting
 254:c:\code\arm\armlib/net\ax88796.c **** 		tcrFduFlag = FDU;				// if 100base, do full duplex
 255:c:\code\arm\armlib/net\ax88796.c **** 	else
 256:c:\code\arm\armlib/net\ax88796.c **** 		tcrFduFlag = 0;					// if 10base, do half duplex
 257:c:\code\arm\armlib/net\ax88796.c **** 		
 258:c:\code\arm\armlib/net\ax88796.c **** 	ax88796Write(TCR,(tcrFduFlag|TCR_INIT));
 259:c:\code\arm\armlib/net\ax88796.c **** 
 260:c:\code\arm\armlib/net\ax88796.c **** 	ax88796Write(GPOC,MPSEL);			// select media interface
 261:c:\code\arm\armlib/net\ax88796.c ****   
 262:c:\code\arm\armlib/net\ax88796.c **** 	ax88796Write(TPSR,TXSTART_INIT);
 263:c:\code\arm\armlib/net\ax88796.c **** 
 264:c:\code\arm\armlib/net\ax88796.c **** 	ax88796Write(CR,(RD2|STOP));
 265:c:\code\arm\armlib/net\ax88796.c **** 	ax88796Write(DCR,DCR_INIT);
 266:c:\code\arm\armlib/net\ax88796.c **** 	ax88796Write(CR,(RD2|START));
 267:c:\code\arm\armlib/net\ax88796.c **** 	ax88796Write(ISR,0xFF);
ARM GAS  C:\DOCUME~1\pstang\LOCALS~1\Temp/cc80aaaa.s 			page 7


 268:c:\code\arm\armlib/net\ax88796.c **** 	ax88796Write(IMR,IMR_INIT);
 269:c:\code\arm\armlib/net\ax88796.c **** 	ax88796Write(TCR,(tcrFduFlag|TCR_INIT));
 270:c:\code\arm\armlib/net\ax88796.c **** 
 271:c:\code\arm\armlib/net\ax88796.c **** 	//test
 272:c:\code\arm\armlib/net\ax88796.c **** /*
 273:c:\code\arm\armlib/net\ax88796.c **** 	while(1)
 274:c:\code\arm\armlib/net\ax88796.c **** 	{
 275:c:\code\arm\armlib/net\ax88796.c **** 		vt100SetCursorPos(18,0);
 276:c:\code\arm\armlib/net\ax88796.c **** 		ax88796RegDump();
 277:c:\code\arm\armlib/net\ax88796.c **** 	}
 278:c:\code\arm\armlib/net\ax88796.c **** */
 279:c:\code\arm\armlib/net\ax88796.c **** }
 280:c:\code\arm\armlib/net\ax88796.c **** 
 281:c:\code\arm\armlib/net\ax88796.c **** 
 282:c:\code\arm\armlib/net\ax88796.c **** void ax88796BeginPacketSend(unsigned int packetLength)
 283:c:\code\arm\armlib/net\ax88796.c **** {
  72              	 0, pretend = 0, frame = 0
  73              		@ frame_needed = 0, uses_anonymous_args = 0
  74              	.LVL3:
  75              		str	lr, [sp, #-4]!
  76 0030 04E02DE5 	.LCFI0:
  77              		.loc 1 285 0
 284:c:\code\arm\armlib/net\ax88796.c **** 	unsigned int sendPacketLength;
 285:c:\code\arm\armlib/net\ax88796.c **** 	sendPacketLength = (packetLength>=ETHERNET_MIN_PACKET_LENGTH)?
  78              	0, #60
  79 0034 3C0050E3 		movcs	lr, r0
  80 0038 00E0A021 		movcc	lr, #60
  81 003c 3CE0A033 	.LVL4:
  82              	.LBB476:
  83              	.LBB477:
  84              		.loc 1 144 0
  85              		mov	r3, #34
  86 0040 2230A0E3 		mov	r2, #-2147483648
  87 0044 0221A0E3 		add	r2, r2, #512
  88 0048 022C82E2 		strb	r3, [r2, #0]
  89 004c 0030C2E5 		mov	ip, #-2147483648
  90 0050 02C1A0E3 		add	r1, ip, #512
  91 0054 021C8CE2 	.L8:
  92              	.LBE477:
  93              	.LBE476:
  94              	.LBB478:
  95              	.LBB479:
  96              		.loc 1 172 0
  97              		ldrb	r3, [r1, #0]	@ zero_extendqisi2
  98 0058 0030D1E5 	.LBE479:
  99              	.LBE478:
 100              		.loc 1 292 0
 286:c:\code\arm\armlib/net\ax88796.c **** 						(packetLength):(ETHERNET_MIN_PACKET_LENGTH);
 287:c:\code\arm\armlib/net\ax88796.c **** 	
 288:c:\code\arm\armlib/net\ax88796.c **** 	//start the NIC
 289:c:\code\arm\armlib/net\ax88796.c **** 	ax88796Write(CR,(RD2|START));
 290:c:\code\arm\armlib/net\ax88796.c **** 	
 291:c:\code\arm\armlib/net\ax88796.c **** 	// still transmitting a packet - wait for it to finish
 292:c:\code\arm\armlib/net\ax88796.c **** 	while( ax88796Read(CR) & TXP );
 101              	L8
 102 005c 042013E2 	.LBB480:
 103 0060 FCFFFF1A 	.LBB481:
ARM GAS  C:\DOCUME~1\pstang\LOCALS~1\Temp/cc80aaaa.s 			page 8


 104              		.loc 1 144 0
 105              		mov	r3, #64
 106              		strb	r3, [r1, #4]
 107 0064 4030A0E3 	.LBE481:
 108 0068 0430C1E5 	.LBE480:
 109              	.LBB482:
 110              	.LBB483:
 111              		strb	r2, [r1, #8]
 112              	.LBE483:
 113 006c 0820C1E5 	.LBE482:
 114              	.LBB484:
 115              	.LBB485:
 116              		strb	r3, [ip, #521]
 117              	.LBE485:
 118 0070 0932CCE5 	.LBE484:
 119              	.LBB486:
 120              	.LBB487:
 121              		sub	r3, r3, #62
 122              		strb	r3, [ip, #519]
 123 0074 3E3043E2 		and	r3, r0, #255
 124 0078 0732CCE5 	.LBE487:
 125 007c FF3000E2 	.LBE486:
 126              	.LBB488:
 127              	.LBB489:
 128              		strb	r3, [ip, #522]
 129              		mov	r3, r0, lsr #8
 130 0080 0A32CCE5 		and	r3, r3, #255
 131 0084 2034A0E1 	.LBE489:
 132 0088 FF3003E2 	.LBE488:
 133              	.LBB490:
 134              	.LBB491:
 135              		strb	r3, [ip, #523]
 136              		and	r3, lr, #255
 137 008c 0B32CCE5 	.LBE491:
 138 0090 FF300EE2 	.LBE490:
 139              	.LBB492:
 140              	.LBB493:
 141              		strb	r3, [ip, #517]
 142              		mov	r3, lr, lsr #8
 143 0094 0532CCE5 		and	r3, r3, #255
 144 0098 2E34A0E1 	.LBE493:
 145 009c FF3003E2 	.LBE492:
 146              	.LBB494:
 147              	.LBB495:
 148              		strb	r3, [ip, #518]
 149              	.LBE495:
 150 00a0 0632CCE5 	.LBE494:
 151              	.LBB496:
 152              	.LBB497:
 153              		mov	r3, #18
 154              		strb	r3, [r1, #0]
 155 00a4 1230A0E3 	.LBE497:
 156 00a8 0030C1E5 	.LBE496:
 157              		.loc 1 313 0
 158              		ldr	pc, [sp], #4
 293:c:\code\arm\armlib/net\ax88796.c **** 
 294:c:\code\arm\armlib/net\ax88796.c **** 	//load beginning page for transmit buffer
ARM GAS  C:\DOCUME~1\pstang\LOCALS~1\Temp/cc80aaaa.s 			page 9


 295:c:\code\arm\armlib/net\ax88796.c **** 	ax88796Write(TPSR,TXSTART_INIT);
 296:c:\code\arm\armlib/net\ax88796.c **** 	
 297:c:\code\arm\armlib/net\ax88796.c **** 	//set start address for remote DMA operation
 298:c:\code\arm\armlib/net\ax88796.c **** 	ax88796Write(RSAR0,0x00);
 299:c:\code\arm\armlib/net\ax88796.c **** 	ax88796Write(RSAR1,0x40);
 300:c:\code\arm\armlib/net\ax88796.c **** 	
 301:c:\code\arm\armlib/net\ax88796.c **** 	//clear the packet stored interrupt
 302:c:\code\arm\armlib/net\ax88796.c **** 	ax88796Write(ISR, PTX);
 303:c:\code\arm\armlib/net\ax88796.c **** 
 304:c:\code\arm\armlib/net\ax88796.c **** 	//load data byte count for remote DMA
 305:c:\code\arm\armlib/net\ax88796.c **** 	ax88796Write(RBCR0, packetLength);
 306:c:\code\arm\armlib/net\ax88796.c **** 	ax88796Write(RBCR1, packetLength>>8);
 307:c:\code\arm\armlib/net\ax88796.c **** 
 308:c:\code\arm\armlib/net\ax88796.c **** 	ax88796Write(TBCR0, sendPacketLength);
 309:c:\code\arm\armlib/net\ax88796.c **** 	ax88796Write(TBCR1, sendPacketLength>>8);
 310:c:\code\arm\armlib/net\ax88796.c **** 	
 311:c:\code\arm\armlib/net\ax88796.c **** 	//do remote write operation
 312:c:\code\arm\armlib/net\ax88796.c **** 	ax88796Write(CR,(RD1|START));
 313:c:\code\arm\armlib/net\ax88796.c **** }
 159              	tSend
 160 00ac 04F09DE4 		.align	2
 161              		.global	ax88796SendPacketData
 162              		.type	ax88796SendPacketData, %function
 163              	ax88796SendPacketData:
 164              	.LFB13:
 165              		.loc 1 317 0
 166              		@ args = 0, pretend = 0, frame = 0
 167              		@ frame_needed = 0, uses_anonymous_args = 0
 314:c:\code\arm\armlib/net\ax88796.c **** 
 315:c:\code\arm\armlib/net\ax88796.c **** 
 316:c:\code\arm\armlib/net\ax88796.c **** void ax88796SendPacketData(unsigned char *localBuffer, unsigned int length)
 317:c:\code\arm\armlib/net\ax88796.c **** {
 168              	egister save eliminated.
 169              	.LVL5:
 170              		@ lr needed for prologue
 171              		.loc 1 320 0
 172              		cmp	r1, #0
 173              		bxeq	lr
 318:c:\code\arm\armlib/net\ax88796.c **** 	unsigned int i;
 319:c:\code\arm\armlib/net\ax88796.c **** 	
 320:c:\code\arm\armlib/net\ax88796.c **** 	for(i=0;i<length;i++)
 174              	2, #0
 175 00b0 000051E3 	.LVL6:
 176 00b4 1EFF2F01 		mov	r3, #-2147483648
 177 00b8 0020A0E3 		add	ip, r3, #512
 178              	.L16:
 179 00bc 0231A0E3 		.loc 1 321 0
 180 00c0 02CC83E2 		ldrb	r3, [r0, r2]	@ zero_extendqisi2
 181              	.LVL7:
 321:c:\code\arm\armlib/net\ax88796.c **** 		ax88796Write(RDMAPORT, localBuffer[i]);
 182              	
 183 00c4 0230D0E7 	.LBB499:
 184              		.loc 1 144 0
 185              		strb	r3, [ip, #16]
 186              	.LBE499:
 187              	.LBE498:
 188 00c8 1030CCE5 		.loc 1 320 0
ARM GAS  C:\DOCUME~1\pstang\LOCALS~1\Temp/cc80aaaa.s 			page 10


 189              		add	r2, r2, #1
 190              		cmp	r1, r2
 191              		bne	.L16
 192 00cc 012082E2 		bx	lr
 193 00d0 020051E1 	.LFE13:
 194 00d4 FAFFFF1A 		.size	ax88796SendPacketData, .-ax88796SendPacketData
 195 00d8 1EFF2FE1 		.align	2
 196              		.global	ax88796EndPacketSend
 197              		.type	ax88796EndPacketSend, %function
 198              	ax88796EndPacketSend:
 199              	.LFB14:
 200              		.loc 1 326 0
 201              		@ args = 0, pretend = 0, frame = 0
 202              		@ frame_needed = 0, uses_anonymous_args = 0
 322:c:\code\arm\armlib/net\ax88796.c **** }
 323:c:\code\arm\armlib/net\ax88796.c **** 
 324:c:\code\arm\armlib/net\ax88796.c **** 
 325:c:\code\arm\armlib/net\ax88796.c **** void ax88796EndPacketSend(void)
 326:c:\code\arm\armlib/net\ax88796.c **** {
 203              	e eliminated.
 204              		@ lr needed for prologue
 205              	.LBB500:
 206              	.LBB501:
 207              		.loc 1 144 0
 208              		mov	r1, #-2147483648
 209              		add	r2, r1, #512
 210              		mov	r3, #36
 211 00dc 0211A0E3 		strb	r3, [r2, #0]
 212 00e0 022C81E2 	.LBE501:
 213 00e4 2430A0E3 	.LBE500:
 214 00e8 0030C2E5 	.LBB502:
 215              	.LBB503:
 216              		add	r3, r3, #28
 217              		strb	r3, [r1, #519]
 218              	.LBE503:
 219 00ec 1C3083E2 	.LBE502:
 220 00f0 0732C1E5 		.loc 1 332 0
 221              		bx	lr
 222              	.LFE14:
 327:c:\code\arm\armlib/net\ax88796.c **** 	//send the contents of the transmit buffer onto the network
 328:c:\code\arm\armlib/net\ax88796.c **** 	ax88796Write(CR,(RD2|TXP));
 329:c:\code\arm\armlib/net\ax88796.c **** 	
 330:c:\code\arm\armlib/net\ax88796.c **** 	// clear the remote DMA interrupt
 331:c:\code\arm\armlib/net\ax88796.c **** 	ax88796Write(ISR, RDC);
 332:c:\code\arm\armlib/net\ax88796.c **** }
 223              	ketSend, .-ax88796EndPacketSend
 224 00f4 1EFF2FE1 		.align	2
 225              		.global	nicSend
 226              		.type	nicSend, %function
 227              	nicSend:
 228              	.LFB3:
 229              		.loc 1 42 0
 230              		@ args = 0, pretend = 0, frame = 0
 231              		@ frame_needed = 0, uses_anonymous_args = 0
 232              	.LVL8:
 233              		stmfd	sp!, {r4, r5, lr}
 234              	.LCFI1:
ARM GAS  C:\DOCUME~1\pstang\LOCALS~1\Temp/cc80aaaa.s 			page 11


 235              		mov	r5, r0
 236 00f8 30402DE9 		mov	r4, r1
 237              		.loc 1 43 0
 238 00fc 0050A0E1 		bl	ax88796BeginPacketSend
 239 0100 0140A0E1 	.LVL9:
 240              		.loc 1 44 0
 241 0104 FEFFFFEB 		mov	r0, r4
 242              		mov	r1, r5
 243              		bl	ax88796SendPacketData
 244 0108 0400A0E1 		.loc 1 45 0
 245 010c 0510A0E1 		bl	ax88796EndPacketSend
 246 0110 FEFFFFEB 		.loc 1 46 0
 247              		ldmfd	sp!, {r4, r5, pc}
 248 0114 FEFFFFEB 	.LFE3:
 249              		.size	nicSend, .-nicSend
 250 0118 3080BDE8 		.align	2
 251              		.global	ax88796RetreivePacketData
 252              		.type	ax88796RetreivePacketData, %function
 253              	ax88796RetreivePacketData:
 254              	.LFB16:
 255              		.loc 1 415 0
 256              		@ args = 0, pretend = 0, frame = 0
 257              		@ frame_needed = 0, uses_anonymous_args = 0
 333:c:\code\arm\armlib/net\ax88796.c **** 
 334:c:\code\arm\armlib/net\ax88796.c **** 
 335:c:\code\arm\armlib/net\ax88796.c **** unsigned int ax88796BeginPacketRetreive(void)
 336:c:\code\arm\armlib/net\ax88796.c **** {
 337:c:\code\arm\armlib/net\ax88796.c **** 	unsigned char writePagePtr;
 338:c:\code\arm\armlib/net\ax88796.c **** 	unsigned char readPagePtr;
 339:c:\code\arm\armlib/net\ax88796.c **** 	unsigned char bnryPagePtr;
 340:c:\code\arm\armlib/net\ax88796.c **** 	unsigned char i;
 341:c:\code\arm\armlib/net\ax88796.c **** 	
 342:c:\code\arm\armlib/net\ax88796.c **** 	unsigned char pageheader[4];
 343:c:\code\arm\armlib/net\ax88796.c **** 	unsigned int rxlen;
 344:c:\code\arm\armlib/net\ax88796.c **** 	
 345:c:\code\arm\armlib/net\ax88796.c **** 	// check for and handle an overflow
 346:c:\code\arm\armlib/net\ax88796.c **** 	ax88796ProcessInterrupt();
 347:c:\code\arm\armlib/net\ax88796.c **** 	
 348:c:\code\arm\armlib/net\ax88796.c **** 	// read CURR from page 1
 349:c:\code\arm\armlib/net\ax88796.c **** 	ax88796Write(CR,(PS0|RD2|START));
 350:c:\code\arm\armlib/net\ax88796.c **** 	writePagePtr = ax88796Read(CURR);
 351:c:\code\arm\armlib/net\ax88796.c **** 	// read the boundary register from page 0
 352:c:\code\arm\armlib/net\ax88796.c **** 	ax88796Write(CR,(RD2|START));
 353:c:\code\arm\armlib/net\ax88796.c **** 	bnryPagePtr = ax88796Read(BNRY);
 354:c:\code\arm\armlib/net\ax88796.c **** 
 355:c:\code\arm\armlib/net\ax88796.c **** 	// first packet is at page bnryPtr+1
 356:c:\code\arm\armlib/net\ax88796.c **** 	readPagePtr = bnryPagePtr+1;
 357:c:\code\arm\armlib/net\ax88796.c **** 	if(readPagePtr >= RXSTOP_INIT) readPagePtr = RXSTART_INIT;
 358:c:\code\arm\armlib/net\ax88796.c **** 	
 359:c:\code\arm\armlib/net\ax88796.c **** 	// return if there is no packet in the buffer
 360:c:\code\arm\armlib/net\ax88796.c **** 	if( readPagePtr == writePagePtr )
 361:c:\code\arm\armlib/net\ax88796.c **** 	{
 362:c:\code\arm\armlib/net\ax88796.c **** 		return 0;
 363:c:\code\arm\armlib/net\ax88796.c **** 	}
 364:c:\code\arm\armlib/net\ax88796.c **** 	
 365:c:\code\arm\armlib/net\ax88796.c **** 	// clear the packet received interrupt flag
 366:c:\code\arm\armlib/net\ax88796.c **** 	ax88796Write(ISR, PRX);
ARM GAS  C:\DOCUME~1\pstang\LOCALS~1\Temp/cc80aaaa.s 			page 12


 367:c:\code\arm\armlib/net\ax88796.c **** 	
 368:c:\code\arm\armlib/net\ax88796.c **** 	// if the boundary pointer is invalid,
 369:c:\code\arm\armlib/net\ax88796.c **** 	// reset the contents of the buffer and exit
 370:c:\code\arm\armlib/net\ax88796.c **** 	if( (bnryPagePtr < RXSTART_INIT) || (bnryPagePtr >= RXSTOP_INIT) )
 371:c:\code\arm\armlib/net\ax88796.c **** 	{
 372:c:\code\arm\armlib/net\ax88796.c **** 		ax88796Write(BNRY, RXSTART_INIT);
 373:c:\code\arm\armlib/net\ax88796.c **** 		ax88796Write(CR, (PS0|RD2|START));
 374:c:\code\arm\armlib/net\ax88796.c **** 		ax88796Write(CURR, RXSTART_INIT+1);
 375:c:\code\arm\armlib/net\ax88796.c **** 		ax88796Write(CR, (RD2|START));
 376:c:\code\arm\armlib/net\ax88796.c **** 		
 377:c:\code\arm\armlib/net\ax88796.c **** //		rprintf("B");
 378:c:\code\arm\armlib/net\ax88796.c **** 		return 0;
 379:c:\code\arm\armlib/net\ax88796.c **** 	}
 380:c:\code\arm\armlib/net\ax88796.c **** 
 381:c:\code\arm\armlib/net\ax88796.c **** 	// initiate DMA to transfer the RTL8019 packet header
 382:c:\code\arm\armlib/net\ax88796.c **** 	ax88796Write(RBCR0, 4);
 383:c:\code\arm\armlib/net\ax88796.c **** 	ax88796Write(RBCR1, 0);
 384:c:\code\arm\armlib/net\ax88796.c **** 	ax88796Write(RSAR0, 0);
 385:c:\code\arm\armlib/net\ax88796.c **** 	ax88796Write(RSAR1, readPagePtr);
 386:c:\code\arm\armlib/net\ax88796.c **** 	ax88796Write(CR, (RD0|START));
 387:c:\code\arm\armlib/net\ax88796.c **** 	for(i=0;i<4;i++)
 388:c:\code\arm\armlib/net\ax88796.c **** 		pageheader[i] = ax88796Read(RDMAPORT);
 389:c:\code\arm\armlib/net\ax88796.c **** 
 390:c:\code\arm\armlib/net\ax88796.c **** 	// end the DMA operation
 391:c:\code\arm\armlib/net\ax88796.c ****     ax88796Write(CR, (RD2|START));
 392:c:\code\arm\armlib/net\ax88796.c ****     for(i = 0; i <= 20; i++)
 393:c:\code\arm\armlib/net\ax88796.c ****         if(ax88796Read(ISR) & RDC)
 394:c:\code\arm\armlib/net\ax88796.c ****             break;
 395:c:\code\arm\armlib/net\ax88796.c ****     ax88796Write(ISR, RDC);
 396:c:\code\arm\armlib/net\ax88796.c **** 	
 397:c:\code\arm\armlib/net\ax88796.c **** 	rxlen = (pageheader[PKTHEADER_PKTLENH]<<8) + pageheader[PKTHEADER_PKTLENL];
 398:c:\code\arm\armlib/net\ax88796.c **** 	NextPage = pageheader[PKTHEADER_NEXTPAGE];
 399:c:\code\arm\armlib/net\ax88796.c **** 	
 400:c:\code\arm\armlib/net\ax88796.c **** 	CurrentRetreiveAddress = (readPagePtr<<8) + 4;
 401:c:\code\arm\armlib/net\ax88796.c **** 	
 402:c:\code\arm\armlib/net\ax88796.c **** 	// if the NextPage pointer is invalid, the packet is not ready yet - exit
 403:c:\code\arm\armlib/net\ax88796.c **** 	if( (NextPage >= RXSTOP_INIT) || (NextPage < RXSTART_INIT) )
 404:c:\code\arm\armlib/net\ax88796.c **** 	{
 405:c:\code\arm\armlib/net\ax88796.c **** //		rprintf("N");
 406:c:\code\arm\armlib/net\ax88796.c **** //		rprintfu08(nextPage);
 407:c:\code\arm\armlib/net\ax88796.c **** 		return 0;
 408:c:\code\arm\armlib/net\ax88796.c **** 	}
 409:c:\code\arm\armlib/net\ax88796.c **** 
 410:c:\code\arm\armlib/net\ax88796.c ****     return rxlen-4;
 411:c:\code\arm\armlib/net\ax88796.c **** }
 412:c:\code\arm\armlib/net\ax88796.c **** 
 413:c:\code\arm\armlib/net\ax88796.c **** 
 414:c:\code\arm\armlib/net\ax88796.c **** void ax88796RetreivePacketData(unsigned char * localBuffer, unsigned int length)
 415:c:\code\arm\armlib/net\ax88796.c **** {
 258              	
 259              		mov	ip, r1
 260              		.loc 1 415 0
 261              		and	r3, r1, #255
 262 011c 04E02DE5 	.LBB504:
 263              	.LBB505:
 264 0120 01C0A0E1 		.loc 1 144 0
 265              		mov	r2, #-2147483648
ARM GAS  C:\DOCUME~1\pstang\LOCALS~1\Temp/cc80aaaa.s 			page 13


 266 0124 FF3001E2 		add	r1, r2, #512
 267              	.LVL11:
 268              		strb	r3, [r2, #522]
 269              		mov	r3, ip, lsr #8
 270 0128 0221A0E3 		and	r3, r3, #255
 271 012c 021C82E2 	.LBE505:
 272              	.LBE504:
 273 0130 0A32C2E5 	.LBB506:
 274 0134 2C34A0E1 	.LBB507:
 275 0138 FF3003E2 		strb	r3, [r2, #523]
 276              	.LBE507:
 277              	.LBE506:
 278              		.loc 1 421 0
 279              		ldr	r3, .L35
 280 013c 0B32C2E5 		ldr	lr, [r3, #0]
 281              		and	r3, lr, #255
 282              	.LBB508:
 416:c:\code\arm\armlib/net\ax88796.c **** 	unsigned int i;
 417:c:\code\arm\armlib/net\ax88796.c **** 	
 418:c:\code\arm\armlib/net\ax88796.c **** 	// initiate DMA to transfer the data
 419:c:\code\arm\armlib/net\ax88796.c **** 	ax88796Write(RBCR0, (unsigned char)length);
 420:c:\code\arm\armlib/net\ax88796.c **** 	ax88796Write(RBCR1, (unsigned char)(length>>8));
 421:c:\code\arm\armlib/net\ax88796.c **** 	ax88796Write(RSAR0, (unsigned char)CurrentRetreiveAddress);
 283              	strb	r3, [r1, #8]
 284 0140 94309FE5 		mov	r3, lr, lsr #8
 285 0144 00E093E5 		and	r3, r3, #255
 286 0148 FF300EE2 	.LBE509:
 287              	.LBE508:
 288              	.LBB510:
 289              	.LBB511:
 290 014c 0830C1E5 		strb	r3, [r2, #521]
 291 0150 2E34A0E1 	.LBE511:
 292 0154 FF3003E2 	.LBE510:
 293              	.LBB512:
 294              	.LBB513:
 295              		mov	r3, #10
 296              		strb	r3, [r1, #0]
 297 0158 0932C2E5 	.LBE513:
 298              	.LBE512:
 299              		.loc 1 424 0
 300              		cmp	ip, #0
 301              		beq	.L24
 302 015c 0A30A0E3 	.LVL12:
 303 0160 0030C1E5 		add	r2, r2, #-2147483648
 304              	.L26:
 305              	.LBB514:
 422:c:\code\arm\armlib/net\ax88796.c **** 	ax88796Write(RSAR1, (unsigned char)(CurrentRetreiveAddress>>8));
 423:c:\code\arm\armlib/net\ax88796.c **** 	ax88796Write(CR, (RD0|START));
 424:c:\code\arm\armlib/net\ax88796.c **** 	for(i=0;i<length;i++)
 306              		ldrb	r3, [r1, #16]	@ zero_extendqisi2
 307 0164 00005CE3 	.LBE515:
 308 0168 0500000A 	.LBE514:
 309              		.loc 1 425 0
 310 016c 022182E2 		strb	r3, [r2, r0]
 311              		.loc 1 424 0
 312              		add	r2, r2, #1
 313              		cmp	ip, r2
ARM GAS  C:\DOCUME~1\pstang\LOCALS~1\Temp/cc80aaaa.s 			page 14


 314              		bne	.L26
 315 0170 1030D1E5 	.L24:
 316              	.LBB516:
 317              	.LBB517:
 425:c:\code\arm\armlib/net\ax88796.c **** 		localBuffer[i] = ax88796Read(RDMAPORT);
 318              	0
 319 0174 0030C2E7 		mov	r2, #34
 320              	.LVL13:
 321 0178 012082E2 		mov	r3, #-2147483648
 322 017c 02005CE1 		add	r3, r3, #512
 323 0180 FAFFFF1A 		strb	r2, [r3, #0]
 324              	.LVL14:
 325              		sub	r2, r2, #34
 326              		mov	r1, #-2147483648
 327              	.L27:
 328 0184 2220A0E3 	.LBE517:
 329              	.LBE516:
 330 0188 0231A0E3 	.LBB518:
 331 018c 023C83E2 	.LBB519:
 332 0190 0020C3E5 		.loc 1 172 0
 333              		ldrb	r3, [r1, #519]	@ zero_extendqisi2
 334 0194 222042E2 	.LBE519:
 335 0198 0211A0E3 	.LBE518:
 336              		.loc 1 430 0
 337              		tst	r3, #64
 338              		bne	.L28
 339              		.loc 1 429 0
 340              		add	r2, r2, #1
 341              		cmp	r2, #21
 342 019c 0732D1E5 		bne	.L27
 343              	.L28:
 344              	.LBB520:
 426:c:\code\arm\armlib/net\ax88796.c **** 
 427:c:\code\arm\armlib/net\ax88796.c **** 	// end the DMA operation
 428:c:\code\arm\armlib/net\ax88796.c **** 	ax88796Write(CR, (RD2|START));
 429:c:\code\arm\armlib/net\ax88796.c **** 	for(i = 0; i <= 20; i++)
 430:c:\code\arm\armlib/net\ax88796.c **** 		if(ax88796Read(ISR) & RDC)
 345              		r2, #64
 346 01a0 400013E3 	.LVL15:
 347 01a4 0200001A 		mov	r3, #-2147483648
 348              		strb	r2, [r3, #519]
 349 01a8 012082E2 	.LBE521:
 350 01ac 150052E3 	.LBE520:
 351 01b0 F9FFFF1A 		.loc 1 434 0
 352              		add	r1, ip, lr
 353              		ldr	r2, .L35
 354              		str	r1, [r2, #0]
 355              		.loc 1 435 0
 356 01b4 4020A0E3 		cmp	r1, #24576
 357              		.loc 1 436 0
 358 01b8 0231A0E3 		subcs	r3, r1, #6656
 359 01bc 0722C3E5 		strcs	r3, [r2, #0]
 360              		ldr	pc, [sp], #4
 361              	.L36:
 431:c:\code\arm\armlib/net\ax88796.c **** 			break;
 432:c:\code\arm\armlib/net\ax88796.c **** 	ax88796Write(ISR, RDC);
 433:c:\code\arm\armlib/net\ax88796.c ****     
ARM GAS  C:\DOCUME~1\pstang\LOCALS~1\Temp/cc80aaaa.s 			page 15


 434:c:\code\arm\armlib/net\ax88796.c **** 	CurrentRetreiveAddress += length;
 362              	.word	CurrentRetreiveAddress
 363 01c0 0E108CE0 	.LFE16:
 364 01c4 10209FE5 		.size	ax88796RetreivePacketData, .-ax88796RetreivePacketData
 365 01c8 001082E5 		.align	2
 435:c:\code\arm\armlib/net\ax88796.c **** 	if( CurrentRetreiveAddress >= 0x6000 )
 366              	obal	ax88796EndPacketRetreive
 367 01cc 060A51E3 		.type	ax88796EndPacketRetreive, %function
 436:c:\code\arm\armlib/net\ax88796.c ****     	CurrentRetreiveAddress -= (0x6000-0x4600) ;
 368              	88796EndPacketRetreive:
 369 01d0 1A3C4122 	.LFB17:
 370 01d4 00308225 		.loc 1 441 0
 371 01d8 04F09DE4 		@ args = 0, pretend = 0, frame = 0
 372              		@ frame_needed = 0, uses_anonymous_args = 0
 373              		@ link register save eliminated.
 374              		@ lr needed for prologue
 375 01dc 04000000 	.LBB522:
 376              	.LBB523:
 377              		.loc 1 144 0
 378              		mov	r2, #34
 379              		mov	r3, #-2147483648
 380              		add	r3, r3, #512
 381              		strb	r2, [r3, #0]
 382              	.LVL16:
 437:c:\code\arm\armlib/net\ax88796.c **** }
 438:c:\code\arm\armlib/net\ax88796.c **** 
 439:c:\code\arm\armlib/net\ax88796.c **** 
 440:c:\code\arm\armlib/net\ax88796.c **** void ax88796EndPacketRetreive(void)
 441:c:\code\arm\armlib/net\ax88796.c **** {
 383              	4
 384              		mov	r1, #-2147483648
 385              	.L38:
 386              	.LBE523:
 387              	.LBE522:
 388              	.LBB524:
 389              	.LBB525:
 390              		.loc 1 172 0
 391 01e0 2220A0E3 		ldrb	r3, [r1, #519]	@ zero_extendqisi2
 392 01e4 0231A0E3 	.LBE525:
 393 01e8 023C83E2 	.LBE524:
 394 01ec 0020C3E5 		.loc 1 448 0
 395              		tst	r3, #64
 396 01f0 222042E2 		bne	.L39
 397 01f4 0211A0E3 		.loc 1 447 0
 398              		add	r3, r2, #1
 399              		and	r2, r3, #255
 400              		cmp	r2, #21
 401              		bne	.L38
 402              	.L39:
 403              	.LBB526:
 404 01f8 0732D1E5 	.LBB527:
 405              		.loc 1 144 0
 406              		mov	r2, #64
 442:c:\code\arm\armlib/net\ax88796.c **** 	unsigned char i;
 443:c:\code\arm\armlib/net\ax88796.c **** 	unsigned char bnryPagePtr;
 444:c:\code\arm\armlib/net\ax88796.c **** 
 445:c:\code\arm\armlib/net\ax88796.c **** 	// end the DMA operation
ARM GAS  C:\DOCUME~1\pstang\LOCALS~1\Temp/cc80aaaa.s 			page 16


 446:c:\code\arm\armlib/net\ax88796.c ****     ax88796Write(CR, (RD2|START));
 447:c:\code\arm\armlib/net\ax88796.c ****     for(i = 0; i <= 20; i++)
 448:c:\code\arm\armlib/net\ax88796.c ****         if(ax88796Read(ISR) & RDC)
 407              	83648
 408 01fc 400013E3 		strb	r2, [r3, #519]
 409 0200 0300001A 	.LBE527:
 410              	.LBE526:
 411 0204 013082E2 		.loc 1 454 0
 412 0208 FF2003E2 		ldr	r3, .L45
 413 020c 150052E3 		ldrb	r3, [r3, #0]	@ zero_extendqisi2
 414 0210 F8FFFF1A 		sub	r3, r3, #1
 415              		and	r3, r3, #255
 416              	.LVL18:
 417              		.loc 1 455 0
 418              		cmp	r3, #69
 419 0214 4020A0E3 		movls	r3, #95
 420              	.LVL19:
 421 0218 0231A0E3 	.LBB528:
 422 021c 0722C3E5 	.LBB529:
 423              		.loc 1 144 0
 424              		mov	r2, #-2147483648
 449:c:\code\arm\armlib/net\ax88796.c ****             break;
 450:c:\code\arm\armlib/net\ax88796.c ****     ax88796Write(ISR, RDC);
 451:c:\code\arm\armlib/net\ax88796.c **** 
 452:c:\code\arm\armlib/net\ax88796.c **** 	// set the boundary register to point
 453:c:\code\arm\armlib/net\ax88796.c **** 	// to the start of the next packet-1
 454:c:\code\arm\armlib/net\ax88796.c ****     bnryPagePtr = NextPage-1;
 425              	5]
 426 0220 1C309FE5 	.LBE529:
 427 0224 0030D3E5 	.LBE528:
 428 0228 013043E2 		.loc 1 458 0
 429 022c FF3003E2 		bx	lr
 430              	.L46:
 455:c:\code\arm\armlib/net\ax88796.c **** 	if(bnryPagePtr < RXSTART_INIT) bnryPagePtr = RXSTOP_INIT-1;
 431              	n	2
 432 0230 450053E3 	.L45:
 433 0234 5F30A093 		.word	NextPage
 434              	.LFE17:
 435              		.size	ax88796EndPacketRetreive, .-ax88796EndPacketRetreive
 436              		.align	2
 437              		.global	ax88796WriteMii
 438 0238 0221A0E3 		.type	ax88796WriteMii, %function
 439 023c 0332C2E5 	ax88796WriteMii:
 440              	.LFB20:
 441              		.loc 1 551 0
 456:c:\code\arm\armlib/net\ax88796.c **** 
 457:c:\code\arm\armlib/net\ax88796.c **** 	ax88796Write(BNRY, bnryPagePtr);
 458:c:\code\arm\armlib/net\ax88796.c **** }
 442              	, pretend = 0, frame = 0
 443 0240 1EFF2FE1 		@ frame_needed = 0, uses_anonymous_args = 0
 444              	.LVL20:
 445              		stmfd	sp!, {r4, lr}
 446              	.LCFI3:
 447 0244 00000000 		mov	r4, r2
 448              		and	r0, r0, #255
 449              		and	r1, r1, #255
 450              	.LBB530:
ARM GAS  C:\DOCUME~1\pstang\LOCALS~1\Temp/cc80aaaa.s 			page 17


 451              	.LBB531:
 452              		.loc 1 172 0
 453              		mov	r2, #-2147483648
 454              	.LVL21:
 459:c:\code\arm\armlib/net\ax88796.c **** 
 460:c:\code\arm\armlib/net\ax88796.c **** 
 461:c:\code\arm\armlib/net\ax88796.c **** void ax88796ProcessInterrupt(void)
 462:c:\code\arm\armlib/net\ax88796.c **** {
 463:c:\code\arm\armlib/net\ax88796.c **** 	unsigned char intr = ax88796Read(ISR);
 464:c:\code\arm\armlib/net\ax88796.c **** 	
 465:c:\code\arm\armlib/net\ax88796.c **** 	// check for receive overflow
 466:c:\code\arm\armlib/net\ax88796.c **** 	if( intr & OVW )
 467:c:\code\arm\armlib/net\ax88796.c **** 		ax88796ReceiveOverflowRecover();
 468:c:\code\arm\armlib/net\ax88796.c **** }
 469:c:\code\arm\armlib/net\ax88796.c **** 
 470:c:\code\arm\armlib/net\ax88796.c **** 
 471:c:\code\arm\armlib/net\ax88796.c **** void ax88796ReceiveOverflowRecover(void)
 472:c:\code\arm\armlib/net\ax88796.c **** {
 473:c:\code\arm\armlib/net\ax88796.c **** 	// receive buffer overflow handling procedure
 474:c:\code\arm\armlib/net\ax88796.c **** 	// as specified in the AX88796 datasheet
 475:c:\code\arm\armlib/net\ax88796.c **** 
 476:c:\code\arm\armlib/net\ax88796.c **** 	unsigned char cmdReg;
 477:c:\code\arm\armlib/net\ax88796.c **** 	unsigned char resend=0;
 478:c:\code\arm\armlib/net\ax88796.c **** 
 479:c:\code\arm\armlib/net\ax88796.c **** 	// check if we were transmitting something
 480:c:\code\arm\armlib/net\ax88796.c **** 	cmdReg = ax88796Read(CR);
 481:c:\code\arm\armlib/net\ax88796.c **** 	// stop the interface
 482:c:\code\arm\armlib/net\ax88796.c **** 	ax88796Write(CR, (RD2|STOP));
 483:c:\code\arm\armlib/net\ax88796.c **** 	// wait for timeout
 484:c:\code\arm\armlib/net\ax88796.c **** 	delay_ms(2);
 485:c:\code\arm\armlib/net\ax88796.c **** 	// clear remote byte count registers
 486:c:\code\arm\armlib/net\ax88796.c **** 	ax88796Write(RBCR0, 0x00);
 487:c:\code\arm\armlib/net\ax88796.c **** 	ax88796Write(RBCR1, 0x00);
 488:c:\code\arm\armlib/net\ax88796.c **** 	
 489:c:\code\arm\armlib/net\ax88796.c **** 	// if we were transmitting something
 490:c:\code\arm\armlib/net\ax88796.c **** 	if(cmdReg & TXP)
 491:c:\code\arm\armlib/net\ax88796.c **** 	{
 492:c:\code\arm\armlib/net\ax88796.c **** 		// check if the transmit completed
 493:c:\code\arm\armlib/net\ax88796.c **** 		cmdReg = ax88796Read(ISR);
 494:c:\code\arm\armlib/net\ax88796.c **** 		if((cmdReg & PTX) || (cmdReg & TXE))
 495:c:\code\arm\armlib/net\ax88796.c **** 			resend = 0;		// transmit completed
 496:c:\code\arm\armlib/net\ax88796.c **** 	    else
 497:c:\code\arm\armlib/net\ax88796.c **** 			resend = 1;		// transmit was interrupted, must resend
 498:c:\code\arm\armlib/net\ax88796.c **** 	}
 499:c:\code\arm\armlib/net\ax88796.c **** 	// switch to loopback mode
 500:c:\code\arm\armlib/net\ax88796.c **** 	ax88796Write(TCR, LB0);
 501:c:\code\arm\armlib/net\ax88796.c **** 	// start the interface
 502:c:\code\arm\armlib/net\ax88796.c **** 	ax88796Write(CR, (RD2|START));
 503:c:\code\arm\armlib/net\ax88796.c **** 	// set boundary
 504:c:\code\arm\armlib/net\ax88796.c **** 	ax88796Write(BNRY, RXSTART_INIT);
 505:c:\code\arm\armlib/net\ax88796.c **** 	// go to page 1
 506:c:\code\arm\armlib/net\ax88796.c **** 	ax88796Write(CR, (PS0|RD2|START));
 507:c:\code\arm\armlib/net\ax88796.c **** 	// set current page register
 508:c:\code\arm\armlib/net\ax88796.c **** 	ax88796Write(CPR, RXSTART_INIT+1);
 509:c:\code\arm\armlib/net\ax88796.c **** 	// go to page 0
 510:c:\code\arm\armlib/net\ax88796.c **** 	ax88796Write(CR, (RD2|START));
 511:c:\code\arm\armlib/net\ax88796.c **** 	// clear the overflow int
ARM GAS  C:\DOCUME~1\pstang\LOCALS~1\Temp/cc80aaaa.s 			page 18


 512:c:\code\arm\armlib/net\ax88796.c **** 	ax88796Write(ISR, OVW);
 513:c:\code\arm\armlib/net\ax88796.c **** 	// switch to normal (non-loopback mode)
 514:c:\code\arm\armlib/net\ax88796.c **** 	ax88796Write(TCR, TCR_INIT);
 515:c:\code\arm\armlib/net\ax88796.c **** 
 516:c:\code\arm\armlib/net\ax88796.c **** 	// if previous transmit was interrupted, then resend
 517:c:\code\arm\armlib/net\ax88796.c **** 	if(resend)
 518:c:\code\arm\armlib/net\ax88796.c **** 		ax88796Write(CR, (RD2|TXP|START));
 519:c:\code\arm\armlib/net\ax88796.c **** 
 520:c:\code\arm\armlib/net\ax88796.c **** 	// recovery completed
 521:c:\code\arm\armlib/net\ax88796.c **** }
 522:c:\code\arm\armlib/net\ax88796.c **** 
 523:c:\code\arm\armlib/net\ax88796.c **** 
 524:c:\code\arm\armlib/net\ax88796.c **** #define set_mdc		ax88796Write(MEMR,ax88796Read(MEMR)|0x01);
 525:c:\code\arm\armlib/net\ax88796.c **** #define clr_mdc		ax88796Write(MEMR,ax88796Read(MEMR)&0xFE);
 526:c:\code\arm\armlib/net\ax88796.c **** 
 527:c:\code\arm\armlib/net\ax88796.c **** #define mii_clk		set_mdc; clr_mdc;				  
 528:c:\code\arm\armlib/net\ax88796.c **** 					
 529:c:\code\arm\armlib/net\ax88796.c **** #define set_mdir	ax88796Write(MEMR,ax88796Read(MEMR)|0x02);
 530:c:\code\arm\armlib/net\ax88796.c **** #define clr_mdir	ax88796Write(MEMR,ax88796Read(MEMR)&0xFD);
 531:c:\code\arm\armlib/net\ax88796.c **** 					
 532:c:\code\arm\armlib/net\ax88796.c **** #define set_mdo		ax88796Write(MEMR,ax88796Read(MEMR)|0x08)
 533:c:\code\arm\armlib/net\ax88796.c **** #define clr_mdo		ax88796Write(MEMR,ax88796Read(MEMR)&0xF7)
 534:c:\code\arm\armlib/net\ax88796.c **** 
 535:c:\code\arm\armlib/net\ax88796.c **** #define mii_write	clr_mdo; mii_clk;	\
 536:c:\code\arm\armlib/net\ax88796.c **** 					set_mdo; mii_clk;	\
 537:c:\code\arm\armlib/net\ax88796.c **** 					clr_mdo; mii_clk;	\
 538:c:\code\arm\armlib/net\ax88796.c **** 					set_mdo; mii_clk;
 539:c:\code\arm\armlib/net\ax88796.c **** 
 540:c:\code\arm\armlib/net\ax88796.c **** #define mii_read	clr_mdo; mii_clk;	\
 541:c:\code\arm\armlib/net\ax88796.c **** 					set_mdo; mii_clk;	\
 542:c:\code\arm\armlib/net\ax88796.c **** 					set_mdo; mii_clk;	\
 543:c:\code\arm\armlib/net\ax88796.c **** 					clr_mdo; mii_clk;
 544:c:\code\arm\armlib/net\ax88796.c **** 
 545:c:\code\arm\armlib/net\ax88796.c **** #define mii_r_ta    mii_clk; mii_clk;
 546:c:\code\arm\armlib/net\ax88796.c **** 
 547:c:\code\arm\armlib/net\ax88796.c **** #define mii_w_ta    set_mdo; mii_clk;	\
 548:c:\code\arm\armlib/net\ax88796.c **** 					clr_mdo; mii_clk;
 549:c:\code\arm\armlib/net\ax88796.c **** 			
 550:c:\code\arm\armlib/net\ax88796.c **** void ax88796WriteMii(unsigned char phyad,unsigned char regad,unsigned int mii_data)
 551:c:\code\arm\armlib/net\ax88796.c **** {
 455              	#512
 456              		ldrb	r3, [r2, #20]	@ zero_extendqisi2
 457              		and	r3, r3, #253
 458              	.LBE531:
 459 0248 10402DE9 	.LBE530:
 460              	.LBB532:
 461 024c 0240A0E1 	.LBB533:
 462 0250 FF0000E2 		.loc 1 144 0
 463 0254 FF1001E2 		strb	r3, [r2, #20]
 464              	.LBE533:
 465              	.LBE532:
 466              	.LBB534:
 467 0258 0221A0E3 	.LBB535:
 468              		.loc 1 172 0
 469 025c 022C82E2 		ldrb	r3, [r2, #20]	@ zero_extendqisi2
 470 0260 1430D2E5 		and	r3, r3, #247
 471 0264 FD3003E2 	.LBE535:
ARM GAS  C:\DOCUME~1\pstang\LOCALS~1\Temp/cc80aaaa.s 			page 19


 472              	.LBE534:
 473              	.LBB536:
 474              	.LBB537:
 475              		.loc 1 144 0
 476              		strb	r3, [r2, #20]
 477 0268 1430C2E5 	.LBE537:
 478              	.LBE536:
 479              	.LBB538:
 480              	.LBB539:
 481              		.loc 1 172 0
 482              		ldrb	r3, [r2, #20]	@ zero_extendqisi2
 483 026c 1430D2E5 		orr	r3, r3, #1
 484 0270 F73003E2 	.LBE539:
 485              	.LBE538:
 486              	.LBB540:
 487              	.LBB541:
 488              		.loc 1 144 0
 489              		strb	r3, [r2, #20]
 490 0274 1430C2E5 	.LBE541:
 491              	.LBE540:
 492              	.LBB542:
 493              	.LBB543:
 494              		.loc 1 172 0
 495              		ldrb	r3, [r2, #20]	@ zero_extendqisi2
 496 0278 1430D2E5 		and	r3, r3, #254
 497 027c 013083E3 	.LBE543:
 498              	.LBE542:
 499              	.LBB544:
 500              	.LBB545:
 501              		.loc 1 144 0
 502              		strb	r3, [r2, #20]
 503 0280 1430C2E5 	.LBE545:
 504              	.LBE544:
 505              	.LBB546:
 506              	.LBB547:
 507              		.loc 1 172 0
 508              		ldrb	r3, [r2, #20]	@ zero_extendqisi2
 509 0284 1430D2E5 		orr	r3, r3, #8
 510 0288 FE3003E2 	.LBE547:
 511              	.LBE546:
 512              	.LBB548:
 513              	.LBB549:
 514              		.loc 1 144 0
 515              		strb	r3, [r2, #20]
 516 028c 1430C2E5 	.LBE549:
 517              	.LBE548:
 518              	.LBB550:
 519              	.LBB551:
 520              		.loc 1 172 0
 521              		ldrb	r3, [r2, #20]	@ zero_extendqisi2
 522 0290 1430D2E5 		orr	r3, r3, #1
 523 0294 083083E3 	.LBE551:
 524              	.LBE550:
 525              	.LBB552:
 526              	.LBB553:
 527              		.loc 1 144 0
 528              		strb	r3, [r2, #20]
ARM GAS  C:\DOCUME~1\pstang\LOCALS~1\Temp/cc80aaaa.s 			page 20


 529 0298 1430C2E5 	.LBE553:
 530              	.LBE552:
 531              	.LBB554:
 532              	.LBB555:
 533              		.loc 1 172 0
 534              		ldrb	r3, [r2, #20]	@ zero_extendqisi2
 535 029c 1430D2E5 		and	r3, r3, #254
 536 02a0 013083E3 	.LBE555:
 537              	.LBE554:
 538              	.LBB556:
 539              	.LBB557:
 540              		.loc 1 144 0
 541              		strb	r3, [r2, #20]
 542 02a4 1430C2E5 	.LBE557:
 543              	.LBE556:
 544              	.LBB558:
 545              	.LBB559:
 546              		.loc 1 172 0
 547              		ldrb	r3, [r2, #20]	@ zero_extendqisi2
 548 02a8 1430D2E5 		and	r3, r3, #247
 549 02ac FE3003E2 	.LBE559:
 550              	.LBE558:
 551              	.LBB560:
 552              	.LBB561:
 553              		.loc 1 144 0
 554              		strb	r3, [r2, #20]
 555 02b0 1430C2E5 	.LBE561:
 556              	.LBE560:
 557              	.LBB562:
 558              	.LBB563:
 559              		.loc 1 172 0
 560              		ldrb	r3, [r2, #20]	@ zero_extendqisi2
 561 02b4 1430D2E5 		orr	r3, r3, #1
 562 02b8 F73003E2 	.LBE563:
 563              	.LBE562:
 564              	.LBB564:
 565              	.LBB565:
 566              		.loc 1 144 0
 567              		strb	r3, [r2, #20]
 568 02bc 1430C2E5 	.LBE565:
 569              	.LBE564:
 570              	.LBB566:
 571              	.LBB567:
 572              		.loc 1 172 0
 573              		ldrb	r3, [r2, #20]	@ zero_extendqisi2
 574 02c0 1430D2E5 		and	r3, r3, #254
 575 02c4 013083E3 	.LBE567:
 576              	.LBE566:
 577              	.LBB568:
 578              	.LBB569:
 579              		.loc 1 144 0
 580              		strb	r3, [r2, #20]
 581 02c8 1430C2E5 	.LBE569:
 582              	.LBE568:
 583              	.LBB570:
 584              	.LBB571:
 585              		.loc 1 172 0
ARM GAS  C:\DOCUME~1\pstang\LOCALS~1\Temp/cc80aaaa.s 			page 21


 586              		ldrb	r3, [r2, #20]	@ zero_extendqisi2
 587 02cc 1430D2E5 		orr	r3, r3, #8
 588 02d0 FE3003E2 	.LBE571:
 589              	.LBE570:
 590              	.LBB572:
 591              	.LBB573:
 592              		.loc 1 144 0
 593              		strb	r3, [r2, #20]
 594 02d4 1430C2E5 	.LBE573:
 595              	.LBE572:
 596              	.LBB574:
 597              	.LBB575:
 598              		.loc 1 172 0
 599              		ldrb	r3, [r2, #20]	@ zero_extendqisi2
 600 02d8 1430D2E5 		orr	r3, r3, #1
 601 02dc 083083E3 	.LBE575:
 602              	.LBE574:
 603              	.LBB576:
 604              	.LBB577:
 605              		.loc 1 144 0
 606              		strb	r3, [r2, #20]
 607 02e0 1430C2E5 	.LBE577:
 608              	.LBE576:
 609              	.LBB578:
 610              	.LBB579:
 611              		.loc 1 172 0
 612              		ldrb	r3, [r2, #20]	@ zero_extendqisi2
 613 02e4 1430D2E5 		and	r3, r3, #254
 614 02e8 013083E3 	.LBE579:
 615              	.LBE578:
 616              	.LBB580:
 617              	.LBB581:
 618              		.loc 1 144 0
 619              		strb	r3, [r2, #20]
 620 02ec 1430C2E5 		mov	lr, #16
 621              	.LVL22:
 622              		mov	ip, #0
 623              	.LVL23:
 624              	.L48:
 625              	.LBE581:
 626 02f0 1430D2E5 	.LBE580:
 627 02f4 FE3003E2 		.loc 1 561 0
 628              		tst	lr, r0
 629              	.LBB582:
 630              	.LBB583:
 631              		.loc 1 172 0
 632              		ldrneb	r3, [r2, #20]	@ zero_extendqisi2
 633 02f8 1430C2E5 		orrne	r3, r3, #8
 634 02fc 10E0A0E3 	.LBE583:
 635              	.LBE582:
 636 0300 00C0A0E3 	.LBB584:
 637              	.LBB585:
 638              		.loc 1 144 0
 639              		strneb	r3, [r2, #20]
 640              	.LBE585:
 552:c:\code\arm\armlib/net\ax88796.c **** 	unsigned char mask8;
 553:c:\code\arm\armlib/net\ax88796.c **** 	unsigned int  i,mask16;
ARM GAS  C:\DOCUME~1\pstang\LOCALS~1\Temp/cc80aaaa.s 			page 22


 554:c:\code\arm\armlib/net\ax88796.c **** 
 555:c:\code\arm\armlib/net\ax88796.c **** 	clr_mdir;
 556:c:\code\arm\armlib/net\ax88796.c **** 	mii_write;
 557:c:\code\arm\armlib/net\ax88796.c ****  
 558:c:\code\arm\armlib/net\ax88796.c **** 	mask8 = 0x10;
 559:c:\code\arm\armlib/net\ax88796.c **** 	for(i=0;i<5;++i)
 560:c:\code\arm\armlib/net\ax88796.c **** 	{
 561:c:\code\arm\armlib/net\ax88796.c ****   	   	if(mask8 & phyad)
 641              	E588:
 642 0304 00001EE1 	.LBB590:
 643              	.LBB591:
 644              		.loc 1 172 0
 645              		ldrb	r3, [r2, #20]	@ zero_extendqisi2
 646 0308 1430D215 		orr	r3, r3, #1
 647 030c 08308313 	.LBE591:
 648              	.LBE590:
 649              	.LBB592:
 650              	.LBB593:
 651              		.loc 1 144 0
 652              		strb	r3, [r2, #20]
 653 0310 1430C215 	.LBE593:
 654              	.LBE592:
 655              	.LBB594:
 656              	.LBB595:
 657              		.loc 1 172 0
 658              		ldrb	r3, [r2, #20]	@ zero_extendqisi2
 659 0314 1430D205 		and	r3, r3, #254
 660 0318 F7300302 	.LBE595:
 661              	.LBE594:
 662              	.LBB596:
 663              	.LBB597:
 664              		.loc 1 144 0
 665              		strb	r3, [r2, #20]
 666 031c 1430C205 	.LBE597:
 667              	.LBE596:
 668              		.loc 1 559 0
 669              		add	ip, ip, #1
 670              		cmp	ip, #5
 671              		.loc 1 566 0
 672 0320 1430D2E5 		movne	lr, lr, lsr #1
 673 0324 013083E3 		bne	.L48
 674              	.L52:
 675              		mov	ip, #16
 676              	.LVL24:
 677              		mov	r0, #0
 678              	.LVL25:
 679 0328 1430C2E5 		mov	r3, #-2147483648
 680              		add	r2, r3, #512
 681              	.L54:
 682              		.loc 1 571 0
 683              		tst	ip, r1
 684              	.LBB598:
 685 032c 1430D2E5 	.LBB599:
 686 0330 FE3003E2 		.loc 1 172 0
 687              		ldrneb	r3, [r2, #20]	@ zero_extendqisi2
 688              		orrne	r3, r3, #8
 689              	.LBE599:
ARM GAS  C:\DOCUME~1\pstang\LOCALS~1\Temp/cc80aaaa.s 			page 23


 690              	.LBE598:
 691              	.LBB600:
 692 0334 1430C2E5 	.LBB601:
 693              		.loc 1 144 0
 694              		strneb	r3, [r2, #20]
 695              	.LBE601:
 696 0338 01C08CE2 	.LBE600:
 697 033c 05005CE3 	.LBB602:
 562:c:\code\arm\armlib/net\ax88796.c **** 			set_mdo;
 563:c:\code\arm\armlib/net\ax88796.c **** 		else
 564:c:\code\arm\armlib/net\ax88796.c **** 			clr_mdo;
 565:c:\code\arm\armlib/net\ax88796.c **** 		mii_clk;
 566:c:\code\arm\armlib/net\ax88796.c **** 		mask8 >>= 1;	 
 698              	dqisi2
 699 0340 AEE0A011 		andeq	r3, r3, #247
 700 0344 EEFFFF1A 	.LBE603:
 701              	.LBE602:
 702 0348 10C0A0E3 	.LBB604:
 703              	.LBB605:
 704 034c 0000A0E3 		.loc 1 144 0
 705              		streqb	r3, [r2, #20]
 706 0350 0231A0E3 	.LBE605:
 707 0354 022C83E2 	.LBE604:
 708              	.LBB606:
 567:c:\code\arm\armlib/net\ax88796.c **** 	}   
 568:c:\code\arm\armlib/net\ax88796.c **** 	mask8 = 0x10;
 569:c:\code\arm\armlib/net\ax88796.c **** 	for(i=0;i<5;++i)
 570:c:\code\arm\armlib/net\ax88796.c **** 	{
 571:c:\code\arm\armlib/net\ax88796.c ****   		if(mask8 & regad)
 709              	loc 1 172 0
 710 0358 01001CE1 		ldrb	r3, [r2, #20]	@ zero_extendqisi2
 711              		orr	r3, r3, #1
 712              	.LBE607:
 713              	.LBE606:
 714 035c 1430D215 	.LBB608:
 715 0360 08308313 	.LBB609:
 716              		.loc 1 144 0
 717              		strb	r3, [r2, #20]
 718              	.LBE609:
 719              	.LBE608:
 720              	.LBB610:
 721 0364 1430C215 	.LBB611:
 722              		.loc 1 172 0
 723              		ldrb	r3, [r2, #20]	@ zero_extendqisi2
 724              		and	r3, r3, #254
 725              	.LBE611:
 726              	.LBE610:
 727 0368 1430D205 	.LBB612:
 728 036c F7300302 	.LBB613:
 729              		.loc 1 144 0
 730              		strb	r3, [r2, #20]
 731              	.LBE613:
 732              	.LBE612:
 733              		.loc 1 569 0
 734 0370 1430C205 		add	r0, r0, #1
 735              		cmp	r0, #5
 736              		.loc 1 576 0
ARM GAS  C:\DOCUME~1\pstang\LOCALS~1\Temp/cc80aaaa.s 			page 24


 737              		movne	ip, ip, lsr #1
 738              		bne	.L54
 739              	.L58:
 740 0374 1430D2E5 	.LBB614:
 741 0378 013083E3 	.LBB615:
 742              		.loc 1 172 0
 743              		mov	r2, #-2147483648
 744              		add	r2, r2, #512
 745              		ldrb	r3, [r2, #20]	@ zero_extendqisi2
 746              		orr	r3, r3, #8
 747 037c 1430C2E5 	.LBE615:
 748              	.LBE614:
 749              	.LBB616:
 750              	.LBB617:
 751              		.loc 1 144 0
 752              		strb	r3, [r2, #20]
 753 0380 1430D2E5 	.LBE617:
 754 0384 FE3003E2 	.LBE616:
 755              	.LBB618:
 756              	.LBB619:
 757              		.loc 1 172 0
 758              		ldrb	r3, [r2, #20]	@ zero_extendqisi2
 759              		orr	r3, r3, #1
 760 0388 1430C2E5 	.LBE619:
 761              	.LBE618:
 762              	.LBB620:
 763              	.LBB621:
 764 038c 010080E2 		.loc 1 144 0
 765 0390 050050E3 		strb	r3, [r2, #20]
 572:c:\code\arm\armlib/net\ax88796.c **** 			set_mdo;
 573:c:\code\arm\armlib/net\ax88796.c **** 		else
 574:c:\code\arm\armlib/net\ax88796.c **** 			clr_mdo;
 575:c:\code\arm\armlib/net\ax88796.c **** 		mii_clk;
 576:c:\code\arm\armlib/net\ax88796.c **** 		mask8 >>= 1;	 
 766              	3, [r2, #20]	@ zero_extendqisi2
 767 0394 ACC0A011 		and	r3, r3, #254
 768 0398 EEFFFF1A 	.LBE623:
 769              	.LBE622:
 770              	.LBB624:
 771              	.LBB625:
 772              		.loc 1 144 0
 773 039c 0221A0E3 		strb	r3, [r2, #20]
 774 03a0 022C82E2 	.LBE625:
 775 03a4 1430D2E5 	.LBE624:
 776 03a8 083083E3 	.LBB626:
 777              	.LBB627:
 778              		.loc 1 172 0
 779              		ldrb	r3, [r2, #20]	@ zero_extendqisi2
 780              		and	r3, r3, #247
 781              	.LBE627:
 782 03ac 1430C2E5 	.LBE626:
 783              	.LBB628:
 784              	.LBB629:
 785              		.loc 1 144 0
 786              		strb	r3, [r2, #20]
 787              	.LBE629:
 788 03b0 1430D2E5 	.LBE628:
ARM GAS  C:\DOCUME~1\pstang\LOCALS~1\Temp/cc80aaaa.s 			page 25


 789 03b4 013083E3 	.LBB630:
 790              	.LBB631:
 791              		.loc 1 172 0
 792              		ldrb	r3, [r2, #20]	@ zero_extendqisi2
 793              		orr	r3, r3, #1
 794              	.LBE631:
 795 03b8 1430C2E5 	.LBE630:
 796              	.LBB632:
 797              	.LBB633:
 798              		.loc 1 144 0
 799              		strb	r3, [r2, #20]
 800              	.LBE633:
 801 03bc 1430D2E5 	.LBE632:
 802 03c0 FE3003E2 	.LBB634:
 803              	.LBB635:
 804              		.loc 1 172 0
 805              		ldrb	r3, [r2, #20]	@ zero_extendqisi2
 806              		and	r3, r3, #254
 807              	.LBE635:
 808 03c4 1430C2E5 	.LBE634:
 809              	.LBB636:
 810              	.LBB637:
 811              		.loc 1 144 0
 812              		strb	r3, [r2, #20]
 813              		mov	r1, #0
 814 03c8 1430D2E5 	.LVL26:
 815 03cc F73003E2 		mov	r0, #32768
 816              	.LVL27:
 817              	.L60:
 818              	.LBE637:
 819              	.LBE636:
 820              		.loc 1 583 0
 821 03d0 1430C2E5 		tst	r4, r0
 822              	.LBB638:
 823              	.LBB639:
 824              		.loc 1 172 0
 825              		ldrneb	r3, [r2, #20]	@ zero_extendqisi2
 826              		orrne	r3, r3, #8
 827 03d4 1430D2E5 	.LBE639:
 828 03d8 013083E3 	.LBE638:
 829              	.LBB640:
 830              	.LBB641:
 831              		.loc 1 144 0
 832              		strneb	r3, [r2, #20]
 833              	.LBE641:
 834 03dc 1430C2E5 	.LBE640:
 835              	.LBB642:
 836              	.LBB643:
 837              		.loc 1 172 0
 838              		ldreqb	r3, [r2, #20]	@ zero_extendqisi2
 839              		andeq	r3, r3, #247
 840 03e0 1430D2E5 	.LBE643:
 841 03e4 FE3003E2 	.LBE642:
 842              	.LBB644:
 843              	.LBB645:
 844              		.loc 1 144 0
 845              		streqb	r3, [r2, #20]
ARM GAS  C:\DOCUME~1\pstang\LOCALS~1\Temp/cc80aaaa.s 			page 26


 846              	.LBE645:
 847 03e8 1430C2E5 	.LBE644:
 848 03ec 0010A0E3 	.LBB646:
 849              	.LBB647:
 850 03f0 0209A0E3 		.loc 1 172 0
 851              		ldrb	r3, [r2, #20]	@ zero_extendqisi2
 852              		orr	r3, r3, #1
 853              	.LBE647:
 854              	.LBE646:
 577:c:\code\arm\armlib/net\ax88796.c **** 	}    					
 578:c:\code\arm\armlib/net\ax88796.c **** 	mii_w_ta;
 579:c:\code\arm\armlib/net\ax88796.c ****  
 580:c:\code\arm\armlib/net\ax88796.c **** 	mask16 = 0x8000;
 581:c:\code\arm\armlib/net\ax88796.c **** 	for(i=0;i<16;++i)
 582:c:\code\arm\armlib/net\ax88796.c **** 	{
 583:c:\code\arm\armlib/net\ax88796.c **** 		if(mask16 & mii_data)
 855              	.loc 1 172 0
 856 03f4 000014E1 		ldrb	r3, [r2, #20]	@ zero_extendqisi2
 857              		and	r3, r3, #254
 858              	.LBE651:
 859              	.LBE650:
 860 03f8 1430D215 	.LBB652:
 861 03fc 08308313 	.LBB653:
 862              		.loc 1 144 0
 863              		strb	r3, [r2, #20]
 864              	.LBE653:
 865              	.LBE652:
 866              		.loc 1 581 0
 867 0400 1430C215 		add	r1, r1, #1
 868              		cmp	r1, #16
 869              		ldmeqfd	sp!, {r4, pc}
 870              		.loc 1 588 0
 871              		mov	r0, r0, lsr #1
 872              		b	.L60
 873 0404 1430D205 	.LFE20:
 874 0408 F7300302 		.size	ax88796WriteMii, .-ax88796WriteMii
 875              		.align	2
 876              		.global	ax88796ReadMii
 877              		.type	ax88796ReadMii, %function
 878              	ax88796ReadMii:
 879              	.LFB21:
 880 040c 1430C205 		.loc 1 593 0
 881              		@ args = 0, pretend = 0, frame = 0
 882              		@ frame_needed = 0, uses_anonymous_args = 0
 883              	.LVL28:
 884              		str	lr, [sp, #-4]!
 885              	.LCFI4:
 886 0410 1430D2E5 		and	r0, r0, #255
 887 0414 013083E3 		and	r1, r1, #255
 888              	.LBB654:
 889              	.LBB655:
 890              		.loc 1 172 0
 891              		mov	r2, #-2147483648
 892              		add	r2, r2, #512
 893 0418 1430C2E5 		ldrb	r3, [r2, #20]	@ zero_extendqisi2
 894              		and	r3, r3, #253
 895              	.LBE655:
ARM GAS  C:\DOCUME~1\pstang\LOCALS~1\Temp/cc80aaaa.s 			page 27


 896              	.LBE654:
 897              	.LBB656:
 898              	.LBB657:
 899 041c 1430D2E5 		.loc 1 144 0
 900 0420 FE3003E2 		strb	r3, [r2, #20]
 901              	.LBE657:
 902              	.LBE656:
 903              	.LBB658:
 904              	.LBB659:
 905              		.loc 1 172 0
 906 0424 1430C2E5 		ldrb	r3, [r2, #20]	@ zero_extendqisi2
 907              		and	r3, r3, #247
 908              	.LBE659:
 909              	.LBE658:
 910 0428 011081E2 	.LBB660:
 911 042c 100051E3 	.LBB661:
 912 0430 1080BD08 		.loc 1 144 0
 584:c:\code\arm\armlib/net\ax88796.c **** 			set_mdo;
 585:c:\code\arm\armlib/net\ax88796.c **** 		else
 586:c:\code\arm\armlib/net\ax88796.c **** 			clr_mdo;
 587:c:\code\arm\armlib/net\ax88796.c **** 		mii_clk;	 
 588:c:\code\arm\armlib/net\ax88796.c **** 		mask16 >>= 1;	 
 913              	loc 1 172 0
 914 0434 A000A0E1 		ldrb	r3, [r2, #20]	@ zero_extendqisi2
 915 0438 EDFFFFEA 		orr	r3, r3, #1
 916              	.LBE663:
 917              	.LBE662:
 918              	.LBB664:
 919              	.LBB665:
 920              		.loc 1 144 0
 921              		strb	r3, [r2, #20]
 922              	.LBE665:
 589:c:\code\arm\armlib/net\ax88796.c **** 	}   			
 590:c:\code\arm\armlib/net\ax88796.c **** }
 591:c:\code\arm\armlib/net\ax88796.c ****  
 592:c:\code\arm\armlib/net\ax88796.c **** unsigned int ax88796ReadMii(unsigned char phyad,unsigned char regad)
 593:c:\code\arm\armlib/net\ax88796.c **** {
 923              	LBB666:
 924              	.LBB667:
 925              		.loc 1 172 0
 926              		ldrb	r3, [r2, #20]	@ zero_extendqisi2
 927 043c 04E02DE5 		and	r3, r3, #254
 928              	.LBE667:
 929 0440 FF0000E2 	.LBE666:
 930 0444 FF1001E2 	.LBB668:
 931              	.LBB669:
 932              		.loc 1 144 0
 933              		strb	r3, [r2, #20]
 934 0448 0221A0E3 	.LBE669:
 935 044c 022C82E2 	.LBE668:
 936 0450 1430D2E5 	.LBB670:
 937 0454 FD3003E2 	.LBB671:
 938              		.loc 1 172 0
 939              		ldrb	r3, [r2, #20]	@ zero_extendqisi2
 940              		orr	r3, r3, #8
 941              	.LBE671:
 942              	.LBE670:
ARM GAS  C:\DOCUME~1\pstang\LOCALS~1\Temp/cc80aaaa.s 			page 28


 943 0458 1430C2E5 	.LBB672:
 944              	.LBB673:
 945              		.loc 1 144 0
 946              		strb	r3, [r2, #20]
 947              	.LBE673:
 948              	.LBE672:
 949 045c 1430D2E5 	.LBB674:
 950 0460 F73003E2 	.LBB675:
 951              		.loc 1 172 0
 952              		ldrb	r3, [r2, #20]	@ zero_extendqisi2
 953              		orr	r3, r3, #1
 954              	.LBE675:
 955              	.LBE674:
 956 0464 1430C2E5 	.LBB676:
 957              	.LBB677:
 958              		.loc 1 144 0
 959              		strb	r3, [r2, #20]
 960              	.LBE677:
 961              	.LBE676:
 962 0468 1430D2E5 	.LBB678:
 963 046c 013083E3 	.LBB679:
 964              		.loc 1 172 0
 965              		ldrb	r3, [r2, #20]	@ zero_extendqisi2
 966              		and	r3, r3, #254
 967              	.LBE679:
 968              	.LBE678:
 969 0470 1430C2E5 	.LBB680:
 970              	.LBB681:
 971              		.loc 1 144 0
 972              		strb	r3, [r2, #20]
 973              	.LBE681:
 974              	.LBE680:
 975 0474 1430D2E5 	.LBB682:
 976 0478 FE3003E2 	.LBB683:
 977              		.loc 1 172 0
 978              		ldrb	r3, [r2, #20]	@ zero_extendqisi2
 979              		orr	r3, r3, #8
 980              	.LBE683:
 981              	.LBE682:
 982 047c 1430C2E5 	.LBB684:
 983              	.LBB685:
 984              		.loc 1 144 0
 985              		strb	r3, [r2, #20]
 986              	.LBE685:
 987              	.LBE684:
 988 0480 1430D2E5 	.LBB686:
 989 0484 083083E3 	.LBB687:
 990              		.loc 1 172 0
 991              		ldrb	r3, [r2, #20]	@ zero_extendqisi2
 992              		orr	r3, r3, #1
 993              	.LBE687:
 994              	.LBE686:
 995 0488 1430C2E5 	.LBB688:
 996              	.LBB689:
 997              		.loc 1 144 0
 998              		strb	r3, [r2, #20]
 999              	.LBE689:
ARM GAS  C:\DOCUME~1\pstang\LOCALS~1\Temp/cc80aaaa.s 			page 29


 1000              	.LBE688:
 1001 048c 1430D2E5 	.LBB690:
 1002 0490 013083E3 	.LBB691:
 1003              		.loc 1 172 0
 1004              		ldrb	r3, [r2, #20]	@ zero_extendqisi2
 1005              		and	r3, r3, #254
 1006              	.LBE691:
 1007              	.LBE690:
 1008 0494 1430C2E5 	.LBB692:
 1009              	.LBB693:
 1010              		.loc 1 144 0
 1011              		strb	r3, [r2, #20]
 1012              	.LBE693:
 1013              	.LBE692:
 1014 0498 1430D2E5 	.LBB694:
 1015 049c FE3003E2 	.LBB695:
 1016              		.loc 1 172 0
 1017              		ldrb	r3, [r2, #20]	@ zero_extendqisi2
 1018              		and	r3, r3, #247
 1019              	.LBE695:
 1020              	.LBE694:
 1021 04a0 1430C2E5 	.LBB696:
 1022              	.LBB697:
 1023              		.loc 1 144 0
 1024              		strb	r3, [r2, #20]
 1025              	.LBE697:
 1026              	.LBE696:
 1027 04a4 1430D2E5 	.LBB698:
 1028 04a8 083083E3 	.LBB699:
 1029              		.loc 1 172 0
 1030              		ldrb	r3, [r2, #20]	@ zero_extendqisi2
 1031              		orr	r3, r3, #1
 1032              	.LBE699:
 1033              	.LBE698:
 1034 04ac 1430C2E5 	.LBB700:
 1035              	.LBB701:
 1036              		.loc 1 144 0
 1037              		strb	r3, [r2, #20]
 1038              	.LBE701:
 1039              	.LBE700:
 1040 04b0 1430D2E5 	.LBB702:
 1041 04b4 013083E3 	.LBB703:
 1042              		.loc 1 172 0
 1043              		ldrb	r3, [r2, #20]	@ zero_extendqisi2
 1044              		and	r3, r3, #254
 1045              	.LBE703:
 1046              	.LBE702:
 1047 04b8 1430C2E5 	.LBB704:
 1048              	.LBB705:
 1049              		.loc 1 144 0
 1050              		strb	r3, [r2, #20]
 1051              		mov	lr, #16
 1052              	.LVL29:
 1053 04bc 1430D2E5 		mov	ip, #0
 1054 04c0 FE3003E2 	.LVL30:
 1055              	.L68:
 1056              	.LBE705:
ARM GAS  C:\DOCUME~1\pstang\LOCALS~1\Temp/cc80aaaa.s 			page 30


 1057              	.LBE704:
 1058              		.loc 1 603 0
 1059              		tst	lr, r0
 1060 04c4 1430C2E5 	.LBB706:
 1061              	.LBB707:
 1062              		.loc 1 172 0
 1063              		ldrneb	r3, [r2, #20]	@ zero_extendqisi2
 1064              		orrne	r3, r3, #8
 1065              	.LBE707:
 1066 04c8 1430D2E5 	.LBE706:
 1067 04cc F73003E2 	.LBB708:
 1068              	.LBB709:
 1069              		.loc 1 144 0
 1070              		strneb	r3, [r2, #20]
 1071              	.LBE709:
 1072              	.LBE708:
 1073 04d0 1430C2E5 	.LBB710:
 1074              	.LBB711:
 1075              		.loc 1 172 0
 1076              		ldreqb	r3, [r2, #20]	@ zero_extendqisi2
 1077              		andeq	r3, r3, #247
 1078              	.LBE711:
 1079 04d4 1430D2E5 	.LBE710:
 1080 04d8 013083E3 	.LBB712:
 1081              	.LBB713:
 1082              		.loc 1 144 0
 1083              		streqb	r3, [r2, #20]
 1084              	.LBE713:
 1085              	.LBE712:
 1086 04dc 1430C2E5 	.LBB714:
 1087              	.LBB715:
 1088              		.loc 1 172 0
 1089              		ldrb	r3, [r2, #20]	@ zero_extendqisi2
 1090              		orr	r3, r3, #1
 1091              	.LBE715:
 1092 04e0 1430D2E5 	.LBE714:
 1093 04e4 FE3003E2 	.LBB716:
 1094              	.LBB717:
 1095              		.loc 1 144 0
 1096              		strb	r3, [r2, #20]
 1097              	.LBE717:
 1098              	.LBE716:
 1099 04e8 1430C2E5 	.LBB718:
 1100 04ec 10E0A0E3 	.LBB719:
 1101              		.loc 1 172 0
 1102 04f0 00C0A0E3 		ldrb	r3, [r2, #20]	@ zero_extendqisi2
 1103              		and	r3, r3, #254
 1104              	.LBE719:
 1105              	.LBE718:
 1106              	.LBB720:
 594:c:\code\arm\armlib/net\ax88796.c **** 	unsigned char mask8,i;
 595:c:\code\arm\armlib/net\ax88796.c **** 	unsigned int  mask16,result16;
 596:c:\code\arm\armlib/net\ax88796.c ****  
 597:c:\code\arm\armlib/net\ax88796.c **** 	clr_mdir;
 598:c:\code\arm\armlib/net\ax88796.c **** 	mii_read;
 599:c:\code\arm\armlib/net\ax88796.c **** 
 600:c:\code\arm\armlib/net\ax88796.c **** 	mask8 = 0x10;
ARM GAS  C:\DOCUME~1\pstang\LOCALS~1\Temp/cc80aaaa.s 			page 31


 601:c:\code\arm\armlib/net\ax88796.c **** 	for(i=0;i<5;++i)
 602:c:\code\arm\armlib/net\ax88796.c **** 	{
 603:c:\code\arm\armlib/net\ax88796.c **** 		if(mask8 & phyad)
 1107              	6
 1108 04f4 00001EE1 	.LVL31:
 1109              		mov	r0, #0
 1110              	.LVL32:
 1111              		mov	r3, #-2147483648
 1112 04f8 1430D215 		add	r2, r3, #512
 1113 04fc 08308313 	.L74:
 1114              		.loc 1 613 0
 1115              		tst	r1, ip
 1116              	.LBB722:
 1117              	.LBB723:
 1118              		.loc 1 172 0
 1119 0500 1430C215 		ldrneb	r3, [r2, #20]	@ zero_extendqisi2
 1120              		orrne	r3, r3, #8
 1121              	.LBE723:
 1122              	.LBE722:
 1123              	.LBB724:
 1124              	.LBB725:
 1125 0504 1430D205 		.loc 1 144 0
 1126 0508 F7300302 		strneb	r3, [r2, #20]
 1127              	.LBE725:
 1128              	.LBE724:
 1129              	.LBB726:
 1130              	.LBB727:
 1131              		.loc 1 172 0
 1132 050c 1430C205 		ldreqb	r3, [r2, #20]	@ zero_extendqisi2
 1133              		andeq	r3, r3, #247
 1134              	.LBE727:
 1135              	.LBE726:
 1136              	.LBB728:
 1137              	.LBB729:
 1138 0510 1430D2E5 		.loc 1 144 0
 1139 0514 013083E3 		streqb	r3, [r2, #20]
 1140              	.LBE729:
 1141              	.LBE728:
 1142              	.LBB730:
 1143              	.LBB731:
 1144              		.loc 1 172 0
 1145 0518 1430C2E5 		ldrb	r3, [r2, #20]	@ zero_extendqisi2
 1146              		orr	r3, r3, #1
 1147              	.LBE731:
 1148              	.LBE730:
 1149              	.LBB732:
 1150              	.LBB733:
 1151 051c 1430D2E5 		.loc 1 144 0
 1152 0520 FE3003E2 		strb	r3, [r2, #20]
 1153              	.LBE733:
 1154              	.LBE732:
 1155              	.LBB734:
 1156              	.LBB735:
 1157              		.loc 1 172 0
 1158 0524 1430C2E5 		ldrb	r3, [r2, #20]	@ zero_extendqisi2
 1159              		and	r3, r3, #254
 1160              	.LBE735:
ARM GAS  C:\DOCUME~1\pstang\LOCALS~1\Temp/cc80aaaa.s 			page 32


 1161              	.LBE734:
 1162 0528 01308CE2 	.LBB736:
 1163 052c FFC003E2 	.LBB737:
 1164 0530 05005CE3 		.loc 1 144 0
 604:c:\code\arm\armlib/net\ax88796.c **** 			set_mdo;
 605:c:\code\arm\armlib/net\ax88796.c **** 		else
 606:c:\code\arm\armlib/net\ax88796.c **** 			clr_mdo;
 607:c:\code\arm\armlib/net\ax88796.c **** 		mii_clk;	 
 608:c:\code\arm\armlib/net\ax88796.c **** 		mask8 >>= 1;
 1165              	3, r0, #1
 1166 0534 AEE0A011 		and	r0, r3, #255
 1167 0538 EDFFFF1A 		cmp	r0, #5
 1168              		.loc 1 618 0
 1169 053c 10C0A0E3 		movne	ip, ip, lsr #1
 1170              		bne	.L74
 1171 0540 0000A0E3 	.L78:
 1172              	.LBB738:
 1173 0544 0231A0E3 	.LBB739:
 1174 0548 022C83E2 		.loc 1 172 0
 1175              		mov	r2, #-2147483648
 609:c:\code\arm\armlib/net\ax88796.c **** 	}
 610:c:\code\arm\armlib/net\ax88796.c **** 	mask8 = 0x10;
 611:c:\code\arm\armlib/net\ax88796.c **** 	for(i=0;i<5;++i)
 612:c:\code\arm\armlib/net\ax88796.c **** 	{
 613:c:\code\arm\armlib/net\ax88796.c **** 		if(mask8 & regad)
 1176              	, #512
 1177 054c 0C0011E1 		ldrb	r3, [r2, #20]	@ zero_extendqisi2
 1178              		orr	r3, r3, #2
 1179              	.LBE739:
 1180              	.LBE738:
 1181 0550 1430D215 	.LBB740:
 1182 0554 08308313 	.LBB741:
 1183              		.loc 1 144 0
 1184              		strb	r3, [r2, #20]
 1185              	.LBE741:
 1186              	.LBE740:
 1187              	.LBB742:
 1188 0558 1430C215 	.LBB743:
 1189              		.loc 1 172 0
 1190              		ldrb	r3, [r2, #20]	@ zero_extendqisi2
 1191              		orr	r3, r3, #1
 1192              	.LBE743:
 1193              	.LBE742:
 1194 055c 1430D205 	.LBB744:
 1195 0560 F7300302 	.LBB745:
 1196              		.loc 1 144 0
 1197              		strb	r3, [r2, #20]
 1198              	.LBE745:
 1199              	.LBE744:
 1200              	.LBB746:
 1201 0564 1430C205 	.LBB747:
 1202              		.loc 1 172 0
 1203              		ldrb	r3, [r2, #20]	@ zero_extendqisi2
 1204              		and	r3, r3, #254
 1205              	.LBE747:
 1206              	.LBE746:
 1207 0568 1430D2E5 	.LBB748:
ARM GAS  C:\DOCUME~1\pstang\LOCALS~1\Temp/cc80aaaa.s 			page 33


 1208 056c 013083E3 	.LBB749:
 1209              		.loc 1 144 0
 1210              		strb	r3, [r2, #20]
 1211              	.LBE749:
 1212              	.LBE748:
 1213              	.LBB750:
 1214 0570 1430C2E5 	.LBB751:
 1215              		.loc 1 172 0
 1216              		ldrb	r3, [r2, #20]	@ zero_extendqisi2
 1217              		orr	r3, r3, #1
 1218              	.LBE751:
 1219              	.LBE750:
 1220 0574 1430D2E5 	.LBB752:
 1221 0578 FE3003E2 	.LBB753:
 1222              		.loc 1 144 0
 1223              		strb	r3, [r2, #20]
 1224              	.LBE753:
 1225              	.LBE752:
 1226              	.LBB754:
 1227 057c 1430C2E5 	.LBB755:
 1228              		.loc 1 172 0
 1229              		ldrb	r3, [r2, #20]	@ zero_extendqisi2
 1230              		and	r3, r3, #254
 1231 0580 013080E2 	.LBE755:
 1232 0584 FF0003E2 	.LBE754:
 1233 0588 050050E3 	.LBB756:
 614:c:\code\arm\armlib/net\ax88796.c **** 			set_mdo;
 615:c:\code\arm\armlib/net\ax88796.c **** 		else
 616:c:\code\arm\armlib/net\ax88796.c **** 			clr_mdo;
 617:c:\code\arm\armlib/net\ax88796.c **** 		mii_clk;
 618:c:\code\arm\armlib/net\ax88796.c **** 		mask8 >>= 1;
 1234              	
 1235 058c ACC0A011 	.LVL33:
 1236 0590 EDFFFF1A 		mov	r0, #0
 1237              	.LVL34:
 1238              		mov	r1, r0
 1239              	.LVL35:
 1240              		mov	r3, #-2147483648
 1241 0594 0221A0E3 		add	lr, r3, #512
 1242 0598 022C82E2 	.LVL36:
 1243 059c 1430D2E5 	.L80:
 1244 05a0 023083E3 	.LBE757:
 1245              	.LBE756:
 1246              	.LBB758:
 1247              	.LBB759:
 1248              		.loc 1 172 0
 1249              		ldrb	r3, [lr, #20]	@ zero_extendqisi2
 1250 05a4 1430C2E5 	.LBE759:
 1251              	.LBE758:
 1252              		.loc 1 628 0
 1253              		tst	r3, #4
 1254              		.loc 1 630 0
 1255              		orrne	r0, r0, ip
 1256 05a8 1430D2E5 		.loc 1 628 0
 1257 05ac 013083E3 		bne	.L83
 1258              		.loc 1 634 0
 1259              		nop
ARM GAS  C:\DOCUME~1\pstang\LOCALS~1\Temp/cc80aaaa.s 			page 34


 1260              	.L83:
 1261              	.LBB760:
 1262              	.LBB761:
 1263 05b0 1430C2E5 		.loc 1 172 0
 1264              		mov	r2, #-2147483648
 1265              		add	r2, r2, #512
 1266              		ldrb	r3, [r2, #20]	@ zero_extendqisi2
 1267              		orr	r3, r3, #1
 1268              	.LBE761:
 1269 05b4 1430D2E5 	.LBE760:
 1270 05b8 FE3003E2 	.LBB762:
 1271              	.LBB763:
 1272              		.loc 1 144 0
 1273              		strb	r3, [r2, #20]
 1274              	.LBE763:
 1275              	.LBE762:
 1276 05bc 1430C2E5 	.LBB764:
 1277              	.LBB765:
 1278              		.loc 1 172 0
 1279              		ldrb	r3, [r2, #20]	@ zero_extendqisi2
 1280              		and	r3, r3, #254
 1281              	.LBE765:
 1282 05c0 1430D2E5 	.LBE764:
 1283 05c4 013083E3 	.LBB766:
 1284              	.LBB767:
 1285              		.loc 1 144 0
 1286              		strb	r3, [r2, #20]
 1287              	.LBE767:
 1288              	.LBE766:
 1289 05c8 1430C2E5 		.loc 1 626 0
 1290              		add	r3, r1, #1
 1291              		and	r1, r3, #255
 1292              		cmp	r1, #16
 1293              		ldreq	pc, [sp], #4
 1294              		.loc 1 638 0
 1295 05cc 1430D2E5 		mov	ip, ip, lsr #1
 1296 05d0 FE3003E2 		b	.L80
 1297              	.LFE21:
 1298              		.size	ax88796ReadMii, .-ax88796ReadMii
 1299              		.section	.rodata.str1.4,"aMS",%progbits,1
 1300              		.align	2
 1301              	.LC0:
 1302 05d4 1430C2E5 		.ascii	"----- AX88796 PHY INFO -----\015\012\000"
 1303 05d8 02C9A0E3 		.align	2
 1304              	.LC1:
 1305 05dc 0000A0E3 		.ascii	"MR 0 (Control)      = 0x\000"
 1306              		.align	2
 1307 05e0 0010A0E1 	.LC2:
 1308              		.ascii	"MR 1 (Status)       = 0x\000"
 1309 05e4 0231A0E3 		.align	2
 1310 05e8 02EC83E2 	.LC3:
 1311              		.ascii	"MR 2 (PHY ID1)      = 0x\000"
 1312              		.align	2
 1313              	.LC4:
 1314              		.ascii	"MR 3 (PHY ID2)      = 0x\000"
 1315              		.align	2
 1316              	.LC5:
ARM GAS  C:\DOCUME~1\pstang\LOCALS~1\Temp/cc80aaaa.s 			page 35


 1317              		.ascii	"MR 4 (AutoNeg Adv)  = 0x\000"
 1318 05ec 1430DEE5 		.align	2
 1319              	.LC6:
 1320              		.ascii	"MR 5 (AutoNeg Abil) = 0x\000"
 619:c:\code\arm\armlib/net\ax88796.c **** 	}
 620:c:\code\arm\armlib/net\ax88796.c ****    			
 621:c:\code\arm\armlib/net\ax88796.c **** 	set_mdir;
 622:c:\code\arm\armlib/net\ax88796.c **** 	mii_r_ta;
 623:c:\code\arm\armlib/net\ax88796.c ****  
 624:c:\code\arm\armlib/net\ax88796.c **** 	mask16 = 0x8000;
 625:c:\code\arm\armlib/net\ax88796.c **** 	result16 = 0x0000;
 626:c:\code\arm\armlib/net\ax88796.c **** 	for(i=0;i<16;++i)
 627:c:\code\arm\armlib/net\ax88796.c **** 	{
 628:c:\code\arm\armlib/net\ax88796.c **** 		if(ax88796Read(MEMR) & 0x04)
 1321              	NextPg Tx)    = 0x\000"
 1322 05f0 040013E3 		.align	2
 629:c:\code\arm\armlib/net\ax88796.c **** 		{
 630:c:\code\arm\armlib/net\ax88796.c **** 			result16 |= mask16;
 1323              	C9:
 1324 05f4 0C008011 		.ascii	"MR16 (PCS Ctrl)     = 0x\000"
 1325              		.align	2
 1326 05f8 0000001A 	.LC10:
 631:c:\code\arm\armlib/net\ax88796.c **** 		}
 632:c:\code\arm\armlib/net\ax88796.c **** 		else
 633:c:\code\arm\armlib/net\ax88796.c **** 		{
 634:c:\code\arm\armlib/net\ax88796.c **** 			asm volatile ("nop");
 1327              	cii	"MR17 (AutoNeg RegA) = 0x\000"
 1328 05fc 0000A0E1 		.align	2
 1329              	.LC11:
 1330              		.ascii	"MR18 (AutoNeg RegB) = 0x\000"
 1331              		.align	2
 1332              	.LC12:
 1333 0600 0221A0E3 		.ascii	"MR19 (Analog Test)  = 0x\000"
 1334 0604 022C82E2 		.align	2
 1335 0608 1430D2E5 	.LC13:
 1336 060c 013083E3 		.ascii	"MR21 (RXERR count)  = 0x\000"
 1337              		.align	2
 1338              	.LC14:
 1339              		.ascii	"MR28 (Status Reg)   = 0x\000"
 1340              		.align	2
 1341              	.LC15:
 1342 0610 1430C2E5 		.ascii	"MR29 (100Mbs Ctrl)  = 0x\000"
 1343              		.align	2
 1344              	.LC16:
 1345              		.ascii	"MR30 (10Mbs Ctrl)   = 0x\000"
 1346              		.align	2
 1347              	.LC17:
 1348 0614 1430D2E5 		.ascii	"MR31 (Quick Status) = 0x\000"
 1349 0618 FE3003E2 		.text
 1350              		.align	2
 1351              		.global	ax88796PhyDump
 1352              		.type	ax88796PhyDump, %function
 1353              	ax88796PhyDump:
 1354              	.LFB23:
 1355 061c 1430C2E5 		.loc 1 707 0
 1356              		@ args = 0, pretend = 0, frame = 0
 1357              		@ frame_needed = 0, uses_anonymous_args = 0
ARM GAS  C:\DOCUME~1\pstang\LOCALS~1\Temp/cc80aaaa.s 			page 36


 1358              		str	lr, [sp, #-4]!
 1359 0620 013081E2 	.LCFI5:
 1360 0624 FF1003E2 		.loc 1 708 0
 1361 0628 100051E3 		ldr	r0, .L89
 1362 062c 04F09D04 		bl	rprintfStr
 635:c:\code\arm\armlib/net\ax88796.c **** 			//break;
 636:c:\code\arm\armlib/net\ax88796.c **** 		}
 637:c:\code\arm\armlib/net\ax88796.c **** 		mii_clk;
 638:c:\code\arm\armlib/net\ax88796.c **** 		mask16 >>= 1;
 1363              	rintfStr
 1364 0630 ACC0A0E1 		mov	r0, #16
 1365 0634 ECFFFFEA 		mov	r1, #0
 1366              		bl	ax88796ReadMii
 1367              		mov	r0, r0, asl #16
 1368              		mov	r0, r0, lsr #16
 1369              		bl	rprintfu16
 1370              		bl	rprintfCRLF
 1371 0000 2D2D2D2D 		.loc 1 710 0
 1371      2D204158 
 1371      38383739 
 1371      36205048 
 1371      5920494E 
 1372 001f 00       		ldr	r0, .L89+8
 1373              		bl	rprintfStr
 1374 0020 4D522030 		mov	r0, #16
 1374      2028436F 
 1374      6E74726F 
 1374      6C292020 
 1374      20202020 
 1375 0039 000000   		mov	r1, #1
 1376              		bl	ax88796ReadMii
 1377 003c 4D522031 		mov	r0, r0, asl #16
 1377      20285374 
 1377      61747573 
 1377      29202020 
 1377      20202020 
 1378 0055 000000   		mov	r0, r0, lsr #16
 1379              		bl	rprintfu16
 1380 0058 4D522032 		bl	rprintfCRLF
 1380      20285048 
 1380      59204944 
 1380      31292020 
 1380      20202020 
 1381 0071 000000   		.loc 1 711 0
 1382              		ldr	r0, .L89+12
 1383 0074 4D522033 		bl	rprintfStr
 1383      20285048 
 1383      59204944 
 1383      32292020 
 1383      20202020 
 1384 008d 000000   		mov	r0, #16
 1385              		mov	r1, #2
 1386 0090 4D522034 		bl	ax88796ReadMii
 1386      20284175 
 1386      746F4E65 
 1386      67204164 
 1386      76292020 
ARM GAS  C:\DOCUME~1\pstang\LOCALS~1\Temp/cc80aaaa.s 			page 37


 1387 00a9 000000   		mov	r0, r0, asl #16
 1388              		mov	r0, r0, lsr #16
 1389 00ac 4D522035 		bl	rprintfu16
 1389      20284175 
 1389      746F4E65 
 1389      67204162 
 1389      696C2920 
 1390 00c5 000000   		bl	rprintfCRLF
 1391              		.loc 1 712 0
 1392 00c8 4D522036 		ldr	r0, .L89+16
 1392      20284175 
 1392      746F4E65 
 1392      67204578 
 1392      70292020 
 1393 00e1 000000   		bl	rprintfStr
 1394              		mov	r0, #16
 1395 00e4 4D522037 		mov	r1, #3
 1395      20284E65 
 1395      78745067 
 1395      20547829 
 1395      20202020 
 1396 00fd 000000   		bl	ax88796ReadMii
 1397              		mov	r0, r0, asl #16
 1398 0100 4D523136 		mov	r0, r0, lsr #16
 1398      20285043 
 1398      53204374 
 1398      726C2920 
 1398      20202020 
 1399 0119 000000   		bl	rprintfu16
 1400              		bl	rprintfCRLF
 1401 011c 4D523137 		.loc 1 713 0
 1401      20284175 
 1401      746F4E65 
 1401      67205265 
 1401      67412920 
 1402 0135 000000   		ldr	r0, .L89+20
 1403              		bl	rprintfStr
 1404 0138 4D523138 		mov	r0, #16
 1404      20284175 
 1404      746F4E65 
 1404      67205265 
 1404      67422920 
 1405 0151 000000   		mov	r1, #4
 1406              		bl	ax88796ReadMii
 1407 0154 4D523139 		mov	r0, r0, asl #16
 1407      2028416E 
 1407      616C6F67 
 1407      20546573 
 1407      74292020 
 1408 016d 000000   		mov	r0, r0, lsr #16
 1409              		bl	rprintfu16
 1410 0170 4D523231 		bl	rprintfCRLF
 1410      20285258 
 1410      45525220 
 1410      636F756E 
 1410      74292020 
 1411 0189 000000   		.loc 1 714 0
ARM GAS  C:\DOCUME~1\pstang\LOCALS~1\Temp/cc80aaaa.s 			page 38


 1412              		ldr	r0, .L89+24
 1413 018c 4D523238 		bl	rprintfStr
 1413      20285374 
 1413      61747573 
 1413      20526567 
 1413      29202020 
 1414 01a5 000000   		mov	r0, #16
 1415              		mov	r1, #5
 1416 01a8 4D523239 		bl	ax88796ReadMii
 1416      20283130 
 1416      304D6273 
 1416      20437472 
 1416      6C292020 
 1417 01c1 000000   		mov	r0, r0, asl #16
 1418              		mov	r0, r0, lsr #16
 1419 01c4 4D523330 		bl	rprintfu16
 1419      20283130 
 1419      4D627320 
 1419      4374726C 
 1419      29202020 
 1420 01dd 000000   		bl	rprintfCRLF
 1421              		.loc 1 715 0
 1422 01e0 4D523331 		ldr	r0, .L89+28
 1422      20285175 
 1422      69636B20 
 1422      53746174 
 1422      75732920 
 1423              		bl	rprintfStr
 1424              		mov	r0, #16
 1425              		mov	r1, #6
 1426              		bl	ax88796ReadMii
 1427              		mov	r0, r0, asl #16
 1428              		mov	r0, r0, lsr #16
 639:c:\code\arm\armlib/net\ax88796.c **** 	}
 640:c:\code\arm\armlib/net\ax88796.c **** 	return result16;
 641:c:\code\arm\armlib/net\ax88796.c **** }
 642:c:\code\arm\armlib/net\ax88796.c **** 
 643:c:\code\arm\armlib/net\ax88796.c **** 
 644:c:\code\arm\armlib/net\ax88796.c **** void ax88796RegDump(void)
 645:c:\code\arm\armlib/net\ax88796.c **** {
 646:c:\code\arm\armlib/net\ax88796.c **** 	unsigned char result;
 647:c:\code\arm\armlib/net\ax88796.c **** 	result = ax88796Read(TR);
 648:c:\code\arm\armlib/net\ax88796.c **** 	
 649:c:\code\arm\armlib/net\ax88796.c **** 	rprintf("Media State: ");
 650:c:\code\arm\armlib/net\ax88796.c **** 	if(!(result & AUTOD))
 651:c:\code\arm\armlib/net\ax88796.c ****    		rprintf("Autonegotiation\r\n");
 652:c:\code\arm\armlib/net\ax88796.c **** 	else if(result & RST_B)
 653:c:\code\arm\armlib/net\ax88796.c ****    		rprintf("PHY in Reset   \r\n");
 654:c:\code\arm\armlib/net\ax88796.c **** 	else if(!(result & RST_10B))
 655:c:\code\arm\armlib/net\ax88796.c **** 		rprintf("10BASE-T       \r\n");
 656:c:\code\arm\armlib/net\ax88796.c **** 	else if(!(result & RST_TXB))
 657:c:\code\arm\armlib/net\ax88796.c **** 		rprintf("100BASE-T      \r\n");
 658:c:\code\arm\armlib/net\ax88796.c **** 				
 659:c:\code\arm\armlib/net\ax88796.c **** 	//rprintf("TR regsiter      : %x\r\n",result);
 660:c:\code\arm\armlib/net\ax88796.c **** 	//result = read_mii(0x10,0);
 661:c:\code\arm\armlib/net\ax88796.c **** 	//rprintf("MII regsiter 0x10: %x\r\n",result);
 662:c:\code\arm\armlib/net\ax88796.c **** 
ARM GAS  C:\DOCUME~1\pstang\LOCALS~1\Temp/cc80aaaa.s 			page 39


 663:c:\code\arm\armlib/net\ax88796.c **** 	rprintfProgStrM("Page0: CR  BNRY PSR PST ISR TSR RSR MMR TR  GPI\r\n");
 664:c:\code\arm\armlib/net\ax88796.c **** 	rprintfProgStrM("       ");
 665:c:\code\arm\armlib/net\ax88796.c **** 	rprintfu08(ax88796Read(CR));
 666:c:\code\arm\armlib/net\ax88796.c **** 	rprintfProgStrM("  ");
 667:c:\code\arm\armlib/net\ax88796.c **** 	rprintfu08(ax88796Read(BNRY));
 668:c:\code\arm\armlib/net\ax88796.c **** 	rprintfProgStrM("   ");
 669:c:\code\arm\armlib/net\ax88796.c **** 	rprintfu08(ax88796Read(PSTART));
 670:c:\code\arm\armlib/net\ax88796.c **** 	rprintfProgStrM("  ");
 671:c:\code\arm\armlib/net\ax88796.c **** 	rprintfu08(ax88796Read(PSTOP));
 672:c:\code\arm\armlib/net\ax88796.c **** 	rprintfProgStrM("  ");
 673:c:\code\arm\armlib/net\ax88796.c **** 	rprintfu08(ax88796Read(ISR));
 674:c:\code\arm\armlib/net\ax88796.c **** 	rprintfProgStrM("  ");
 675:c:\code\arm\armlib/net\ax88796.c **** 	rprintfu08(ax88796Read(TSR));
 676:c:\code\arm\armlib/net\ax88796.c **** 	rprintfProgStrM("  ");
 677:c:\code\arm\armlib/net\ax88796.c **** 	rprintfu08(ax88796Read(RSR));
 678:c:\code\arm\armlib/net\ax88796.c **** 	rprintfProgStrM("  ");
 679:c:\code\arm\armlib/net\ax88796.c **** 	rprintfu08(ax88796Read(MEMR));
 680:c:\code\arm\armlib/net\ax88796.c **** 	rprintfProgStrM("  ");
 681:c:\code\arm\armlib/net\ax88796.c **** 	rprintfu08(ax88796Read(TR));
 682:c:\code\arm\armlib/net\ax88796.c **** 	rprintfProgStrM("  ");
 683:c:\code\arm\armlib/net\ax88796.c **** 	rprintfu08(ax88796Read(GPI));
 684:c:\code\arm\armlib/net\ax88796.c **** 	rprintfCRLF();
 685:c:\code\arm\armlib/net\ax88796.c **** 
 686:c:\code\arm\armlib/net\ax88796.c **** 	ax88796Write(CR,ax88796Read(CR)|PS0);
 687:c:\code\arm\armlib/net\ax88796.c **** 
 688:c:\code\arm\armlib/net\ax88796.c **** 	rprintf("Page1: CR  PAR    CPR\r\n");
 689:c:\code\arm\armlib/net\ax88796.c **** 	rprintfProgStrM("       ");
 690:c:\code\arm\armlib/net\ax88796.c **** 	rprintfu08(ax88796Read(CR));
 691:c:\code\arm\armlib/net\ax88796.c **** 	rprintfProgStrM("  ");
 692:c:\code\arm\armlib/net\ax88796.c **** 	rprintfChar(ax88796Read(PAR0));
 693:c:\code\arm\armlib/net\ax88796.c **** 	rprintfChar(ax88796Read(PAR1));
 694:c:\code\arm\armlib/net\ax88796.c **** 	rprintfChar(ax88796Read(PAR2));
 695:c:\code\arm\armlib/net\ax88796.c **** 	rprintfChar(ax88796Read(PAR3));
 696:c:\code\arm\armlib/net\ax88796.c **** 	rprintfChar(ax88796Read(PAR4));
 697:c:\code\arm\armlib/net\ax88796.c **** 	rprintfChar(ax88796Read(PAR5));
 698:c:\code\arm\armlib/net\ax88796.c **** 	rprintfProgStrM(" ");
 699:c:\code\arm\armlib/net\ax88796.c **** 	rprintfu08(ax88796Read(CPR));
 700:c:\code\arm\armlib/net\ax88796.c **** 	
 701:c:\code\arm\armlib/net\ax88796.c **** 	ax88796Write(CR,ax88796Read(CR)&~PS0);
 702:c:\code\arm\armlib/net\ax88796.c **** 
 703:c:\code\arm\armlib/net\ax88796.c **** 	delay_ms(25);
 704:c:\code\arm\armlib/net\ax88796.c **** }
 705:c:\code\arm\armlib/net\ax88796.c **** 
 706:c:\code\arm\armlib/net\ax88796.c **** void ax88796PhyDump(void)
 707:c:\code\arm\armlib/net\ax88796.c **** {
 1429              	rprintfStr
 1430              		mov	r0, #16
 1431              		mov	r1, #7
 1432 0638 04E02DE5 		bl	ax88796ReadMii
 1433              		mov	r0, r0, asl #16
 708:c:\code\arm\armlib/net\ax88796.c **** 	rprintfProgStrM("----- AX88796 PHY INFO -----\r\n");
 1434              	r0, r0, lsr #16
 1435 063c 68029FE5 		bl	rprintfu16
 1436 0640 FEFFFFEB 		bl	rprintfCRLF
 709:c:\code\arm\armlib/net\ax88796.c **** 	rprintfProgStrM("MR 0 (Control)      = 0x"); rprintfu16( ax88796ReadMii(0x10, 0) ); rprintfCRLF();
 1437              	oc 1 717 0
 1438 0644 64029FE5 		ldr	r0, .L89+36
ARM GAS  C:\DOCUME~1\pstang\LOCALS~1\Temp/cc80aaaa.s 			page 40


 1439 0648 FEFFFFEB 		bl	rprintfStr
 1440 064c 1000A0E3 		mov	r0, #16
 1441 0650 0010A0E3 		mov	r1, r0
 1442 0654 FEFFFFEB 		bl	ax88796ReadMii
 1443 0658 0008A0E1 		mov	r0, r0, asl #16
 1444 065c 2008A0E1 		mov	r0, r0, lsr #16
 1445 0660 FEFFFFEB 		bl	rprintfu16
 1446 0664 FEFFFFEB 		bl	rprintfCRLF
 710:c:\code\arm\armlib/net\ax88796.c **** 	rprintfProgStrM("MR 1 (Status)       = 0x"); rprintfu16( ax88796ReadMii(0x10, 1) ); rprintfCRLF();
 1447              	8 0
 1448 0668 44029FE5 		ldr	r0, .L89+40
 1449 066c FEFFFFEB 		bl	rprintfStr
 1450 0670 1000A0E3 		mov	r0, #16
 1451 0674 0110A0E3 		mov	r1, #17
 1452 0678 FEFFFFEB 		bl	ax88796ReadMii
 1453 067c 0008A0E1 		mov	r0, r0, asl #16
 1454 0680 2008A0E1 		mov	r0, r0, lsr #16
 1455 0684 FEFFFFEB 		bl	rprintfu16
 1456 0688 FEFFFFEB 		bl	rprintfCRLF
 711:c:\code\arm\armlib/net\ax88796.c **** 	rprintfProgStrM("MR 2 (PHY ID1)      = 0x"); rprintfu16( ax88796ReadMii(0x10, 2) ); rprintfCRLF();
 1457              	9 0
 1458 068c 24029FE5 		ldr	r0, .L89+44
 1459 0690 FEFFFFEB 		bl	rprintfStr
 1460 0694 1000A0E3 		mov	r0, #16
 1461 0698 0210A0E3 		mov	r1, #18
 1462 069c FEFFFFEB 		bl	ax88796ReadMii
 1463 06a0 0008A0E1 		mov	r0, r0, asl #16
 1464 06a4 2008A0E1 		mov	r0, r0, lsr #16
 1465 06a8 FEFFFFEB 		bl	rprintfu16
 1466 06ac FEFFFFEB 		bl	rprintfCRLF
 712:c:\code\arm\armlib/net\ax88796.c **** 	rprintfProgStrM("MR 3 (PHY ID2)      = 0x"); rprintfu16( ax88796ReadMii(0x10, 3) ); rprintfCRLF();
 1467              	0 0
 1468 06b0 04029FE5 		ldr	r0, .L89+48
 1469 06b4 FEFFFFEB 		bl	rprintfStr
 1470 06b8 1000A0E3 		mov	r0, #16
 1471 06bc 0310A0E3 		mov	r1, #19
 1472 06c0 FEFFFFEB 		bl	ax88796ReadMii
 1473 06c4 0008A0E1 		mov	r0, r0, asl #16
 1474 06c8 2008A0E1 		mov	r0, r0, lsr #16
 1475 06cc FEFFFFEB 		bl	rprintfu16
 1476 06d0 FEFFFFEB 		bl	rprintfCRLF
 713:c:\code\arm\armlib/net\ax88796.c **** 	rprintfProgStrM("MR 4 (AutoNeg Adv)  = 0x"); rprintfu16( ax88796ReadMii(0x10, 4) ); rprintfCRLF();
 1477              	1 0
 1478 06d4 E4019FE5 		ldr	r0, .L89+52
 1479 06d8 FEFFFFEB 		bl	rprintfStr
 1480 06dc 1000A0E3 		mov	r0, #16
 1481 06e0 0410A0E3 		mov	r1, #21
 1482 06e4 FEFFFFEB 		bl	ax88796ReadMii
 1483 06e8 0008A0E1 		mov	r0, r0, asl #16
 1484 06ec 2008A0E1 		mov	r0, r0, lsr #16
 1485 06f0 FEFFFFEB 		bl	rprintfu16
 1486 06f4 FEFFFFEB 		bl	rprintfCRLF
 714:c:\code\arm\armlib/net\ax88796.c **** 	rprintfProgStrM("MR 5 (AutoNeg Abil) = 0x"); rprintfu16( ax88796ReadMii(0x10, 5) ); rprintfCRLF();
 1487              	2 0
 1488 06f8 C4019FE5 		ldr	r0, .L89+56
 1489 06fc FEFFFFEB 		bl	rprintfStr
 1490 0700 1000A0E3 		mov	r0, #16
ARM GAS  C:\DOCUME~1\pstang\LOCALS~1\Temp/cc80aaaa.s 			page 41


 1491 0704 0510A0E3 		mov	r1, #28
 1492 0708 FEFFFFEB 		bl	ax88796ReadMii
 1493 070c 0008A0E1 		mov	r0, r0, asl #16
 1494 0710 2008A0E1 		mov	r0, r0, lsr #16
 1495 0714 FEFFFFEB 		bl	rprintfu16
 1496 0718 FEFFFFEB 		bl	rprintfCRLF
 715:c:\code\arm\armlib/net\ax88796.c **** 	rprintfProgStrM("MR 6 (AutoNeg Exp)  = 0x"); rprintfu16( ax88796ReadMii(0x10, 6) ); rprintfCRLF();
 1497              	3 0
 1498 071c A4019FE5 		ldr	r0, .L89+60
 1499 0720 FEFFFFEB 		bl	rprintfStr
 1500 0724 1000A0E3 		mov	r0, #16
 1501 0728 0610A0E3 		mov	r1, #29
 1502 072c FEFFFFEB 		bl	ax88796ReadMii
 1503 0730 0008A0E1 		mov	r0, r0, asl #16
 1504 0734 2008A0E1 		mov	r0, r0, lsr #16
 1505 0738 FEFFFFEB 		bl	rprintfu16
 1506 073c FEFFFFEB 		bl	rprintfCRLF
 716:c:\code\arm\armlib/net\ax88796.c **** 	rprintfProgStrM("MR 7 (NextPg Tx)    = 0x"); rprintfu16( ax88796ReadMii(0x10, 7) ); rprintfCRLF();
 1507              	4 0
 1508 0740 84019FE5 		ldr	r0, .L89+64
 1509 0744 FEFFFFEB 		bl	rprintfStr
 1510 0748 1000A0E3 		mov	r0, #16
 1511 074c 0710A0E3 		mov	r1, #30
 1512 0750 FEFFFFEB 		bl	ax88796ReadMii
 1513 0754 0008A0E1 		mov	r0, r0, asl #16
 1514 0758 2008A0E1 		mov	r0, r0, lsr #16
 1515 075c FEFFFFEB 		bl	rprintfu16
 1516 0760 FEFFFFEB 		bl	rprintfCRLF
 717:c:\code\arm\armlib/net\ax88796.c **** 	rprintfProgStrM("MR16 (PCS Ctrl)     = 0x"); rprintfu16( ax88796ReadMii(0x10,16) ); rprintfCRLF();
 1517              	5 0
 1518 0764 64019FE5 		ldr	r0, .L89+68
 1519 0768 FEFFFFEB 		bl	rprintfStr
 1520 076c 1000A0E3 		mov	r0, #16
 1521 0770 0010A0E1 		mov	r1, #31
 1522 0774 FEFFFFEB 		bl	ax88796ReadMii
 1523 0778 0008A0E1 		mov	r0, r0, asl #16
 1524 077c 2008A0E1 		mov	r0, r0, lsr #16
 1525 0780 FEFFFFEB 		bl	rprintfu16
 1526 0784 FEFFFFEB 		bl	rprintfCRLF
 718:c:\code\arm\armlib/net\ax88796.c **** 	rprintfProgStrM("MR17 (AutoNeg RegA) = 0x"); rprintfu16( ax88796ReadMii(0x10,17) ); rprintfCRLF();
 1527              	6 0
 1528 0788 44019FE5 		ldr	pc, [sp], #4
 1529 078c FEFFFFEB 	.L90:
 1530 0790 1000A0E3 		.align	2
 1531 0794 1110A0E3 	.L89:
 1532 0798 FEFFFFEB 		.word	.LC0
 1533 079c 0008A0E1 		.word	.LC1
 1534 07a0 2008A0E1 		.word	.LC2
 1535 07a4 FEFFFFEB 		.word	.LC3
 1536 07a8 FEFFFFEB 		.word	.LC4
 719:c:\code\arm\armlib/net\ax88796.c **** 	rprintfProgStrM("MR18 (AutoNeg RegB) = 0x"); rprintfu16( ax88796ReadMii(0x10,18) ); rprintfCRLF();
 1537              	5
 1538 07ac 24019FE5 		.word	.LC6
 1539 07b0 FEFFFFEB 		.word	.LC7
 1540 07b4 1000A0E3 		.word	.LC8
 1541 07b8 1210A0E3 		.word	.LC9
 1542 07bc FEFFFFEB 		.word	.LC10
ARM GAS  C:\DOCUME~1\pstang\LOCALS~1\Temp/cc80aaaa.s 			page 42


 1543 07c0 0008A0E1 		.word	.LC11
 1544 07c4 2008A0E1 		.word	.LC12
 1545 07c8 FEFFFFEB 		.word	.LC13
 1546 07cc FEFFFFEB 		.word	.LC14
 720:c:\code\arm\armlib/net\ax88796.c **** 	rprintfProgStrM("MR19 (Analog Test)  = 0x"); rprintfu16( ax88796ReadMii(0x10,19) ); rprintfCRLF();
 1547              	15
 1548 07d0 04019FE5 		.word	.LC16
 1549 07d4 FEFFFFEB 		.word	.LC17
 1550 07d8 1000A0E3 	.LFE23:
 1551 07dc 1310A0E3 		.size	ax88796PhyDump, .-ax88796PhyDump
 1552 07e0 FEFFFFEB 		.section	.rodata.str1.4
 1553 07e4 0008A0E1 		.align	2
 1554 07e8 2008A0E1 	.LC18:
 1555 07ec FEFFFFEB 		.ascii	"Media State: \000"
 1556 07f0 FEFFFFEB 		.align	2
 721:c:\code\arm\armlib/net\ax88796.c **** 	rprintfProgStrM("MR21 (RXERR count)  = 0x"); rprintfu16( ax88796ReadMii(0x10,21) ); rprintfCRLF();
 1557              	scii	"Autonegotiation\015\012\000"
 1558 07f4 E4009FE5 		.align	2
 1559 07f8 FEFFFFEB 	.LC20:
 1560 07fc 1000A0E3 		.ascii	"PHY in Reset   \015\012\000"
 1561 0800 1510A0E3 		.align	2
 1562 0804 FEFFFFEB 	.LC21:
 1563 0808 0008A0E1 		.ascii	"10BASE-T       \015\012\000"
 1564 080c 2008A0E1 		.align	2
 1565 0810 FEFFFFEB 	.LC22:
 1566 0814 FEFFFFEB 		.ascii	"100BASE-T      \015\012\000"
 722:c:\code\arm\armlib/net\ax88796.c **** 	rprintfProgStrM("MR28 (Status Reg)   = 0x"); rprintfu16( ax88796ReadMii(0x10,28) ); rprintfCRLF();
 1567              	.LC23:
 1568 0818 C4009FE5 		.ascii	"Page0: CR  BNRY PSR PST ISR TSR RSR MMR TR  GPI\015"
 1569 081c FEFFFFEB 		.ascii	"\012\000"
 1570 0820 1000A0E3 		.align	2
 1571 0824 1C10A0E3 	.LC24:
 1572 0828 FEFFFFEB 		.ascii	"       \000"
 1573 082c 0008A0E1 		.align	2
 1574 0830 2008A0E1 	.LC25:
 1575 0834 FEFFFFEB 		.ascii	"  \000"
 1576 0838 FEFFFFEB 		.align	2
 723:c:\code\arm\armlib/net\ax88796.c **** 	rprintfProgStrM("MR29 (100Mbs Ctrl)  = 0x"); rprintfu16( ax88796ReadMii(0x10,29) ); rprintfCRLF();
 1577              	scii	"   \000"
 1578 083c A4009FE5 		.align	2
 1579 0840 FEFFFFEB 	.LC27:
 1580 0844 1000A0E3 		.ascii	"Page1: CR  PAR    CPR\015\012\000"
 1581 0848 1D10A0E3 		.align	2
 1582 084c FEFFFFEB 	.LC28:
 1583 0850 0008A0E1 		.ascii	" \000"
 1584 0854 2008A0E1 		.text
 1585 0858 FEFFFFEB 		.align	2
 1586 085c FEFFFFEB 		.global	ax88796RegDump
 724:c:\code\arm\armlib/net\ax88796.c **** 	rprintfProgStrM("MR30 (10Mbs Ctrl)   = 0x"); rprintfu16( ax88796ReadMii(0x10,30) ); rprintfCRLF();
 1587              	8796RegDump, %function
 1588 0860 84009FE5 	ax88796RegDump:
 1589 0864 FEFFFFEB 	.LFB22:
 1590 0868 1000A0E3 		.loc 1 645 0
 1591 086c 1E10A0E3 		@ args = 0, pretend = 0, frame = 0
 1592 0870 FEFFFFEB 		@ frame_needed = 0, uses_anonymous_args = 0
 1593 0874 0008A0E1 		stmfd	sp!, {r4, r5, r6, r7, lr}
 1594 0878 2008A0E1 	.LCFI6:
ARM GAS  C:\DOCUME~1\pstang\LOCALS~1\Temp/cc80aaaa.s 			page 43


 1595 087c FEFFFFEB 	.LBB768:
 1596 0880 FEFFFFEB 	.LBB769:
 725:c:\code\arm\armlib/net\ax88796.c **** 	rprintfProgStrM("MR31 (Quick Status) = 0x"); rprintfu16( ax88796ReadMii(0x10,31) ); rprintfCRLF();
 1597              	2 0
 1598 0884 64009FE5 		mov	r3, #-2147483648
 1599 0888 FEFFFFEB 		ldrb	r4, [r3, #533]	@ zero_extendqisi2
 1600 088c 1000A0E3 	.LBE769:
 1601 0890 1F10A0E3 	.LBE768:
 1602 0894 FEFFFFEB 		.loc 1 649 0
 1603 0898 0008A0E1 		mov	r0, #0
 1604 089c 2008A0E1 		ldr	r1, .L101
 1605 08a0 FEFFFFEB 		bl	rprintf1RamRom
 1606 08a4 FEFFFFEB 		.loc 1 650 0
 726:c:\code\arm\armlib/net\ax88796.c **** }
 1607              	4, #255
 1608 08a8 04F09DE4 		ands	r0, r4, #1
 1609              		bne	.L92
 1610              		.loc 1 651 0
 1611              		ldr	r1, .L101+4
 1612 08ac 00000000 		bl	rprintf1RamRom
 1613 08b0 20000000 		b	.L94
 1614 08b4 3C000000 	.L92:
 1615 08b8 58000000 		.loc 1 652 0
 1616 08bc 74000000 		tst	r3, #2
 1617 08c0 90000000 		beq	.L95
 1618 08c4 AC000000 		.loc 1 653 0
 1619 08c8 C8000000 		mov	r0, #0
 1620 08cc E4000000 		ldr	r1, .L101+8
 1621 08d0 00010000 		bl	rprintf1RamRom
 1622 08d4 1C010000 		b	.L94
 1623 08d8 38010000 	.L95:
 1624 08dc 54010000 		.loc 1 654 0
 1625 08e0 70010000 		ands	r0, r3, #4
 1626 08e4 8C010000 		bne	.L97
 1627 08e8 A8010000 		.loc 1 655 0
 1628 08ec C4010000 		ldr	r1, .L101+12
 1629 08f0 E0010000 		bl	rprintf1RamRom
 1630              		b	.L94
 1631              	.L97:
 1632              		.loc 1 656 0
 1633 01f9 000000   		ands	r0, r3, #8
 1634              		.loc 1 657 0
 1635 01fc 4D656469 		ldreq	r1, .L101+16
 1635      61205374 
 1635      6174653A 
 1635      2000
 1636 020a 0000     		bleq	rprintf1RamRom
 1637              	.L94:
 1638 020c 4175746F 		.loc 1 663 0
 1638      6E65676F 
 1638      74696174 
 1638      696F6E0D 
 1638      0A00
 1639 021e 0000     		ldr	r0, .L101+20
 1640              		bl	rprintfStr
 1641 0220 50485920 		.loc 1 664 0
 1641      696E2052 
ARM GAS  C:\DOCUME~1\pstang\LOCALS~1\Temp/cc80aaaa.s 			page 44


 1641      65736574 
 1641      2020200D 
 1641      0A00
 1642 0232 0000     		ldr	r7, .L101+24
 1643              		mov	r0, r7
 1644 0234 31304241 		bl	rprintfStr
 1644      53452D54 
 1644      20202020 
 1644      2020200D 
 1644      0A00
 1645 0246 0000     	.LBB770:
 1646              	.LBB771:
 1647 0248 31303042 		.loc 1 172 0
 1647      4153452D 
 1647      54202020 
 1647      2020200D 
 1647      0A00
 1648 025a 0000     		mov	r5, #-2147483648
 1649              		add	r6, r5, #512
 1650 025c 50616765 		ldrb	r0, [r6, #0]	@ zero_extendqisi2
 1650      303A2043 
 1650      52202042 
 1650      4E525920 
 1650      50535220 
 1651 028c 0A00     	.LBE771:
 1652 028e 0000     	.LBE770:
 1653              		.loc 1 665 0
 1654 0290 20202020 		bl	rprintfu08
 1654      20202000 
 1655              		.loc 1 666 0
 1656              		ldr	r4, .L101+28
 1657 0298 202000   		mov	r0, r4
 1658 029b 00       		bl	rprintfStr
 1659              	.LBB772:
 1660 029c 20202000 	.LBB773:
 1661              		.loc 1 172 0
 1662              		ldrb	r0, [r5, #515]	@ zero_extendqisi2
 1663 02a0 50616765 	.LBE773:
 1663      313A2043 
 1663      52202050 
 1663      41522020 
 1663      20204350 
 1664              	.LBE772:
 1665              		.loc 1 667 0
 1666 02b8 2000     		bl	rprintfu08
 1667 02ba 0000     		.loc 1 668 0
 1668              		ldr	r0, .L101+32
 1669              		bl	rprintfStr
 1670              	.LBB774:
 1671              	.LBB775:
 1672              		.loc 1 172 0
 1673              		ldrb	r0, [r5, #513]	@ zero_extendqisi2
 1674              	.LBE775:
 1675              	.LBE774:
 1676 08f4 F0402DE9 		.loc 1 669 0
 1677              		bl	rprintfu08
 1678              		.loc 1 670 0
ARM GAS  C:\DOCUME~1\pstang\LOCALS~1\Temp/cc80aaaa.s 			page 45


 1679              		mov	r0, r4
 1680              		bl	rprintfStr
 1681 08f8 0231A0E3 	.LBB776:
 1682 08fc 1542D3E5 	.LBB777:
 1683              		.loc 1 172 0
 1684              		ldrb	r0, [r5, #514]	@ zero_extendqisi2
 1685              	.LBE777:
 1686 0900 0000A0E3 	.LBE776:
 1687 0904 94119FE5 		.loc 1 671 0
 1688 0908 FEFFFFEB 		bl	rprintfu08
 1689              		.loc 1 672 0
 1690 090c FF3004E2 		mov	r0, r4
 1691 0910 010014E2 		bl	rprintfStr
 1692 0914 0200001A 	.LBB778:
 1693              	.LBB779:
 1694 0918 84119FE5 		.loc 1 172 0
 1695 091c FEFFFFEB 		ldrb	r0, [r5, #519]	@ zero_extendqisi2
 1696 0920 0D0000EA 	.LBE779:
 1697              	.LBE778:
 1698              		.loc 1 673 0
 1699 0924 020013E3 		bl	rprintfu08
 1700 0928 0300000A 		.loc 1 674 0
 1701              		mov	r0, r4
 1702 092c 0000A0E3 		bl	rprintfStr
 1703 0930 70119FE5 	.LBB780:
 1704 0934 FEFFFFEB 	.LBB781:
 1705 0938 070000EA 		.loc 1 172 0
 1706              		ldrb	r0, [r6, #4]	@ zero_extendqisi2
 1707              	.LBE781:
 1708 093c 040013E2 	.LBE780:
 1709 0940 0200001A 		.loc 1 675 0
 1710              		bl	rprintfu08
 1711 0944 60119FE5 		.loc 1 676 0
 1712 0948 FEFFFFEB 		mov	r0, r4
 1713 094c 020000EA 		bl	rprintfStr
 1714              	.LBB782:
 1715              	.LBB783:
 1716 0950 080013E2 		.loc 1 172 0
 1717              		ldrb	r0, [r6, #12]	@ zero_extendqisi2
 1718 0954 54119F05 	.LBE783:
 1719 0958 FEFFFF0B 	.LBE782:
 1720              		.loc 1 677 0
 1721              		bl	rprintfu08
 1722 095c 50019FE5 		.loc 1 678 0
 1723 0960 FEFFFFEB 		mov	r0, r4
 1724              		bl	rprintfStr
 1725 0964 4C719FE5 	.LBB784:
 1726 0968 0700A0E1 	.LBB785:
 1727 096c FEFFFFEB 		.loc 1 172 0
 1728              		ldrb	r0, [r6, #20]	@ zero_extendqisi2
 1729              	.LBE785:
 1730              	.LBE784:
 1731 0970 0251A0E3 		.loc 1 679 0
 1732 0974 026C85E2 		bl	rprintfu08
 1733 0978 0000D6E5 		.loc 1 680 0
 1734              		mov	r0, r4
 1735              		bl	rprintfStr
ARM GAS  C:\DOCUME~1\pstang\LOCALS~1\Temp/cc80aaaa.s 			page 46


 1736              	.LBB786:
 1737 097c FEFFFFEB 	.LBB787:
 1738              		.loc 1 172 0
 1739 0980 34419FE5 		ldrb	r0, [r5, #533]	@ zero_extendqisi2
 1740 0984 0400A0E1 	.LBE787:
 1741 0988 FEFFFFEB 	.LBE786:
 1742              		.loc 1 681 0
 1743              		bl	rprintfu08
 1744              		.loc 1 682 0
 1745 098c 0302D5E5 		mov	r0, r4
 1746              		bl	rprintfStr
 1747              	.LBB788:
 1748              	.LBB789:
 1749 0990 FEFFFFEB 		.loc 1 172 0
 1750              		ldrb	r0, [r5, #535]	@ zero_extendqisi2
 1751 0994 24019FE5 	.LBE789:
 1752 0998 FEFFFFEB 	.LBE788:
 1753              		.loc 1 683 0
 1754              		bl	rprintfu08
 1755              		.loc 1 684 0
 1756 099c 0102D5E5 		bl	rprintfCRLF
 1757              	.LBB790:
 1758              	.LBB791:
 1759              		.loc 1 172 0
 1760 09a0 FEFFFFEB 		ldrb	r3, [r6, #0]	@ zero_extendqisi2
 1761              		orr	r3, r3, #64
 1762 09a4 0400A0E1 	.LBE791:
 1763 09a8 FEFFFFEB 	.LBE790:
 1764              	.LBB792:
 1765              	.LBB793:
 1766              		.loc 1 144 0
 1767 09ac 0202D5E5 		strb	r3, [r6, #0]
 1768              	.LBE793:
 1769              	.LBE792:
 1770              		.loc 1 688 0
 1771 09b0 FEFFFFEB 		mov	r0, #0
 1772              		ldr	r1, .L101+36
 1773 09b4 0400A0E1 		bl	rprintf1RamRom
 1774 09b8 FEFFFFEB 		.loc 1 689 0
 1775              		mov	r0, r7
 1776              		bl	rprintfStr
 1777              	.LBB794:
 1778 09bc 0702D5E5 	.LBB795:
 1779              		.loc 1 172 0
 1780              		ldrb	r0, [r6, #0]	@ zero_extendqisi2
 1781              	.LBE795:
 1782 09c0 FEFFFFEB 	.LBE794:
 1783              		.loc 1 690 0
 1784 09c4 0400A0E1 		bl	rprintfu08
 1785 09c8 FEFFFFEB 		.loc 1 691 0
 1786              		mov	r0, r4
 1787              		bl	rprintfStr
 1788              	.LBB796:
 1789 09cc 0400D6E5 	.LBB797:
 1790              		.loc 1 172 0
 1791              		ldrb	r0, [r5, #513]	@ zero_extendqisi2
 1792              	.LBE797:
ARM GAS  C:\DOCUME~1\pstang\LOCALS~1\Temp/cc80aaaa.s 			page 47


 1793 09d0 FEFFFFEB 	.LBE796:
 1794              		.loc 1 692 0
 1795 09d4 0400A0E1 		bl	rprintfChar
 1796 09d8 FEFFFFEB 	.LBB798:
 1797              	.LBB799:
 1798              		.loc 1 172 0
 1799              		ldrb	r0, [r5, #514]	@ zero_extendqisi2
 1800 09dc 0C00D6E5 	.LBE799:
 1801              	.LBE798:
 1802              		.loc 1 693 0
 1803              		bl	rprintfChar
 1804 09e0 FEFFFFEB 	.LBB800:
 1805              	.LBB801:
 1806 09e4 0400A0E1 		.loc 1 172 0
 1807 09e8 FEFFFFEB 		ldrb	r0, [r5, #515]	@ zero_extendqisi2
 1808              	.LBE801:
 1809              	.LBE800:
 1810              		.loc 1 694 0
 1811 09ec 1400D6E5 		bl	rprintfChar
 1812              	.LBB802:
 1813              	.LBB803:
 1814              		.loc 1 172 0
 1815 09f0 FEFFFFEB 		ldrb	r0, [r6, #4]	@ zero_extendqisi2
 1816              	.LBE803:
 1817 09f4 0400A0E1 	.LBE802:
 1818 09f8 FEFFFFEB 		.loc 1 695 0
 1819              		bl	rprintfChar
 1820              	.LBB804:
 1821              	.LBB805:
 1822 09fc 1502D5E5 		.loc 1 172 0
 1823              		ldrb	r0, [r5, #517]	@ zero_extendqisi2
 1824              	.LBE805:
 1825              	.LBE804:
 1826 0a00 FEFFFFEB 		.loc 1 696 0
 1827              		bl	rprintfChar
 1828 0a04 0400A0E1 	.LBB806:
 1829 0a08 FEFFFFEB 	.LBB807:
 1830              		.loc 1 172 0
 1831              		ldrb	r0, [r5, #518]	@ zero_extendqisi2
 1832              	.LBE807:
 1833 0a0c 1702D5E5 	.LBE806:
 1834              		.loc 1 697 0
 1835              		bl	rprintfChar
 1836              		.loc 1 698 0
 1837 0a10 FEFFFFEB 		ldr	r0, .L101+40
 1838              		bl	rprintfStr
 1839 0a14 FEFFFFEB 	.LBB808:
 1840              	.LBB809:
 1841              		.loc 1 172 0
 1842              		ldrb	r0, [r5, #519]	@ zero_extendqisi2
 1843 0a18 0030D6E5 	.LBE809:
 1844 0a1c 403083E3 	.LBE808:
 1845              		.loc 1 699 0
 1846              		bl	rprintfu08
 1847              	.LBB810:
 1848              	.LBB811:
 1849              		.loc 1 172 0
ARM GAS  C:\DOCUME~1\pstang\LOCALS~1\Temp/cc80aaaa.s 			page 48


 1850 0a20 0030C6E5 		ldrb	r3, [r6, #0]	@ zero_extendqisi2
 1851              		and	r3, r3, #191
 1852              	.LBE811:
 1853              	.LBE810:
 1854 0a24 0000A0E3 	.LBB812:
 1855 0a28 94109FE5 	.LBB813:
 1856 0a2c FEFFFFEB 		.loc 1 144 0
 1857              		strb	r3, [r6, #0]
 1858 0a30 0700A0E1 	.LBE813:
 1859 0a34 FEFFFFEB 	.LBE812:
 1860              		.loc 1 703 0
 1861              		mov	r0, #25
 1862              		bl	timerPause
 1863 0a38 0000D6E5 		.loc 1 704 0
 1864              		ldmfd	sp!, {r4, r5, r6, r7, pc}
 1865              	.L102:
 1866              		.align	2
 1867 0a3c FEFFFFEB 	.L101:
 1868              		.word	.LC18
 1869 0a40 0400A0E1 		.word	.LC19
 1870 0a44 FEFFFFEB 		.word	.LC20
 1871              		.word	.LC21
 1872              		.word	.LC22
 1873              		.word	.LC23
 1874 0a48 0102D5E5 		.word	.LC24
 1875              		.word	.LC25
 1876              		.word	.LC26
 1877              		.word	.LC27
 1878 0a4c FEFFFFEB 		.word	.LC28
 1879              	.LFE22:
 1880              		.size	ax88796RegDump, .-ax88796RegDump
 1881              		.align	2
 1882 0a50 0202D5E5 		.global	nicRegDump
 1883              		.type	nicRegDump, %function
 1884              	nicRegDump:
 1885              	.LFB7:
 1886 0a54 FEFFFFEB 		.loc 1 107 0
 1887              		@ args = 0, pretend = 0, frame = 0
 1888              		@ frame_needed = 0, uses_anonymous_args = 0
 1889              		str	lr, [sp, #-4]!
 1890 0a58 0302D5E5 	.LCFI7:
 1891              		.loc 1 108 0
 1892              		bl	ax88796RegDump
 1893              		.loc 1 109 0
 1894 0a5c FEFFFFEB 		ldr	pc, [sp], #4
 1895              	.LFE7:
 1896              		.size	nicRegDump, .-nicRegDump
 1897              		.align	2
 1898 0a60 0400D6E5 		.global	ax88796ReceiveOverflowRecover
 1899              		.type	ax88796ReceiveOverflowRecover, %function
 1900              	ax88796ReceiveOverflowRecover:
 1901              	.LFB19:
 1902 0a64 FEFFFFEB 		.loc 1 472 0
 1903              		@ args = 0, pretend = 0, frame = 0
 1904              		@ frame_needed = 0, uses_anonymous_args = 0
 1905              		stmfd	sp!, {r4, r5, lr}
 1906 0a68 0502D5E5 	.LCFI8:
ARM GAS  C:\DOCUME~1\pstang\LOCALS~1\Temp/cc80aaaa.s 			page 49


 1907              	.LBB814:
 1908              	.LBB815:
 1909              		.loc 1 172 0
 1910 0a6c FEFFFFEB 		mov	r5, #-2147483648
 1911              		add	r2, r5, #512
 1912              		ldrb	r4, [r2, #0]	@ zero_extendqisi2
 1913              	.LBE815:
 1914 0a70 0602D5E5 	.LBE814:
 1915              	.LBB816:
 1916              	.LBB817:
 1917              		.loc 1 144 0
 1918 0a74 FEFFFFEB 		mov	r3, #33
 1919              		strb	r3, [r2, #0]
 1920 0a78 48009FE5 	.LBE817:
 1921 0a7c FEFFFFEB 	.LBE816:
 1922              		.loc 1 484 0
 1923              		mov	r0, #2
 1924              		bl	timerPause
 1925 0a80 0702D5E5 	.LBB818:
 1926              	.LBB819:
 1927              		.loc 1 144 0
 1928              		mov	r3, #0
 1929 0a84 FEFFFFEB 		strb	r3, [r5, #522]
 1930              	.LBE819:
 1931              	.LBE818:
 1932              	.LBB820:
 1933 0a88 0030D6E5 	.LBB821:
 1934 0a8c BF3003E2 		strb	r3, [r5, #523]
 1935              	.LBE821:
 1936              	.LBE820:
 1937              		.loc 1 490 0
 1938              		tst	r4, #4
 1939              		beq	.L106
 1940 0a90 0030C6E5 	.LBB822:
 1941              	.LBB823:
 1942              		.loc 1 172 0
 1943              		ldrb	r3, [r5, #519]	@ zero_extendqisi2
 1944 0a94 1900A0E3 	.LBE823:
 1945 0a98 FEFFFFEB 	.LBE822:
 1946              		.loc 1 494 0
 1947 0a9c F080BDE8 		tst	r3, #6
 1948              		beq	.L108
 1949              	.L106:
 1950              	.LBB824:
 1951 0aa0 FC010000 	.LBB825:
 1952 0aa4 0C020000 		.loc 1 144 0
 1953 0aa8 20020000 		mov	r2, #-2147483648
 1954 0aac 34020000 		add	r1, r2, #512
 1955 0ab0 48020000 		mov	r3, #2
 1956 0ab4 5C020000 		strb	r3, [r2, #525]
 1957 0ab8 90020000 	.LBE825:
 1958 0abc 98020000 	.LBE824:
 1959 0ac0 9C020000 	.LBB826:
 1960 0ac4 A0020000 	.LBB827:
 1961 0ac8 B8020000 		mov	r0, #34
 1962              		strb	r0, [r1, #0]
 1963              	.LBE827:
ARM GAS  C:\DOCUME~1\pstang\LOCALS~1\Temp/cc80aaaa.s 			page 50


 1964              	.LBE826:
 1965              	.LBB828:
 1966              	.LBB829:
 1967              		add	r3, r3, #68
 1968              		strb	r3, [r2, #515]
 1969              	.LBE829:
 1970              	.LBE828:
 1971              	.LBB830:
 1972 0acc 04E02DE5 	.LBB831:
 1973              		add	r3, r3, #28
 1974              		strb	r3, [r1, #0]
 1975 0ad0 FEFFFFEB 	.LBE831:
 1976              	.LBE830:
 1977 0ad4 04F09DE4 	.LBB832:
 1978              	.LBB833:
 1979              		sub	r3, r3, #27
 1980              		strb	r3, [r2, #519]
 1981              	.LBE833:
 1982              	.LBE832:
 1983              	.LBB834:
 1984              	.LBB835:
 1985              		strb	r0, [r1, #0]
 1986              	.LBE835:
 1987              	.LBE834:
 1988 0ad8 30402DE9 	.LBB836:
 1989              	.LBB837:
 1990              		sub	r3, r3, #55
 1991              		strb	r3, [r2, #519]
 1992              	.LBE837:
 1993 0adc 0251A0E3 	.LBE836:
 1994 0ae0 022C85E2 	.LBB838:
 1995 0ae4 0040D2E5 	.LBB839:
 1996              		sub	r3, r3, #16
 1997              		strb	r3, [r2, #525]
 1998              		ldmfd	sp!, {r4, r5, pc}
 1999              	.L108:
 2000              	.LBE839:
 2001 0ae8 2130A0E3 	.LBE838:
 2002 0aec 0030C2E5 	.LBB840:
 2003              	.LBB841:
 2004              		mov	r2, #-2147483648
 2005              		add	r1, r2, #512
 2006 0af0 0200A0E3 		mov	r3, #2
 2007 0af4 FEFFFFEB 		strb	r3, [r2, #525]
 2008              	.LBE841:
 2009              	.LBE840:
 2010              	.LBB842:
 2011 0af8 0030A0E3 	.LBB843:
 2012 0afc 0A32C5E5 		mov	r0, #34
 2013              		strb	r0, [r1, #0]
 2014              	.LBE843:
 2015              	.LBE842:
 2016              	.LBB844:
 2017 0b00 0B32C5E5 	.LBB845:
 2018              		add	r3, r3, #68
 2019              		strb	r3, [r2, #515]
 2020              	.LBE845:
ARM GAS  C:\DOCUME~1\pstang\LOCALS~1\Temp/cc80aaaa.s 			page 51


 2021 0b04 040014E3 	.LBE844:
 2022 0b08 0200000A 	.LBB846:
 2023              	.LBB847:
 2024              		add	r3, r3, #28
 2025              		strb	r3, [r1, #0]
 2026 0b0c 0732D5E5 	.LBE847:
 2027              	.LBE846:
 2028              	.LBB848:
 2029              	.LBB849:
 2030 0b10 060013E3 		sub	r3, r3, #27
 2031 0b14 1100000A 		strb	r3, [r2, #519]
 2032              	.LBE849:
 2033              	.LBE848:
 2034              	.LBB850:
 2035              	.LBB851:
 2036 0b18 0221A0E3 		strb	r0, [r1, #0]
 2037 0b1c 021C82E2 	.LBE851:
 2038 0b20 0230A0E3 	.LBE850:
 2039 0b24 0D32C2E5 	.LBB852:
 2040              	.LBB853:
 2041              		sub	r3, r3, #55
 2042              		strb	r3, [r2, #519]
 2043              	.LBE853:
 2044 0b28 2200A0E3 	.LBE852:
 2045 0b2c 0000C1E5 	.LBB854:
 2046              	.LBB855:
 2047              		sub	r3, r3, #16
 2048              		strb	r3, [r2, #525]
 2049              	.LBE855:
 2050 0b30 443083E2 	.LBE854:
 2051 0b34 0332C2E5 	.LBB856:
 2052              	.LBB857:
 2053              		add	r3, r3, #38
 2054              		strb	r3, [r1, #0]
 2055              		ldmfd	sp!, {r4, r5, pc}
 2056 0b38 1C3083E2 	.LBE857:
 2057 0b3c 0030C1E5 	.LBE856:
 2058              	.LFE19:
 2059              		.size	ax88796ReceiveOverflowRecover, .-ax88796ReceiveOverflowRecover
 2060              		.align	2
 2061              		.global	ax88796ProcessInterrupt
 2062 0b40 1B3043E2 		.type	ax88796ProcessInterrupt, %function
 2063 0b44 0732C2E5 	ax88796ProcessInterrupt:
 2064              	.LFB18:
 2065              		.loc 1 462 0
 2066              		@ args = 0, pretend = 0, frame = 0
 2067              		@ frame_needed = 0, uses_anonymous_args = 0
 2068 0b48 0000C1E5 		str	lr, [sp, #-4]!
 2069              	.LCFI9:
 2070              	.LBB858:
 2071              	.LBB859:
 2072              		.loc 1 172 0
 2073 0b4c 373043E2 		mov	r3, #-2147483648
 2074 0b50 0732C2E5 		ldrb	r3, [r3, #519]	@ zero_extendqisi2
 2075              	.LBE859:
 2076              	.LBE858:
 2077              		.loc 1 466 0
ARM GAS  C:\DOCUME~1\pstang\LOCALS~1\Temp/cc80aaaa.s 			page 52


 2078              		tst	r3, #16
 2079 0b54 103043E2 		ldreq	pc, [sp], #4
 2080 0b58 0D32C2E5 		.loc 1 467 0
 2081 0b5c 3080BDE8 		bl	ax88796ReceiveOverflowRecover
 2082              		ldr	pc, [sp], #4
 2083              	.LFE18:
 2084              		.size	ax88796ProcessInterrupt, .-ax88796ProcessInterrupt
 2085              		.align	2
 2086              		.global	ax88796BeginPacketRetreive
 2087 0b60 0221A0E3 		.type	ax88796BeginPacketRetreive, %function
 2088 0b64 021C82E2 	ax88796BeginPacketRetreive:
 2089 0b68 0230A0E3 	.LFB15:
 2090 0b6c 0D32C2E5 		.loc 1 336 0
 2091              		@ args = 0, pretend = 0, frame = 4
 2092              		@ frame_needed = 0, uses_anonymous_args = 0
 2093              		str	lr, [sp, #-4]!
 2094              	.LCFI10:
 2095 0b70 2200A0E3 		sub	sp, sp, #4
 2096 0b74 0000C1E5 	.LCFI11:
 2097              		.loc 1 346 0
 2098              		bl	ax88796ProcessInterrupt
 2099              	.LBB860:
 2100              	.LBB861:
 2101 0b78 443083E2 		.loc 1 144 0
 2102 0b7c 0332C2E5 		mov	r2, #-2147483648
 2103              		add	r1, r2, #512
 2104              		mov	r3, #98
 2105              		strb	r3, [r1, #0]
 2106              	.LBE861:
 2107 0b80 1C3083E2 	.LBE860:
 2108 0b84 0030C1E5 	.LBB862:
 2109              	.LBB863:
 2110              		.loc 1 172 0
 2111              		ldrb	r0, [r2, #519]	@ zero_extendqisi2
 2112              	.LBE863:
 2113 0b88 1B3043E2 	.LBE862:
 2114 0b8c 0732C2E5 	.LBB864:
 2115              	.LBB865:
 2116              		.loc 1 144 0
 2117              		sub	r3, r3, #64
 2118              		strb	r3, [r1, #0]
 2119 0b90 0000C1E5 	.LBE865:
 2120              	.LBE864:
 2121              	.LBB866:
 2122              	.LBB867:
 2123              		.loc 1 172 0
 2124 0b94 373043E2 		ldrb	r3, [r2, #515]	@ zero_extendqisi2
 2125 0b98 0732C2E5 	.LBE867:
 2126              	.LBE866:
 2127              		.loc 1 353 0
 2128              		and	r2, r3, #255
 2129              	.LVL37:
 2130 0b9c 103043E2 		.loc 1 356 0
 2131 0ba0 0D32C2E5 		add	r3, r2, #1
 2132              		and	ip, r3, #255
 2133              	.LVL38:
 2134              		.loc 1 357 0
ARM GAS  C:\DOCUME~1\pstang\LOCALS~1\Temp/cc80aaaa.s 			page 53


 2135              		cmp	ip, #95
 2136 0ba4 263083E2 		movhi	ip, #70
 2137 0ba8 0030C1E5 		.loc 1 360 0
 2138 0bac 3080BDE8 		cmp	r0, ip
 2139              		beq	.L118
 2140              	.LBB868:
 2141              	.LBB869:
 2142              		.loc 1 144 0
 2143              		sub	r1, r1, #512
 2144              		add	r0, r1, #512
 2145              		mov	r3, #1
 2146              		strb	r3, [r1, #519]
 2147              	.LBE869:
 2148              	.LBE868:
 2149              		.loc 1 370 0
 2150              		sub	r3, r2, #70
 2151 0bb0 04E02DE5 		cmp	r3, #25
 2152              		bls	.L120
 2153              	.LBB870:
 2154              	.LBB871:
 2155              		.loc 1 144 0
 2156 0bb4 0231A0E3 		mov	r3, #70
 2157 0bb8 0732D3E5 		strb	r3, [r1, #515]
 2158              	.LBE871:
 2159              	.LBE870:
 2160              	.LBB872:
 2161 0bbc 100013E3 	.LBB873:
 2162 0bc0 04F09D04 		add	r3, r3, #28
 2163              		strb	r3, [r0, #0]
 2164 0bc4 FEFFFFEB 	.LBE873:
 2165 0bc8 04F09DE4 	.LBE872:
 2166              	.LBB874:
 2167              	.LBB875:
 2168              		sub	r3, r3, #27
 2169              		strb	r3, [r1, #519]
 2170              	.LBE875:
 2171              	.LBE874:
 2172              	.LBB876:
 2173              	.LBB877:
 2174              		sub	r3, r3, #37
 2175              		strb	r3, [r0, #0]
 2176 0bcc 04E02DE5 		mov	r0, #0
 2177              		b	.L122
 2178 0bd0 04D04DE2 	.L120:
 2179              	.LBE877:
 2180              	.LBE876:
 2181 0bd4 FEFFFFEB 	.LBB878:
 2182              	.LBB879:
 2183              		mov	r1, #-2147483648
 2184              		add	r2, r1, #512
 2185 0bd8 0221A0E3 	.LVL39:
 2186 0bdc 021C82E2 		mov	r3, #4
 2187 0be0 6230A0E3 		strb	r3, [r1, #522]
 2188 0be4 0030C1E5 	.LBE879:
 2189              	.LBE878:
 2190              	.LBB880:
 2191              	.LBB881:
ARM GAS  C:\DOCUME~1\pstang\LOCALS~1\Temp/cc80aaaa.s 			page 54


 2192              		mov	r0, #0
 2193              		strb	r0, [r1, #523]
 2194 0be8 0702D2E5 	.LBE881:
 2195              	.LBE880:
 2196              	.LBB882:
 2197              	.LBB883:
 2198              		strb	r0, [r2, #8]
 2199              	.LBE883:
 2200 0bec 403043E2 	.LBE882:
 2201 0bf0 0030C1E5 		.loc 1 385 0
 2202              		mov	lr, ip
 2203              	.LVL40:
 2204              		and	r3, ip, #255
 2205              	.LVL41:
 2206              	.LBB884:
 2207 0bf4 0332D2E5 	.LBB885:
 2208              		.loc 1 144 0
 2209              		strb	r3, [r1, #521]
 2210              	.LBE885:
 2211 0bf8 FF2003E2 	.LBE884:
 2212              	.LBB886:
 2213              	.LBB887:
 2214 0bfc 013082E2 		mov	r3, #10
 2215 0c00 FFC003E2 	.LVL42:
 2216              		strb	r3, [r2, #0]
 2217              	.LBE887:
 2218 0c04 5F005CE3 	.LBE886:
 2219 0c08 46C0A083 	.LBB888:
 2220              	.LBB889:
 2221 0c0c 0C0050E1 		.loc 1 172 0
 2222 0c10 3F00000A 		ldrb	r3, [r2, #16]	@ zero_extendqisi2
 2223              	.LBE889:
 2224              	.LBE888:
 2225              		.loc 1 388 0
 2226 0c14 021C41E2 		strb	r3, [sp, #0]
 2227 0c18 020C81E2 	.LBB890:
 2228 0c1c 0130A0E3 	.LBB891:
 2229 0c20 0732C1E5 		.loc 1 172 0
 2230              		ldrb	r3, [r2, #16]	@ zero_extendqisi2
 2231              	.LBE891:
 2232              	.LBE890:
 2233 0c24 463042E2 		.loc 1 388 0
 2234 0c28 190053E3 		strb	r3, [sp, #1]
 2235 0c2c 0900009A 	.LBB892:
 2236              	.LBB893:
 2237              		.loc 1 172 0
 2238              		ldrb	r3, [r2, #16]	@ zero_extendqisi2
 2239 0c30 4630A0E3 	.LBE893:
 2240 0c34 0332C1E5 	.LBE892:
 2241              		.loc 1 388 0
 2242              		strb	r3, [sp, #2]
 2243              	.LBB894:
 2244              	.LBB895:
 2245 0c38 1C3083E2 		.loc 1 172 0
 2246 0c3c 0030C0E5 		ldrb	r3, [r2, #16]	@ zero_extendqisi2
 2247              	.LBE895:
 2248              	.LBE894:
ARM GAS  C:\DOCUME~1\pstang\LOCALS~1\Temp/cc80aaaa.s 			page 55


 2249              		.loc 1 388 0
 2250              		and	ip, r3, #255
 2251 0c40 1B3043E2 		strb	ip, [sp, #3]
 2252 0c44 0732C1E5 	.LBB896:
 2253              	.LBB897:
 2254              		.loc 1 144 0
 2255              		mov	r3, #34
 2256              		strb	r3, [r2, #0]
 2257 0c48 253043E2 		mov	r2, r1
 2258 0c4c 0030C0E5 	.LVL43:
 2259 0c50 0000A0E3 	.L123:
 2260 0c54 2F0000EA 	.LBE897:
 2261              	.LBE896:
 2262              	.LBB898:
 2263              	.LBB899:
 2264              		.loc 1 172 0
 2265              		ldrb	r3, [r2, #519]	@ zero_extendqisi2
 2266 0c58 0211A0E3 	.LBE899:
 2267 0c5c 022C81E2 	.LBE898:
 2268              		.loc 1 393 0
 2269 0c60 0430A0E3 		tst	r3, #64
 2270 0c64 0A32C1E5 		bne	.L124
 2271              		.loc 1 392 0
 2272              		add	r3, r0, #1
 2273              		and	r0, r3, #255
 2274              		cmp	r0, #21
 2275 0c68 0000A0E3 		bne	.L123
 2276 0c6c 0B02C1E5 	.L124:
 2277              	.LBB900:
 2278              	.LBB901:
 2279              		.loc 1 144 0
 2280              		mov	r2, #64
 2281 0c70 0800C2E5 		mov	r3, #-2147483648
 2282              		strb	r2, [r3, #519]
 2283              	.LBE901:
 2284              	.LBE900:
 2285 0c74 0CE0A0E1 		.loc 1 397 0
 2286              		ldrb	r0, [sp, #2]	@ zero_extendqisi2
 2287 0c78 FF300CE2 	.LVL44:
 2288              		.loc 1 398 0
 2289              		ldrb	r1, [sp, #1]	@ zero_extendqisi2
 2290              		ldr	r3, .L129
 2291              		strb	r1, [r3, #0]
 2292 0c7c 0932C1E5 		.loc 1 400 0
 2293              		mov	r3, lr, asl #8
 2294              		add	r3, r3, #4
 2295              		ldr	r2, .L129+4
 2296              		str	r3, [r2, #0]
 2297 0c80 0A30A0E3 		.loc 1 403 0
 2298              		sub	r1, r1, #70
 2299 0c84 0030C2E5 		cmp	r1, #25
 2300              		.loc 1 410 0
 2301              		addls	r3, r0, ip, asl #8
 2302              		subls	r0, r3, #4
 2303              		.loc 1 403 0
 2304              		bls	.L122
 2305 0c88 1030D2E5 	.LVL45:
ARM GAS  C:\DOCUME~1\pstang\LOCALS~1\Temp/cc80aaaa.s 			page 56


 2306              	.L118:
 2307              		.loc 1 410 0
 2308              		mov	r0, #0
 2309 0c8c 0030CDE5 	.L122:
 2310              		.loc 1 411 0
 2311              		add	sp, sp, #4
 2312              		ldmfd	sp!, {pc}
 2313 0c90 1030D2E5 	.L130:
 2314              		.align	2
 2315              	.L129:
 2316              		.word	NextPage
 2317 0c94 0130CDE5 		.word	CurrentRetreiveAddress
 2318              	.LFE15:
 2319              		.size	ax88796BeginPacketRetreive, .-ax88796BeginPacketRetreive
 2320              		.align	2
 2321 0c98 1030D2E5 		.global	nicPoll
 2322              		.type	nicPoll, %function
 2323              	nicPoll:
 2324              	.LFB4:
 2325 0c9c 0230CDE5 		.loc 1 49 0
 2326              		@ args = 0, pretend = 0, frame = 0
 2327              		@ frame_needed = 0, uses_anonymous_args = 0
 2328              	.LVL46:
 2329 0ca0 1030D2E5 		stmfd	sp!, {r4, r5, r6, lr}
 2330              	.LCFI12:
 2331              		mov	r5, r0
 2332              		mov	r6, r1
 2333 0ca4 FFC003E2 		.loc 1 52 0
 2334 0ca8 03C0CDE5 		bl	ax88796BeginPacketRetreive
 2335              	.LVL47:
 2336              		.loc 1 55 0
 2337              		subs	r4, r0, #0
 2338 0cac 2230A0E3 	.LVL48:
 2339 0cb0 0030C2E5 		beq	.L132
 2340 0cb4 0120A0E1 		.loc 1 59 0
 2341              		cmp	r4, r5
 2342              		bls	.L134
 2343              		.loc 1 61 0
 2344              		bl	ax88796EndPacketRetreive
 2345              		mov	r4, #0
 2346              		b	.L132
 2347              	.L134:
 2348 0cb8 0732D2E5 		.loc 1 66 0
 2349              		mov	r0, r6
 2350              		mov	r1, r4
 2351              		bl	ax88796RetreivePacketData
 2352 0cbc 400013E3 		.loc 1 67 0
 2353 0cc0 0300001A 		bl	ax88796EndPacketRetreive
 2354              	.L132:
 2355 0cc4 013080E2 		.loc 1 70 0
 2356 0cc8 FF0003E2 		mov	r0, r4
 2357 0ccc 150050E3 		ldmfd	sp!, {r4, r5, r6, pc}
 2358 0cd0 F8FFFF1A 	.LFE4:
 2359              		.size	nicPoll, .-nicPoll
 2360              		.align	2
 2361              		.global	ax88796Init
 2362              		.type	ax88796Init, %function
ARM GAS  C:\DOCUME~1\pstang\LOCALS~1\Temp/cc80aaaa.s 			page 57


 2363 0cd4 4020A0E3 	ax88796Init:
 2364 0cd8 0231A0E3 	.LFB11:
 2365 0cdc 0722C3E5 		.loc 1 198 0
 2366              		@ args = 0, pretend = 0, frame = 0
 2367              		@ frame_needed = 0, uses_anonymous_args = 0
 2368              		stmfd	sp!, {r4, r5, lr}
 2369 0ce0 0200DDE5 	.LCFI13:
 2370              	.LBB902:
 2371              	.LBB903:
 2372 0ce4 0110DDE5 		.loc 1 172 0
 2373 0ce8 30309FE5 		mov	r4, #-2147483648
 2374 0cec 0010C3E5 		ldrb	r3, [r4, #519]	@ zero_extendqisi2
 2375              		and	r3, r3, #255
 2376 0cf0 0E34A0E1 	.LBE903:
 2377 0cf4 043083E2 	.LBE902:
 2378 0cf8 24209FE5 	.LBB904:
 2379 0cfc 003082E5 	.LBB905:
 2380              		.loc 1 144 0
 2381 0d00 461041E2 		strb	r3, [r4, #519]
 2382 0d04 190051E3 	.LBE905:
 2383              	.LBE904:
 2384 0d08 0C348090 		.loc 1 211 0
 2385 0d0c 04004392 		mov	r0, #50
 2386              		bl	timerPause
 2387 0d10 0000009A 	.LBB906:
 2388              	.LBB907:
 2389              		.loc 1 172 0
 2390              		ldrb	r3, [r4, #543]	@ zero_extendqisi2
 2391 0d14 0000A0E3 		mov	r2, r4
 2392              	.L138:
 2393              	.LBE907:
 2394 0d18 04D08DE2 	.LBE906:
 2395 0d1c 0080BDE8 	.LBB908:
 2396              	.LBB909:
 2397              		ldrb	r3, [r2, #533]	@ zero_extendqisi2
 2398              	.LBE909:
 2399 0d20 00000000 	.LBE908:
 2400 0d24 04000000 		.loc 1 215 0
 2401              		tst	r3, #2
 2402              		bne	.L138
 2403              	.LBB910:
 2404              	.LBB911:
 2405              		.loc 1 172 0
 2406              		ldrb	r3, [r2, #533]	@ zero_extendqisi2
 2407              	.LBE911:
 2408              	.LBE910:
 2409              		.loc 1 219 0
 2410              		ands	r4, r3, #1
 2411              		bne	.L140
 2412 0d28 70402DE9 		.loc 1 221 0
 2413              		mov	r0, #16
 2414 0d2c 0050A0E1 		mov	r1, r4
 2415 0d30 0160A0E1 		mov	r2, #2048
 2416              		bl	ax88796WriteMii
 2417 0d34 FEFFFFEB 		.loc 1 222 0
 2418              		mov	r0, #2496
 2419              		add	r0, r0, #4
ARM GAS  C:\DOCUME~1\pstang\LOCALS~1\Temp/cc80aaaa.s 			page 58


 2420 0d38 004050E2 		bl	timerPause
 2421              		.loc 1 223 0
 2422 0d3c 0800000A 		mov	r0, #16
 2423              		mov	r1, r4
 2424 0d40 050054E1 		mov	r2, #4608
 2425 0d44 0200009A 		bl	ax88796WriteMii
 2426              	.L140:
 2427 0d48 FEFFFFEB 	.LBB912:
 2428 0d4c 0040A0E3 	.LBB913:
 2429 0d50 030000EA 		.loc 1 144 0
 2430              		mov	r4, #-2147483648
 2431              		add	r5, r4, #512
 2432 0d54 0600A0E1 		mov	r3, #33
 2433 0d58 0410A0E1 		strb	r3, [r5, #0]
 2434 0d5c FEFFFFEB 	.LBE913:
 2435              	.LBE912:
 2436 0d60 FEFFFFEB 		.loc 1 227 0
 2437              		mov	r0, #5
 2438              		bl	timerPause
 2439 0d64 0400A0E1 	.LBB914:
 2440 0d68 7080BDE8 	.LBB915:
 2441              		.loc 1 144 0
 2442              		mov	r3, #0
 2443              		strb	r3, [r4, #526]
 2444              	.LBE915:
 2445              	.LBE914:
 2446              	.LBB916:
 2447              	.LBB917:
 2448              		strb	r3, [r4, #522]
 2449              	.LBE917:
 2450              	.LBE916:
 2451 0d6c 30402DE9 	.LBB918:
 2452              	.LBB919:
 2453              		strb	r3, [r4, #523]
 2454              	.LBE919:
 2455              	.LBE918:
 2456 0d70 0241A0E3 	.LBB920:
 2457 0d74 0732D4E5 	.LBB921:
 2458 0d78 FF3003E2 		strb	r3, [r4, #527]
 2459              	.LBE921:
 2460              	.LBE920:
 2461              	.LBB922:
 2462              	.LBB923:
 2463              		sub	r3, r3, #1
 2464 0d7c 0732C4E5 		strb	r3, [r4, #519]
 2465              	.LBE923:
 2466              	.LBE922:
 2467              	.LBB924:
 2468 0d80 3200A0E3 	.LBB925:
 2469 0d84 FEFFFFEB 		add	r3, r3, #33
 2470              		strb	r3, [r5, #12]
 2471              	.LBE925:
 2472              	.LBE924:
 2473 0d88 1F32D4E5 	.LBB926:
 2474 0d8c 0420A0E1 	.LBB927:
 2475              		mov	r2, #70
 2476              		strb	r2, [r4, #515]
ARM GAS  C:\DOCUME~1\pstang\LOCALS~1\Temp/cc80aaaa.s 			page 59


 2477              	.LBE927:
 2478              	.LBE926:
 2479              	.LBB928:
 2480 0d90 1532D2E5 	.LBB929:
 2481              		strb	r2, [r4, #513]
 2482              	.LBE929:
 2483              	.LBE928:
 2484 0d94 020013E3 	.LBB930:
 2485 0d98 FCFFFF1A 	.LBB931:
 2486              		add	r3, r3, #64
 2487              		strb	r3, [r4, #514]
 2488              	.LBE931:
 2489 0d9c 1532D2E5 	.LBE930:
 2490              	.LBB932:
 2491              	.LBB933:
 2492              		add	r3, r3, #1
 2493 0da0 014013E2 		strb	r3, [r5, #0]
 2494 0da4 0A00001A 	.LBE933:
 2495              	.LBE932:
 2496 0da8 1000A0E3 	.LBB934:
 2497 0dac 0410A0E1 	.LBB935:
 2498 0db0 022BA0E3 		sub	r3, r3, #49
 2499 0db4 FEFFFFEB 		strb	r3, [r4, #513]
 2500              	.LBE935:
 2501 0db8 270DA0E3 	.LBE934:
 2502 0dbc 040080E2 	.LBB936:
 2503 0dc0 FEFFFFEB 	.LBB937:
 2504              		strb	r2, [r4, #514]
 2505 0dc4 1000A0E3 	.LBE937:
 2506 0dc8 0410A0E1 	.LBE936:
 2507 0dcc 122CA0E3 	.LBB938:
 2508 0dd0 FEFFFFEB 	.LBB939:
 2509              		strb	r2, [r4, #515]
 2510              	.LBE939:
 2511              	.LBE938:
 2512              	.LBB940:
 2513 0dd4 0241A0E3 	.LBB941:
 2514 0dd8 025C84E2 		add	r3, r3, #25
 2515 0ddc 2130A0E3 		strb	r3, [r5, #4]
 2516 0de0 0030C5E5 	.LBE941:
 2517              	.LBE940:
 2518              	.LBB942:
 2519              	.LBB943:
 2520 0de4 0500A0E3 		sub	r3, r3, #6
 2521 0de8 FEFFFFEB 		strb	r3, [r4, #517]
 2522              	.LBE943:
 2523              	.LBE942:
 2524              	.LBB944:
 2525 0dec 0030A0E3 	.LBB945:
 2526 0df0 0E32C4E5 		add	r3, r3, #2
 2527              		strb	r3, [r4, #518]
 2528              	.LBE945:
 2529              	.LBE944:
 2530              	.LBB946:
 2531 0df4 0A32C4E5 	.LBB947:
 2532              		add	r3, r3, #2
 2533              		strb	r3, [r4, #519]
ARM GAS  C:\DOCUME~1\pstang\LOCALS~1\Temp/cc80aaaa.s 			page 60


 2534              	.LBE947:
 2535              	.LBE946:
 2536 0df8 0B32C4E5 	.LBB948:
 2537              	.LBB949:
 2538              		sub	r3, r3, #37
 2539              		strb	r3, [r5, #0]
 2540              	.LBE949:
 2541 0dfc 0F32C4E5 	.LBE948:
 2542              	.LBB950:
 2543              	.LBB951:
 2544              		add	r3, r3, #34
 2545              		strb	r3, [r5, #12]
 2546 0e00 013043E2 	.LBE951:
 2547 0e04 0732C4E5 	.LBE950:
 2548              	.LBB952:
 2549              	.LBB953:
 2550              		.loc 1 172 0
 2551              		ldrb	r3, [r4, #535]	@ zero_extendqisi2
 2552 0e08 213083E2 	.LBE953:
 2553 0e0c 0C30C5E5 	.LBE952:
 2554              		.loc 1 253 0
 2555              		tst	r3, #4
 2556              		movne	r0, #128
 2557              		moveq	r0, #0
 2558 0e10 4620A0E3 	.LVL49:
 2559 0e14 0322C4E5 	.LBB954:
 2560              	.LBB955:
 2561              		.loc 1 144 0
 2562              		add	r1, r4, #512
 2563              		strb	r0, [r4, #525]
 2564 0e18 0122C4E5 	.LBE955:
 2565              	.LBE954:
 2566              	.LBB956:
 2567              	.LBB957:
 2568              		mov	r3, #16
 2569 0e1c 403083E2 		strb	r3, [r4, #535]
 2570 0e20 0232C4E5 	.LBE957:
 2571              	.LBE956:
 2572              	.LBB958:
 2573              	.LBB959:
 2574              		add	r3, r3, #48
 2575 0e24 013083E2 		strb	r3, [r1, #4]
 2576 0e28 0030C5E5 	.LBE959:
 2577              	.LBE958:
 2578              	.LBB960:
 2579              	.LBB961:
 2580              		sub	r3, r3, #31
 2581 0e2c 313043E2 		strb	r3, [r1, #0]
 2582 0e30 0132C4E5 	.LBE961:
 2583              	.LBE960:
 2584              	.LBB962:
 2585              	.LBB963:
 2586              		sub	r3, r3, #33
 2587 0e34 0222C4E5 		strb	r3, [r4, #526]
 2588              	.LBE963:
 2589              	.LBE962:
 2590              	.LBB964:
ARM GAS  C:\DOCUME~1\pstang\LOCALS~1\Temp/cc80aaaa.s 			page 61


 2591              	.LBB965:
 2592 0e38 0322C4E5 		add	r3, r3, #34
 2593              		strb	r3, [r1, #0]
 2594              	.LBE965:
 2595              	.LBE964:
 2596              	.LBB966:
 2597 0e3c 193083E2 	.LBB967:
 2598 0e40 0430C5E5 		sub	r3, r3, #35
 2599              		strb	r3, [r4, #519]
 2600              	.LBE967:
 2601              	.LBE966:
 2602              	.LBB968:
 2603 0e44 063043E2 	.LBB969:
 2604 0e48 0532C4E5 		add	r3, r3, #18
 2605              		strb	r3, [r4, #527]
 2606              	.LBE969:
 2607              	.LBE968:
 2608              	.LBB970:
 2609 0e4c 023083E2 	.LBB971:
 2610 0e50 0632C4E5 		strb	r0, [r4, #525]
 2611              	.LBE971:
 2612              	.LBE970:
 2613              		.loc 1 279 0
 2614              		ldmfd	sp!, {r4, r5, pc}
 2615 0e54 023083E2 	.LFE11:
 2616 0e58 0732C4E5 		.size	ax88796Init, .-ax88796Init
 2617              		.align	2
 2618              		.global	nicInit
 2619              		.type	nicInit, %function
 2620              	nicInit:
 2621 0e5c 253043E2 	.LFB2:
 2622 0e60 0030C5E5 		.loc 1 37 0
 2623              		@ args = 0, pretend = 0, frame = 0
 2624              		@ frame_needed = 0, uses_anonymous_args = 0
 2625              		str	lr, [sp, #-4]!
 2626              	.LCFI14:
 2627 0e64 223083E2 		.loc 1 38 0
 2628 0e68 0C30C5E5 		bl	ax88796Init
 2629              		.loc 1 39 0
 2630              		ldr	pc, [sp], #4
 2631              	.LFE2:
 2632              		.size	nicInit, .-nicInit
 2633              		.align	2
 2634 0e6c 1732D4E5 		.global	nicSetMacAddress
 2635              		.type	nicSetMacAddress, %function
 2636              	nicSetMacAddress:
 2637              	.LFB6:
 2638 0e70 040013E3 		.loc 1 90 0
 2639 0e74 8000A013 		@ args = 0, pretend = 0, frame = 0
 2640 0e78 0000A003 		@ frame_needed = 0, uses_anonymous_args = 0
 2641              	.LVL50:
 2642              		stmfd	sp!, {r4, lr}
 2643              	.LCFI15:
 2644              	.LBB990:
 2645 0e7c 021C84E2 	.LBB991:
 2646 0e80 0D02C4E5 		.loc 1 172 0
 2647              		mov	r1, #-2147483648
ARM GAS  C:\DOCUME~1\pstang\LOCALS~1\Temp/cc80aaaa.s 			page 62


 2648              		add	lr, r1, #512
 2649              		ldrb	ip, [lr, #0]	@ zero_extendqisi2
 2650              		and	ip, ip, #255
 2651 0e84 1030A0E3 	.LBE991:
 2652 0e88 1732C4E5 	.LBE990:
 2653              		.loc 1 93 0
 2654              		orr	r3, ip, #64
 2655              	.LBB992:
 2656              	.LBB993:
 2657 0e8c 303083E2 		.loc 1 144 0
 2658 0e90 0430C1E5 		strb	r3, [lr, #0]
 2659              	.LBE993:
 2660              	.LBE992:
 2661              		.loc 1 96 0
 2662              		mov	r2, r0
 2663 0e94 1F3043E2 	.LVL51:
 2664 0e98 0030C1E5 		ldrb	r3, [r2], #1	@ zero_extendqisi2
 2665              	.LVL52:
 2666              	.LBB994:
 2667              	.LBB995:
 2668              		.loc 1 144 0
 2669 0e9c 213043E2 		strb	r3, [r1, #513]
 2670 0ea0 0E32C4E5 	.LBE995:
 2671              	.LBE994:
 2672              		.loc 1 97 0
 2673              		add	r4, r2, #1
 2674              	.LVL53:
 2675 0ea4 223083E2 		ldrb	r3, [r0, #1]	@ zero_extendqisi2
 2676 0ea8 0030C1E5 	.LVL54:
 2677              	.LBB996:
 2678              	.LBB997:
 2679              		.loc 1 144 0
 2680              		strb	r3, [r1, #514]
 2681 0eac 233043E2 	.LBE997:
 2682 0eb0 0732C4E5 	.LBE996:
 2683              		.loc 1 98 0
 2684              		add	r0, r4, #1
 2685              	.LVL55:
 2686              		ldrb	r3, [r2, #1]	@ zero_extendqisi2
 2687 0eb4 123083E2 	.LVL56:
 2688 0eb8 0F32C4E5 	.LBB998:
 2689              	.LBB999:
 2690              		.loc 1 144 0
 2691              		strb	r3, [r1, #515]
 2692              	.LBE999:
 2693 0ebc 0D02C4E5 	.LBE998:
 2694              		.loc 1 99 0
 2695              		ldrb	r3, [r4, #1]	@ zero_extendqisi2
 2696              	.LVL57:
 2697 0ec0 3080BDE8 	.LBB1000:
 2698              	.LBB1001:
 2699              		.loc 1 144 0
 2700              		strb	r3, [lr, #4]
 2701              	.LBE1001:
 2702              	.LBE1000:
 2703              		.loc 1 100 0
 2704              		ldrb	r3, [r0, #1]	@ zero_extendqisi2
ARM GAS  C:\DOCUME~1\pstang\LOCALS~1\Temp/cc80aaaa.s 			page 63


 2705              	.LVL58:
 2706              	.LBB1002:
 2707              	.LBB1003:
 2708 0ec4 04E02DE5 		.loc 1 144 0
 2709              		strb	r3, [r1, #517]
 2710              	.LBE1003:
 2711 0ec8 FEFFFFEB 	.LBE1002:
 2712              		.loc 1 101 0
 2713 0ecc 04F09DE4 		ldrb	r3, [r0, #2]	@ zero_extendqisi2
 2714              	.LVL59:
 2715              	.LBB1004:
 2716              	.LBB1005:
 2717              		.loc 1 144 0
 2718              		strb	r3, [r1, #518]
 2719              	.LBE1005:
 2720              	.LBE1004:
 2721              	.LBB1006:
 2722              	.LBB1007:
 2723              		strb	ip, [lr, #0]
 2724              	.LBE1007:
 2725 0ed0 10402DE9 	.LBE1006:
 2726              		.loc 1 104 0
 2727              		ldmfd	sp!, {r4, pc}
 2728              	.LFE6:
 2729              		.size	nicSetMacAddress, .-nicSetMacAddress
 2730 0ed4 0211A0E3 		.align	2
 2731 0ed8 02EC81E2 		.global	nicGetMacAddress
 2732 0edc 00C0DEE5 		.type	nicGetMacAddress, %function
 2733 0ee0 FFC00CE2 	nicGetMacAddress:
 2734              	.LFB5:
 2735              		.loc 1 73 0
 2736              		@ args = 0, pretend = 0, frame = 0
 2737 0ee4 40308CE3 		@ frame_needed = 0, uses_anonymous_args = 0
 2738              	.LVL60:
 2739              		str	lr, [sp, #-4]!
 2740              	.LCFI16:
 2741 0ee8 0030CEE5 	.LBB1026:
 2742              	.LBB1027:
 2743              		.loc 1 172 0
 2744              		mov	r1, #-2147483648
 2745 0eec 0020A0E1 		add	lr, r1, #512
 2746              		ldrb	ip, [lr, #0]	@ zero_extendqisi2
 2747 0ef0 0130D2E4 		and	ip, ip, #255
 2748              	.LBE1027:
 2749              	.LBE1026:
 2750              		.loc 1 76 0
 2751              		orr	r3, ip, #64
 2752 0ef4 0132C1E5 	.LBB1028:
 2753              	.LBB1029:
 2754              		.loc 1 144 0
 2755              		strb	r3, [lr, #0]
 2756 0ef8 014082E2 	.LBE1029:
 2757              	.LBE1028:
 2758 0efc 0130D0E5 	.LBB1030:
 2759              	.LBB1031:
 2760              		.loc 1 172 0
 2761              		ldrb	r3, [r1, #513]	@ zero_extendqisi2
ARM GAS  C:\DOCUME~1\pstang\LOCALS~1\Temp/cc80aaaa.s 			page 64


 2762              	.LBE1031:
 2763 0f00 0232C1E5 	.LBE1030:
 2764              		.loc 1 79 0
 2765              		mov	r2, r0
 2766              	.LVL61:
 2767 0f04 010084E2 		strb	r3, [r2], #1
 2768              	.LBB1032:
 2769 0f08 0130D2E5 	.LBB1033:
 2770              		.loc 1 172 0
 2771              		ldrb	r3, [r1, #514]	@ zero_extendqisi2
 2772              	.LBE1033:
 2773              	.LBE1032:
 2774 0f0c 0332C1E5 		.loc 1 80 0
 2775              		strb	r3, [r0, #1]
 2776              		add	r0, r2, #1
 2777              	.LVL62:
 2778 0f10 0130D4E5 	.LBB1034:
 2779              	.LBB1035:
 2780              		.loc 1 172 0
 2781              		ldrb	r3, [r1, #515]	@ zero_extendqisi2
 2782              	.LBE1035:
 2783 0f14 0430CEE5 	.LBE1034:
 2784              		.loc 1 81 0
 2785              		strb	r3, [r2, #1]
 2786              		add	r2, r0, #1
 2787 0f18 0130D0E5 	.LVL63:
 2788              	.LBB1036:
 2789              	.LBB1037:
 2790              		.loc 1 172 0
 2791              		ldrb	r3, [lr, #4]	@ zero_extendqisi2
 2792 0f1c 0532C1E5 	.LBE1037:
 2793              	.LBE1036:
 2794              		.loc 1 82 0
 2795              		strb	r3, [r0, #1]
 2796 0f20 0230D0E5 	.LBB1038:
 2797              	.LBB1039:
 2798              		.loc 1 172 0
 2799              		ldrb	r3, [r1, #517]	@ zero_extendqisi2
 2800              	.LBE1039:
 2801 0f24 0632C1E5 	.LBE1038:
 2802              		.loc 1 83 0
 2803              		strb	r3, [r2, #1]
 2804              	.LBB1040:
 2805              	.LBB1041:
 2806 0f28 00C0CEE5 		.loc 1 172 0
 2807              		ldrb	r3, [r1, #518]	@ zero_extendqisi2
 2808              	.LBE1041:
 2809              	.LBE1040:
 2810 0f2c 1080BDE8 		.loc 1 84 0
 2811              		strb	r3, [r2, #2]
 2812              	.LBB1042:
 2813              	.LBB1043:
 2814              		.loc 1 144 0
 2815              		strb	ip, [lr, #0]
 2816              	.LBE1043:
 2817              	.LBE1042:
 2818              		.loc 1 87 0
ARM GAS  C:\DOCUME~1\pstang\LOCALS~1\Temp/cc80aaaa.s 			page 65


 2819              		ldr	pc, [sp], #4
 2820              	.LFE5:
 2821              		.size	nicGetMacAddress, .-nicGetMacAddress
 2822 0f30 04E02DE5 		.bss
 2823              	NextPage:
 2824              		.space	1
 2825              		.align	2
 2826              	CurrentRetreiveAddress:
 2827 0f34 0211A0E3 		.space	4
 2828 0f38 02EC81E2 		.section	.debug_frame,"",%progbits
 2829 0f3c 00C0DEE5 	.Lframe0:
 2830 0f40 FFC00CE2 		.4byte	.LECIE0-.LSCIE0
 2831              	.LSCIE0:
 2832              		.4byte	0xffffffff
 2833              		.byte	0x1
 2834 0f44 40308CE3 		.ascii	"\000"
 2835              		.uleb128 0x1
 2836              		.sleb128 -4
 2837              		.byte	0xe
 2838 0f48 0030CEE5 		.byte	0xc
 2839              		.uleb128 0xd
 2840              		.uleb128 0x0
 2841              		.align	2
 2842              	.LECIE0:
 2843              	.LSFDE0:
 2844 0f4c 0132D1E5 		.4byte	.LEFDE0-.LASFDE0
 2845              	.LASFDE0:
 2846              		.4byte	.Lframe0
 2847              		.4byte	.LFB8
 2848 0f50 0020A0E1 		.4byte	.LFE8-.LFB8
 2849              		.align	2
 2850 0f54 0130C2E4 	.LEFDE0:
 2851              	.LSFDE2:
 2852              		.4byte	.LEFDE2-.LASFDE2
 2853              	.LASFDE2:
 2854 0f58 0232D1E5 		.4byte	.Lframe0
 2855              		.4byte	.LFB9
 2856              		.4byte	.LFE9-.LFB9
 2857              		.align	2
 2858 0f5c 0130C0E5 	.LEFDE2:
 2859 0f60 010082E2 	.LSFDE4:
 2860              		.4byte	.LEFDE4-.LASFDE4
 2861              	.LASFDE4:
 2862              		.4byte	.Lframe0
 2863              		.4byte	.LFB10
 2864 0f64 0332D1E5 		.4byte	.LFE10-.LFB10
 2865              		.align	2
 2866              	.LEFDE4:
 2867              	.LSFDE6:
 2868 0f68 0130C2E5 		.4byte	.LEFDE6-.LASFDE6
 2869 0f6c 012080E2 	.LASFDE6:
 2870              		.4byte	.Lframe0
 2871              		.4byte	.LFB12
 2872              		.4byte	.LFE12-.LFB12
 2873              		.byte	0x4
 2874 0f70 0430DEE5 		.4byte	.LCFI0-.LFB12
 2875              		.byte	0xe
ARM GAS  C:\DOCUME~1\pstang\LOCALS~1\Temp/cc80aaaa.s 			page 66


 2876              		.uleb128 0x4
 2877              		.byte	0x8e
 2878 0f74 0130C0E5 		.uleb128 0x1
 2879              		.align	2
 2880              	.LEFDE6:
 2881              	.LSFDE8:
 2882 0f78 0532D1E5 		.4byte	.LEFDE8-.LASFDE8
 2883              	.LASFDE8:
 2884              		.4byte	.Lframe0
 2885              		.4byte	.LFB13
 2886 0f7c 0130C2E5 		.4byte	.LFE13-.LFB13
 2887              		.align	2
 2888              	.LEFDE8:
 2889              	.LSFDE10:
 2890 0f80 0632D1E5 		.4byte	.LEFDE10-.LASFDE10
 2891              	.LASFDE10:
 2892              		.4byte	.Lframe0
 2893              		.4byte	.LFB14
 2894 0f84 0230C2E5 		.4byte	.LFE14-.LFB14
 2895              		.align	2
 2896              	.LEFDE10:
 2897              	.LSFDE12:
 2898 0f88 00C0CEE5 		.4byte	.LEFDE12-.LASFDE12
 2899              	.LASFDE12:
 2900              		.4byte	.Lframe0
 2901              		.4byte	.LFB3
 2902 0f8c 04F09DE4 		.4byte	.LFE3-.LFB3
 2903              		.byte	0x4
 2904              		.4byte	.LCFI1-.LFB3
 2905              		.byte	0xe
 2906              		.uleb128 0xc
 2907 0000 00       		.byte	0x8e
 2908 0001 000000   		.uleb128 0x1
 2909              		.byte	0x85
 2910 0004 00000000 		.uleb128 0x2
 2911              		.byte	0x84
 2912              		.uleb128 0x3
 2913 0000 0C000000 		.align	2
 2914              	.LEFDE12:
 2915 0004 FFFFFFFF 	.LSFDE14:
 2916 0008 01       		.4byte	.LEFDE14-.LASFDE14
 2917 0009 00       	.LASFDE14:
 2918 000a 01       		.4byte	.Lframe0
 2919 000b 7C       		.4byte	.LFB16
 2920 000c 0E       		.4byte	.LFE16-.LFB16
 2921 000d 0C       		.byte	0x4
 2922 000e 0D       		.4byte	.LCFI2-.LFB16
 2923 000f 00       		.byte	0xe
 2924              		.uleb128 0x4
 2925              		.byte	0x8e
 2926              		.uleb128 0x1
 2927 0010 0C000000 		.align	2
 2928              	.LEFDE14:
 2929 0014 00000000 	.LSFDE16:
 2930 0018 00000000 		.4byte	.LEFDE16-.LASFDE16
 2931 001c 04000000 	.LASFDE16:
 2932              		.4byte	.Lframe0
ARM GAS  C:\DOCUME~1\pstang\LOCALS~1\Temp/cc80aaaa.s 			page 67


 2933              		.4byte	.LFB17
 2934              		.4byte	.LFE17-.LFB17
 2935 0020 0C000000 		.align	2
 2936              	.LEFDE16:
 2937 0024 00000000 	.LSFDE18:
 2938 0028 04000000 		.4byte	.LEFDE18-.LASFDE18
 2939 002c 18000000 	.LASFDE18:
 2940              		.4byte	.Lframe0
 2941              		.4byte	.LFB20
 2942              		.4byte	.LFE20-.LFB20
 2943 0030 0C000000 		.byte	0x4
 2944              		.4byte	.LCFI3-.LFB20
 2945 0034 00000000 		.byte	0xe
 2946 0038 1C000000 		.uleb128 0x8
 2947 003c 14000000 		.byte	0x8e
 2948              		.uleb128 0x1
 2949              		.byte	0x84
 2950              		.uleb128 0x2
 2951 0040 14000000 		.align	2
 2952              	.LEFDE18:
 2953 0044 00000000 	.LSFDE20:
 2954 0048 30000000 		.4byte	.LEFDE20-.LASFDE20
 2955 004c 80000000 	.LASFDE20:
 2956 0050 44       		.4byte	.Lframe0
 2957              		.4byte	.LFB21
 2958 0051 0E       		.4byte	.LFE21-.LFB21
 2959 0052 04       		.byte	0x4
 2960 0053 8E       		.4byte	.LCFI4-.LFB21
 2961 0054 01       		.byte	0xe
 2962 0055 000000   		.uleb128 0x4
 2963              		.byte	0x8e
 2964              		.uleb128 0x1
 2965 0058 0C000000 		.align	2
 2966              	.LEFDE20:
 2967 005c 00000000 	.LSFDE22:
 2968 0060 B0000000 		.4byte	.LEFDE22-.LASFDE22
 2969 0064 2C000000 	.LASFDE22:
 2970              		.4byte	.Lframe0
 2971              		.4byte	.LFB23
 2972              		.4byte	.LFE23-.LFB23
 2973 0068 0C000000 		.byte	0x4
 2974              		.4byte	.LCFI5-.LFB23
 2975 006c 00000000 		.byte	0xe
 2976 0070 DC000000 		.uleb128 0x4
 2977 0074 1C000000 		.byte	0x8e
 2978              		.uleb128 0x1
 2979              		.align	2
 2980              	.LEFDE22:
 2981 0078 18000000 	.LSFDE24:
 2982              		.4byte	.LEFDE24-.LASFDE24
 2983 007c 00000000 	.LASFDE24:
 2984 0080 F8000000 		.4byte	.Lframe0
 2985 0084 24000000 		.4byte	.LFB22
 2986 0088 44       		.4byte	.LFE22-.LFB22
 2987              		.byte	0x4
 2988 0089 0E       		.4byte	.LCFI6-.LFB22
 2989 008a 0C       		.byte	0xe
ARM GAS  C:\DOCUME~1\pstang\LOCALS~1\Temp/cc80aaaa.s 			page 68


 2990 008b 8E       		.uleb128 0x14
 2991 008c 01       		.byte	0x8e
 2992 008d 85       		.uleb128 0x1
 2993 008e 02       		.byte	0x87
 2994 008f 84       		.uleb128 0x2
 2995 0090 03       		.byte	0x86
 2996 0091 000000   		.uleb128 0x3
 2997              		.byte	0x85
 2998              		.uleb128 0x4
 2999 0094 14000000 		.byte	0x84
 3000              		.uleb128 0x5
 3001 0098 00000000 		.align	2
 3002 009c 1C010000 	.LEFDE24:
 3003 00a0 C4000000 	.LSFDE26:
 3004 00a4 44       		.4byte	.LEFDE26-.LASFDE26
 3005              	.LASFDE26:
 3006 00a5 0E       		.4byte	.Lframe0
 3007 00a6 04       		.4byte	.LFB7
 3008 00a7 8E       		.4byte	.LFE7-.LFB7
 3009 00a8 01       		.byte	0x4
 3010 00a9 000000   		.4byte	.LCFI7-.LFB7
 3011              		.byte	0xe
 3012              		.uleb128 0x4
 3013 00ac 0C000000 		.byte	0x8e
 3014              		.uleb128 0x1
 3015 00b0 00000000 		.align	2
 3016 00b4 E0010000 	.LEFDE26:
 3017 00b8 68000000 	.LSFDE28:
 3018              		.4byte	.LEFDE28-.LASFDE28
 3019              	.LASFDE28:
 3020              		.4byte	.Lframe0
 3021 00bc 14000000 		.4byte	.LFB19
 3022              		.4byte	.LFE19-.LFB19
 3023 00c0 00000000 		.byte	0x4
 3024 00c4 48020000 		.4byte	.LCFI8-.LFB19
 3025 00c8 F4010000 		.byte	0xe
 3026 00cc 44       		.uleb128 0xc
 3027              		.byte	0x8e
 3028 00cd 0E       		.uleb128 0x1
 3029 00ce 08       		.byte	0x85
 3030 00cf 8E       		.uleb128 0x2
 3031 00d0 01       		.byte	0x84
 3032 00d1 84       		.uleb128 0x3
 3033 00d2 02       		.align	2
 3034 00d3 00       	.LEFDE28:
 3035              	.LSFDE30:
 3036              		.4byte	.LEFDE30-.LASFDE30
 3037 00d4 14000000 	.LASFDE30:
 3038              		.4byte	.Lframe0
 3039 00d8 00000000 		.4byte	.LFB18
 3040 00dc 3C040000 		.4byte	.LFE18-.LFB18
 3041 00e0 FC010000 		.byte	0x4
 3042 00e4 44       		.4byte	.LCFI9-.LFB18
 3043              		.byte	0xe
 3044 00e5 0E       		.uleb128 0x4
 3045 00e6 04       		.byte	0x8e
 3046 00e7 8E       		.uleb128 0x1
ARM GAS  C:\DOCUME~1\pstang\LOCALS~1\Temp/cc80aaaa.s 			page 69


 3047 00e8 01       		.align	2
 3048 00e9 000000   	.LEFDE30:
 3049              	.LSFDE32:
 3050              		.4byte	.LEFDE32-.LASFDE32
 3051 00ec 14000000 	.LASFDE32:
 3052              		.4byte	.Lframe0
 3053 00f0 00000000 		.4byte	.LFB15
 3054 00f4 38060000 		.4byte	.LFE15-.LFB15
 3055 00f8 BC020000 		.byte	0x4
 3056 00fc 44       		.4byte	.LCFI10-.LFB15
 3057              		.byte	0xe
 3058 00fd 0E       		.uleb128 0x4
 3059 00fe 04       		.byte	0x4
 3060 00ff 8E       		.4byte	.LCFI11-.LCFI10
 3061 0100 01       		.byte	0xe
 3062 0101 000000   		.uleb128 0x8
 3063              		.byte	0x8e
 3064              		.uleb128 0x1
 3065 0104 1C000000 		.align	2
 3066              	.LEFDE32:
 3067 0108 00000000 	.LSFDE34:
 3068 010c F4080000 		.4byte	.LEFDE34-.LASFDE34
 3069 0110 D8010000 	.LASFDE34:
 3070 0114 44       		.4byte	.Lframe0
 3071              		.4byte	.LFB4
 3072 0115 0E       		.4byte	.LFE4-.LFB4
 3073 0116 14       		.byte	0x4
 3074 0117 8E       		.4byte	.LCFI12-.LFB4
 3075 0118 01       		.byte	0xe
 3076 0119 87       		.uleb128 0x10
 3077 011a 02       		.byte	0x8e
 3078 011b 86       		.uleb128 0x1
 3079 011c 03       		.byte	0x86
 3080 011d 85       		.uleb128 0x2
 3081 011e 04       		.byte	0x85
 3082 011f 84       		.uleb128 0x3
 3083 0120 05       		.byte	0x84
 3084 0121 000000   		.uleb128 0x4
 3085              		.align	2
 3086              	.LEFDE34:
 3087 0124 14000000 	.LSFDE36:
 3088              		.4byte	.LEFDE36-.LASFDE36
 3089 0128 00000000 	.LASFDE36:
 3090 012c CC0A0000 		.4byte	.Lframe0
 3091 0130 0C000000 		.4byte	.LFB11
 3092 0134 44       		.4byte	.LFE11-.LFB11
 3093              		.byte	0x4
 3094 0135 0E       		.4byte	.LCFI13-.LFB11
 3095 0136 04       		.byte	0xe
 3096 0137 8E       		.uleb128 0xc
 3097 0138 01       		.byte	0x8e
 3098 0139 000000   		.uleb128 0x1
 3099              		.byte	0x85
 3100              		.uleb128 0x2
 3101 013c 18000000 		.byte	0x84
 3102              		.uleb128 0x3
 3103 0140 00000000 		.align	2
ARM GAS  C:\DOCUME~1\pstang\LOCALS~1\Temp/cc80aaaa.s 			page 70


 3104 0144 D80A0000 	.LEFDE36:
 3105 0148 D8000000 	.LSFDE38:
 3106 014c 44       		.4byte	.LEFDE38-.LASFDE38
 3107              	.LASFDE38:
 3108 014d 0E       		.4byte	.Lframe0
 3109 014e 0C       		.4byte	.LFB2
 3110 014f 8E       		.4byte	.LFE2-.LFB2
 3111 0150 01       		.byte	0x4
 3112 0151 85       		.4byte	.LCFI14-.LFB2
 3113 0152 02       		.byte	0xe
 3114 0153 84       		.uleb128 0x4
 3115 0154 03       		.byte	0x8e
 3116 0155 000000   		.uleb128 0x1
 3117              		.align	2
 3118              	.LEFDE38:
 3119 0158 14000000 	.LSFDE40:
 3120              		.4byte	.LEFDE40-.LASFDE40
 3121 015c 00000000 	.LASFDE40:
 3122 0160 B00B0000 		.4byte	.Lframe0
 3123 0164 1C000000 		.4byte	.LFB6
 3124 0168 44       		.4byte	.LFE6-.LFB6
 3125              		.byte	0x4
 3126 0169 0E       		.4byte	.LCFI15-.LFB6
 3127 016a 04       		.byte	0xe
 3128 016b 8E       		.uleb128 0x8
 3129 016c 01       		.byte	0x8e
 3130 016d 000000   		.uleb128 0x1
 3131              		.byte	0x84
 3132              		.uleb128 0x2
 3133 0170 14000000 		.align	2
 3134              	.LEFDE40:
 3135 0174 00000000 	.LSFDE42:
 3136 0178 CC0B0000 		.4byte	.LEFDE42-.LASFDE42
 3137 017c 5C010000 	.LASFDE42:
 3138 0180 44       		.4byte	.Lframe0
 3139              		.4byte	.LFB5
 3140 0181 0E       		.4byte	.LFE5-.LFB5
 3141 0182 04       		.byte	0x4
 3142 0183 44       		.4byte	.LCFI16-.LFB5
 3143              		.byte	0xe
 3144 0184 0E       		.uleb128 0x4
 3145 0185 08       		.byte	0x8e
 3146 0186 8E       		.uleb128 0x1
 3147 0187 01       		.align	2
 3148              	.LEFDE42:
 3149              		.file 2 "c:\\code\\arm\\armlib/armlibtypes.h"
 3150              		.text
 3151 0188 18000000 	.Letext0:
 3152              		.section	.debug_loc,"",%progbits
 3153 018c 00000000 	.Ldebug_loc0:
 3154 0190 280D0000 	.LLST3:
 3155 0194 44000000 		.4byte	.LVL1-.Ltext0
 3156 0198 44       		.4byte	.LVL2-.Ltext0
 3157              		.2byte	0x1
 3158 0199 0E       		.byte	0x50
 3159 019a 10       		.4byte	0x0
 3160 019b 8E       		.4byte	0x0
ARM GAS  C:\DOCUME~1\pstang\LOCALS~1\Temp/cc80aaaa.s 			page 71


 3161 019c 01       	.LLST4:
 3162 019d 86       		.4byte	.LFB12-.Ltext0
 3163 019e 02       		.4byte	.LCFI0-.Ltext0
 3164 019f 85       		.2byte	0x1
 3165 01a0 03       		.byte	0x5d
 3166 01a1 84       		.4byte	.LCFI0-.Ltext0
 3167 01a2 04       		.4byte	.LFE12-.Ltext0
 3168 01a3 00       		.2byte	0x2
 3169              		.byte	0x7d
 3170              		.sleb128 4
 3171 01a4 18000000 		.4byte	0x0
 3172              		.4byte	0x0
 3173 01a8 00000000 	.LLST7:
 3174 01ac 6C0D0000 		.4byte	.LFB3-.Ltext0
 3175 01b0 58010000 		.4byte	.LCFI1-.Ltext0
 3176 01b4 44       		.2byte	0x1
 3177              		.byte	0x5d
 3178 01b5 0E       		.4byte	.LCFI1-.Ltext0
 3179 01b6 0C       		.4byte	.LFE3-.Ltext0
 3180 01b7 8E       		.2byte	0x2
 3181 01b8 01       		.byte	0x7d
 3182 01b9 85       		.sleb128 12
 3183 01ba 02       		.4byte	0x0
 3184 01bb 84       		.4byte	0x0
 3185 01bc 03       	.LLST8:
 3186 01bd 000000   		.4byte	.LVL8-.Ltext0
 3187              		.4byte	.LVL9-.Ltext0
 3188              		.2byte	0x1
 3189 01c0 14000000 		.byte	0x50
 3190              		.4byte	.LVL9-.Ltext0
 3191 01c4 00000000 		.4byte	.LFE3-.Ltext0
 3192 01c8 C40E0000 		.2byte	0x1
 3193 01cc 0C000000 		.byte	0x55
 3194 01d0 44       		.4byte	0x0
 3195              		.4byte	0x0
 3196 01d1 0E       	.LLST9:
 3197 01d2 04       		.4byte	.LVL8-.Ltext0
 3198 01d3 8E       		.4byte	.LVL9-.Ltext0
 3199 01d4 01       		.2byte	0x1
 3200 01d5 000000   		.byte	0x51
 3201              		.4byte	.LVL9-.Ltext0
 3202              		.4byte	.LFE3-.Ltext0
 3203 01d8 14000000 		.2byte	0x1
 3204              		.byte	0x54
 3205 01dc 00000000 		.4byte	0x0
 3206 01e0 D00E0000 		.4byte	0x0
 3207 01e4 60000000 	.LLST10:
 3208 01e8 44       		.4byte	.LFB16-.Ltext0
 3209              		.4byte	.LCFI2-.Ltext0
 3210 01e9 0E       		.2byte	0x1
 3211 01ea 08       		.byte	0x5d
 3212 01eb 8E       		.4byte	.LCFI2-.Ltext0
 3213 01ec 01       		.4byte	.LFE16-.Ltext0
 3214 01ed 84       		.2byte	0x2
 3215 01ee 02       		.byte	0x7d
 3216 01ef 00       		.sleb128 4
 3217              		.4byte	0x0
ARM GAS  C:\DOCUME~1\pstang\LOCALS~1\Temp/cc80aaaa.s 			page 72


 3218              		.4byte	0x0
 3219 01f0 14000000 	.LLST11:
 3220              		.4byte	.LVL10-.Ltext0
 3221 01f4 00000000 		.4byte	.LVL11-.Ltext0
 3222 01f8 300F0000 		.2byte	0x1
 3223 01fc 60000000 		.byte	0x51
 3224 0200 44       		.4byte	.LVL11-.Ltext0
 3225              		.4byte	.LFE16-.Ltext0
 3226 0201 0E       		.2byte	0x1
 3227 0202 04       		.byte	0x5c
 3228 0203 8E       		.4byte	0x0
 3229 0204 01       		.4byte	0x0
 3230 0205 000000   	.LLST12:
 3231              		.4byte	.LVL12-.Ltext0
 3232              		.4byte	.LVL13-.Ltext0
 3233              		.2byte	0x1
 3234              		.byte	0x52
 3235              		.4byte	.LVL14-.Ltext0
 3236              		.4byte	.LVL15-.Ltext0
 3237              		.2byte	0x1
 3238 0000 1C000000 		.byte	0x52
 3239 0004 2C000000 		.4byte	0x0
 3240 0008 0100     		.4byte	0x0
 3241 000a 50       	.LLST14:
 3242 000b 00000000 		.4byte	.LVL16-.Ltext0
 3243 000f 00000000 		.4byte	.LVL17-.Ltext0
 3244              		.2byte	0x1
 3245 0013 30000000 		.byte	0x52
 3246 0017 34000000 		.4byte	0x0
 3247 001b 0100     		.4byte	0x0
 3248 001d 5D       	.LLST15:
 3249 001e 34000000 		.4byte	.LVL18-.Ltext0
 3250 0022 B0000000 		.4byte	.LVL19-.Ltext0
 3251 0026 0200     		.2byte	0x1
 3252 0028 7D       		.byte	0x53
 3253 0029 04       		.4byte	0x0
 3254 002a 00000000 		.4byte	0x0
 3255 002e 00000000 	.LLST16:
 3256              		.4byte	.LFB20-.Ltext0
 3257 0032 F8000000 		.4byte	.LCFI3-.Ltext0
 3258 0036 FC000000 		.2byte	0x1
 3259 003a 0100     		.byte	0x5d
 3260 003c 5D       		.4byte	.LCFI3-.Ltext0
 3261 003d FC000000 		.4byte	.LFE20-.Ltext0
 3262 0041 1C010000 		.2byte	0x2
 3263 0045 0200     		.byte	0x7d
 3264 0047 7D       		.sleb128 8
 3265 0048 0C       		.4byte	0x0
 3266 0049 00000000 		.4byte	0x0
 3267 004d 00000000 	.LLST17:
 3268              		.4byte	.LVL20-.Ltext0
 3269 0051 F8000000 		.4byte	.LVL25-.Ltext0
 3270 0055 08010000 		.2byte	0x1
 3271 0059 0100     		.byte	0x50
 3272 005b 50       		.4byte	0x0
 3273 005c 08010000 		.4byte	0x0
 3274 0060 1C010000 	.LLST18:
ARM GAS  C:\DOCUME~1\pstang\LOCALS~1\Temp/cc80aaaa.s 			page 73


 3275 0064 0100     		.4byte	.LVL20-.Ltext0
 3276 0066 55       		.4byte	.LVL26-.Ltext0
 3277 0067 00000000 		.2byte	0x1
 3278 006b 00000000 		.byte	0x51
 3279              		.4byte	0x0
 3280 006f F8000000 		.4byte	0x0
 3281 0073 08010000 	.LLST19:
 3282 0077 0100     		.4byte	.LVL20-.Ltext0
 3283 0079 51       		.4byte	.LVL21-.Ltext0
 3284 007a 08010000 		.2byte	0x1
 3285 007e 1C010000 		.byte	0x52
 3286 0082 0100     		.4byte	.LVL21-.Ltext0
 3287 0084 54       		.4byte	.LFE20-.Ltext0
 3288 0085 00000000 		.2byte	0x1
 3289 0089 00000000 		.byte	0x54
 3290              		.4byte	0x0
 3291 008d 1C010000 		.4byte	0x0
 3292 0091 20010000 	.LLST20:
 3293 0095 0100     		.4byte	.LVL22-.Ltext0
 3294 0097 5D       		.4byte	.LVL24-.Ltext0
 3295 0098 20010000 		.2byte	0x1
 3296 009c E0010000 		.byte	0x5e
 3297 00a0 0200     		.4byte	.LVL24-.Ltext0
 3298 00a2 7D       		.4byte	.LFE20-.Ltext0
 3299 00a3 04       		.2byte	0x1
 3300 00a4 00000000 		.byte	0x5c
 3301 00a8 00000000 		.4byte	0x0
 3302              		.4byte	0x0
 3303 00ac 1C010000 	.LLST21:
 3304 00b0 30010000 		.4byte	.LVL23-.Ltext0
 3305 00b4 0100     		.4byte	.LVL24-.Ltext0
 3306 00b6 51       		.2byte	0x1
 3307 00b7 30010000 		.byte	0x5c
 3308 00bb E0010000 		.4byte	.LVL25-.Ltext0
 3309 00bf 0100     		.4byte	.LVL26-.Ltext0
 3310 00c1 5C       		.2byte	0x1
 3311 00c2 00000000 		.byte	0x50
 3312 00c6 00000000 		.4byte	.LVL26-.Ltext0
 3313              		.4byte	.LVL27-.Ltext0
 3314 00ca 6C010000 		.2byte	0x1
 3315 00ce 88010000 		.byte	0x51
 3316 00d2 0100     		.4byte	0x0
 3317 00d4 52       		.4byte	0x0
 3318 00d5 94010000 	.LLST22:
 3319 00d9 B8010000 		.4byte	.LFB21-.Ltext0
 3320 00dd 0100     		.4byte	.LCFI4-.Ltext0
 3321 00df 52       		.2byte	0x1
 3322 00e0 00000000 		.byte	0x5d
 3323 00e4 00000000 		.4byte	.LCFI4-.Ltext0
 3324              		.4byte	.LFE21-.Ltext0
 3325 00e8 F0010000 		.2byte	0x2
 3326 00ec 18020000 		.byte	0x7d
 3327 00f0 0100     		.sleb128 4
 3328 00f2 52       		.4byte	0x0
 3329 00f3 00000000 		.4byte	0x0
 3330 00f7 00000000 	.LLST23:
 3331              		.4byte	.LVL28-.Ltext0
ARM GAS  C:\DOCUME~1\pstang\LOCALS~1\Temp/cc80aaaa.s 			page 74


 3332 00fb 30020000 		.4byte	.LVL32-.Ltext0
 3333 00ff 38020000 		.2byte	0x1
 3334 0103 0100     		.byte	0x50
 3335 0105 53       		.4byte	0x0
 3336 0106 00000000 		.4byte	0x0
 3337 010a 00000000 	.LLST24:
 3338              		.4byte	.LVL28-.Ltext0
 3339 010e 48020000 		.4byte	.LVL35-.Ltext0
 3340 0112 4C020000 		.2byte	0x1
 3341 0116 0100     		.byte	0x51
 3342 0118 5D       		.4byte	0x0
 3343 0119 4C020000 		.4byte	0x0
 3344 011d 3C040000 	.LLST25:
 3345 0121 0200     		.4byte	.LVL29-.Ltext0
 3346 0123 7D       		.4byte	.LVL31-.Ltext0
 3347 0124 08       		.2byte	0x1
 3348 0125 00000000 		.byte	0x5e
 3349 0129 00000000 		.4byte	.LVL31-.Ltext0
 3350              		.4byte	.LVL33-.Ltext0
 3351 012d 48020000 		.2byte	0x1
 3352 0131 50030000 		.byte	0x5c
 3353 0135 0100     		.4byte	0x0
 3354 0137 50       		.4byte	0x0
 3355 0138 00000000 	.LLST26:
 3356 013c 00000000 		.4byte	.LVL30-.Ltext0
 3357              		.4byte	.LVL31-.Ltext0
 3358 0140 48020000 		.2byte	0x1
 3359 0144 F0030000 		.byte	0x5c
 3360 0148 0100     		.4byte	.LVL32-.Ltext0
 3361 014a 51       		.4byte	.LVL34-.Ltext0
 3362 014b 00000000 		.2byte	0x1
 3363 014f 00000000 		.byte	0x50
 3364              		.4byte	.LVL35-.Ltext0
 3365 0153 48020000 		.4byte	.LFE21-.Ltext0
 3366 0157 5C020000 		.2byte	0x1
 3367 015b 0100     		.byte	0x51
 3368 015d 52       		.4byte	0x0
 3369 015e 5C020000 		.4byte	0x0
 3370 0162 3C040000 	.LLST27:
 3371 0166 0100     		.4byte	.LFB23-.Ltext0
 3372 0168 54       		.4byte	.LCFI5-.Ltext0
 3373 0169 00000000 		.2byte	0x1
 3374 016d 00000000 		.byte	0x5d
 3375              		.4byte	.LCFI5-.Ltext0
 3376 0171 00030000 		.4byte	.LFE23-.Ltext0
 3377 0175 4C030000 		.2byte	0x2
 3378 0179 0100     		.byte	0x7d
 3379 017b 5E       		.sleb128 4
 3380 017c 4C030000 		.4byte	0x0
 3381 0180 3C040000 		.4byte	0x0
 3382 0184 0100     	.LLST28:
 3383 0186 5C       		.4byte	.LFB22-.Ltext0
 3384 0187 00000000 		.4byte	.LCFI6-.Ltext0
 3385 018b 00000000 		.2byte	0x1
 3386              		.byte	0x5d
 3387 018f 04030000 		.4byte	.LCFI6-.Ltext0
 3388 0193 4C030000 		.4byte	.LFE22-.Ltext0
ARM GAS  C:\DOCUME~1\pstang\LOCALS~1\Temp/cc80aaaa.s 			page 75


 3389 0197 0100     		.2byte	0x2
 3390 0199 5C       		.byte	0x7d
 3391 019a 50030000 		.sleb128 20
 3392 019e F0030000 		.4byte	0x0
 3393 01a2 0100     		.4byte	0x0
 3394 01a4 50       	.LLST29:
 3395 01a5 F0030000 		.4byte	.LFB7-.Ltext0
 3396 01a9 F4030000 		.4byte	.LCFI7-.Ltext0
 3397 01ad 0100     		.2byte	0x1
 3398 01af 51       		.byte	0x5d
 3399 01b0 00000000 		.4byte	.LCFI7-.Ltext0
 3400 01b4 00000000 		.4byte	.LFE7-.Ltext0
 3401              		.2byte	0x2
 3402 01b8 3C040000 		.byte	0x7d
 3403 01bc 40040000 		.sleb128 4
 3404 01c0 0100     		.4byte	0x0
 3405 01c2 5D       		.4byte	0x0
 3406 01c3 40040000 	.LLST30:
 3407 01c7 38060000 		.4byte	.LFB19-.Ltext0
 3408 01cb 0200     		.4byte	.LCFI8-.Ltext0
 3409 01cd 7D       		.2byte	0x1
 3410 01ce 04       		.byte	0x5d
 3411 01cf 00000000 		.4byte	.LCFI8-.Ltext0
 3412 01d3 00000000 		.4byte	.LFE19-.Ltext0
 3413              		.2byte	0x2
 3414 01d7 3C040000 		.byte	0x7d
 3415 01db 44050000 		.sleb128 12
 3416 01df 0100     		.4byte	0x0
 3417 01e1 50       		.4byte	0x0
 3418 01e2 00000000 	.LLST31:
 3419 01e6 00000000 		.4byte	.LFB18-.Ltext0
 3420              		.4byte	.LCFI9-.Ltext0
 3421 01ea 3C040000 		.2byte	0x1
 3422 01ee E4050000 		.byte	0x5d
 3423 01f2 0100     		.4byte	.LCFI9-.Ltext0
 3424 01f4 51       		.4byte	.LFE18-.Ltext0
 3425 01f5 00000000 		.2byte	0x2
 3426 01f9 00000000 		.byte	0x7d
 3427              		.sleb128 4
 3428 01fd F0040000 		.4byte	0x0
 3429 0201 40050000 		.4byte	0x0
 3430 0205 0100     	.LLST32:
 3431 0207 5E       		.4byte	.LFB15-.Ltext0
 3432 0208 40050000 		.4byte	.LCFI10-.Ltext0
 3433 020c DC050000 		.2byte	0x1
 3434 0210 0100     		.byte	0x5d
 3435 0212 5C       		.4byte	.LCFI10-.Ltext0
 3436 0213 00000000 		.4byte	.LCFI11-.Ltext0
 3437 0217 00000000 		.2byte	0x2
 3438              		.byte	0x7d
 3439 021b F4040000 		.sleb128 4
 3440 021f 40050000 		.4byte	.LCFI11-.Ltext0
 3441 0223 0100     		.4byte	.LFE15-.Ltext0
 3442 0225 5C       		.2byte	0x2
 3443 0226 44050000 		.byte	0x7d
 3444 022a E0050000 		.sleb128 8
 3445 022e 0100     		.4byte	0x0
ARM GAS  C:\DOCUME~1\pstang\LOCALS~1\Temp/cc80aaaa.s 			page 76


 3446 0230 50       		.4byte	0x0
 3447 0231 E4050000 	.LLST33:
 3448 0235 38060000 		.4byte	.LVL38-.Ltext0
 3449 0239 0100     		.4byte	.LVL40-.Ltext0
 3450 023b 51       		.2byte	0x1
 3451 023c 00000000 		.byte	0x5c
 3452 0240 00000000 		.4byte	.LVL45-.Ltext0
 3453              		.4byte	.LFE15-.Ltext0
 3454 0244 38060000 		.2byte	0x1
 3455 0248 3C060000 		.byte	0x5c
 3456 024c 0100     		.4byte	0x0
 3457 024e 5D       		.4byte	0x0
 3458 024f 3C060000 	.LLST34:
 3459 0253 F4080000 		.4byte	.LVL37-.Ltext0
 3460 0257 0200     		.4byte	.LVL39-.Ltext0
 3461 0259 7D       		.2byte	0x1
 3462 025a 04       		.byte	0x52
 3463 025b 00000000 		.4byte	.LVL45-.Ltext0
 3464 025f 00000000 		.4byte	.LFE15-.Ltext0
 3465              		.2byte	0x1
 3466 0263 F4080000 		.byte	0x52
 3467 0267 F8080000 		.4byte	0x0
 3468 026b 0100     		.4byte	0x0
 3469 026d 5D       	.LLST35:
 3470 026e F8080000 		.4byte	.LVL43-.Ltext0
 3471 0272 CC0A0000 		.4byte	.LVL44-.Ltext0
 3472 0276 0200     		.2byte	0x1
 3473 0278 7D       		.byte	0x50
 3474 0279 14       		.4byte	0x0
 3475 027a 00000000 		.4byte	0x0
 3476 027e 00000000 	.LLST36:
 3477              		.4byte	.LVL41-.Ltext0
 3478 0282 CC0A0000 		.4byte	.LVL42-.Ltext0
 3479 0286 D00A0000 		.2byte	0x1
 3480 028a 0100     		.byte	0x53
 3481 028c 5D       		.4byte	0x0
 3482 028d D00A0000 		.4byte	0x0
 3483 0291 D80A0000 	.LLST37:
 3484 0295 0200     		.4byte	.LFB4-.Ltext0
 3485 0297 7D       		.4byte	.LCFI12-.Ltext0
 3486 0298 04       		.2byte	0x1
 3487 0299 00000000 		.byte	0x5d
 3488 029d 00000000 		.4byte	.LCFI12-.Ltext0
 3489              		.4byte	.LFE4-.Ltext0
 3490 02a1 D80A0000 		.2byte	0x2
 3491 02a5 DC0A0000 		.byte	0x7d
 3492 02a9 0100     		.sleb128 16
 3493 02ab 5D       		.4byte	0x0
 3494 02ac DC0A0000 		.4byte	0x0
 3495 02b0 B00B0000 	.LLST38:
 3496 02b4 0200     		.4byte	.LVL46-.Ltext0
 3497 02b6 7D       		.4byte	.LVL47-.Ltext0
 3498 02b7 0C       		.2byte	0x1
 3499 02b8 00000000 		.byte	0x50
 3500 02bc 00000000 		.4byte	.LVL47-.Ltext0
 3501              		.4byte	.LFE4-.Ltext0
 3502 02c0 B00B0000 		.2byte	0x1
ARM GAS  C:\DOCUME~1\pstang\LOCALS~1\Temp/cc80aaaa.s 			page 77


 3503 02c4 B40B0000 		.byte	0x55
 3504 02c8 0100     		.4byte	0x0
 3505 02ca 5D       		.4byte	0x0
 3506 02cb B40B0000 	.LLST39:
 3507 02cf CC0B0000 		.4byte	.LVL46-.Ltext0
 3508 02d3 0200     		.4byte	.LVL47-.Ltext0
 3509 02d5 7D       		.2byte	0x1
 3510 02d6 04       		.byte	0x51
 3511 02d7 00000000 		.4byte	.LVL47-.Ltext0
 3512 02db 00000000 		.4byte	.LFE4-.Ltext0
 3513              		.2byte	0x1
 3514 02df CC0B0000 		.byte	0x56
 3515 02e3 D00B0000 		.4byte	0x0
 3516 02e7 0100     		.4byte	0x0
 3517 02e9 5D       	.LLST40:
 3518 02ea D00B0000 		.4byte	.LFB11-.Ltext0
 3519 02ee D40B0000 		.4byte	.LCFI13-.Ltext0
 3520 02f2 0200     		.2byte	0x1
 3521 02f4 7D       		.byte	0x5d
 3522 02f5 04       		.4byte	.LCFI13-.Ltext0
 3523 02f6 D40B0000 		.4byte	.LFE11-.Ltext0
 3524 02fa 280D0000 		.2byte	0x2
 3525 02fe 0200     		.byte	0x7d
 3526 0300 7D       		.sleb128 12
 3527 0301 08       		.4byte	0x0
 3528 0302 00000000 		.4byte	0x0
 3529 0306 00000000 	.LLST41:
 3530              		.4byte	.LFB2-.Ltext0
 3531 030a 040C0000 		.4byte	.LCFI14-.Ltext0
 3532 030e 780C0000 		.2byte	0x1
 3533 0312 0100     		.byte	0x5d
 3534 0314 5C       		.4byte	.LCFI14-.Ltext0
 3535 0315 140D0000 		.4byte	.LFE2-.Ltext0
 3536 0319 280D0000 		.2byte	0x2
 3537 031d 0100     		.byte	0x7d
 3538 031f 5C       		.sleb128 4
 3539 0320 00000000 		.4byte	0x0
 3540 0324 00000000 		.4byte	0x0
 3541              	.LLST42:
 3542 0328 FC0B0000 		.4byte	.LFB6-.Ltext0
 3543 032c 600C0000 		.4byte	.LCFI15-.Ltext0
 3544 0330 0100     		.2byte	0x1
 3545 0332 52       		.byte	0x5d
 3546 0333 140D0000 		.4byte	.LCFI15-.Ltext0
 3547 0337 280D0000 		.4byte	.LFE6-.Ltext0
 3548 033b 0100     		.2byte	0x2
 3549 033d 52       		.byte	0x7d
 3550 033e 00000000 		.sleb128 8
 3551 0342 00000000 		.4byte	0x0
 3552              		.4byte	0x0
 3553 0346 B80C0000 	.LLST43:
 3554 034a E40C0000 		.4byte	.LVL50-.Ltext0
 3555 034e 0100     		.4byte	.LVL51-.Ltext0
 3556 0350 50       		.2byte	0x1
 3557 0351 00000000 		.byte	0x50
 3558 0355 00000000 		.4byte	.LVL51-.Ltext0
 3559              		.4byte	.LVL53-.Ltext0
ARM GAS  C:\DOCUME~1\pstang\LOCALS~1\Temp/cc80aaaa.s 			page 78


 3560 0359 7C0C0000 		.2byte	0x1
 3561 035d 840C0000 		.byte	0x52
 3562 0361 0100     		.4byte	.LVL53-.Ltext0
 3563 0363 53       		.4byte	.LVL55-.Ltext0
 3564 0364 00000000 		.2byte	0x1
 3565 0368 00000000 		.byte	0x54
 3566              		.4byte	.LVL55-.Ltext0
 3567 036c 280D0000 		.4byte	.LFE6-.Ltext0
 3568 0370 2C0D0000 		.2byte	0x1
 3569 0374 0100     		.byte	0x50
 3570 0376 5D       		.4byte	0x0
 3571 0377 2C0D0000 		.4byte	0x0
 3572 037b 6C0D0000 	.LLST44:
 3573 037f 0200     		.4byte	.LVL52-.Ltext0
 3574 0381 7D       		.4byte	.LVL54-.Ltext0
 3575 0382 10       		.2byte	0x1
 3576 0383 00000000 		.byte	0x53
 3577 0387 00000000 		.4byte	0x0
 3578              		.4byte	0x0
 3579 038b 280D0000 	.LLST45:
 3580 038f 380D0000 		.4byte	.LVL54-.Ltext0
 3581 0393 0100     		.4byte	.LVL56-.Ltext0
 3582 0395 50       		.2byte	0x1
 3583 0396 380D0000 		.byte	0x53
 3584 039a 6C0D0000 		.4byte	0x0
 3585 039e 0100     		.4byte	0x0
 3586 03a0 55       	.LLST46:
 3587 03a1 00000000 		.4byte	.LVL56-.Ltext0
 3588 03a5 00000000 		.4byte	.LVL57-.Ltext0
 3589              		.2byte	0x1
 3590 03a9 280D0000 		.byte	0x53
 3591 03ad 380D0000 		.4byte	0x0
 3592 03b1 0100     		.4byte	0x0
 3593 03b3 51       	.LLST47:
 3594 03b4 380D0000 		.4byte	.LVL57-.Ltext0
 3595 03b8 6C0D0000 		.4byte	.LVL58-.Ltext0
 3596 03bc 0100     		.2byte	0x1
 3597 03be 56       		.byte	0x53
 3598 03bf 00000000 		.4byte	0x0
 3599 03c3 00000000 		.4byte	0x0
 3600              	.LLST48:
 3601 03c7 6C0D0000 		.4byte	.LVL58-.Ltext0
 3602 03cb 700D0000 		.4byte	.LVL59-.Ltext0
 3603 03cf 0100     		.2byte	0x1
 3604 03d1 5D       		.byte	0x53
 3605 03d2 700D0000 		.4byte	0x0
 3606 03d6 C40E0000 		.4byte	0x0
 3607 03da 0200     	.LLST49:
 3608 03dc 7D       		.4byte	.LFB5-.Ltext0
 3609 03dd 0C       		.4byte	.LCFI16-.Ltext0
 3610 03de 00000000 		.2byte	0x1
 3611 03e2 00000000 		.byte	0x5d
 3612              		.4byte	.LCFI16-.Ltext0
 3613 03e6 C40E0000 		.4byte	.LFE5-.Ltext0
 3614 03ea C80E0000 		.2byte	0x2
 3615 03ee 0100     		.byte	0x7d
 3616 03f0 5D       		.sleb128 4
ARM GAS  C:\DOCUME~1\pstang\LOCALS~1\Temp/cc80aaaa.s 			page 79


 3617 03f1 C80E0000 		.4byte	0x0
 3618 03f5 D00E0000 		.4byte	0x0
 3619 03f9 0200     	.LLST50:
 3620 03fb 7D       		.4byte	.LVL60-.Ltext0
 3621 03fc 04       		.4byte	.LVL61-.Ltext0
 3622 03fd 00000000 		.2byte	0x1
 3623 0401 00000000 		.byte	0x50
 3624              		.4byte	.LVL61-.Ltext0
 3625 0405 D00E0000 		.4byte	.LVL62-.Ltext0
 3626 0409 D40E0000 		.2byte	0x1
 3627 040d 0100     		.byte	0x52
 3628 040f 5D       		.4byte	.LVL62-.Ltext0
 3629 0410 D40E0000 		.4byte	.LVL62-.Ltext0
 3630 0414 300F0000 		.2byte	0x1
 3631 0418 0200     		.byte	0x50
 3632 041a 7D       		.4byte	.LVL63-.Ltext0
 3633 041b 08       		.4byte	.LFE5-.Ltext0
 3634 041c 00000000 		.2byte	0x1
 3635 0420 00000000 		.byte	0x52
 3636              		.4byte	0x0
 3637 0424 D00E0000 		.4byte	0x0
 3638 0428 F00E0000 		.section	.debug_info
 3639 042c 0100     		.4byte	0x2202
 3640 042e 50       		.2byte	0x2
 3641 042f F00E0000 		.4byte	.Ldebug_abbrev0
 3642 0433 FC0E0000 		.byte	0x4
 3643 0437 0100     		.uleb128 0x1
 3644 0439 52       		.4byte	.Ldebug_line0
 3645 043a FC0E0000 		.4byte	.Letext0
 3646 043e 080F0000 		.4byte	.Ltext0
 3647 0442 0100     		.4byte	.LASF60
 3648 0444 54       		.byte	0x1
 3649 0445 080F0000 		.4byte	.LASF61
 3650 0449 300F0000 		.4byte	.LASF62
 3651 044d 0100     		.uleb128 0x2
 3652 044f 50       		.ascii	"u08\000"
 3653 0450 00000000 		.byte	0x2
 3654 0454 00000000 		.byte	0x20
 3655              		.4byte	0x30
 3656 0458 F40E0000 		.uleb128 0x3
 3657 045c 000F0000 		.4byte	.LASF0
 3658 0460 0100     		.byte	0x1
 3659 0462 53       		.byte	0x8
 3660 0463 00000000 		.uleb128 0x3
 3661 0467 00000000 		.4byte	.LASF1
 3662              		.byte	0x1
 3663 046b 000F0000 		.byte	0x6
 3664 046f 0C0F0000 		.uleb128 0x3
 3665 0473 0100     		.4byte	.LASF2
 3666 0475 53       		.byte	0x2
 3667 0476 00000000 		.byte	0x7
 3668 047a 00000000 		.uleb128 0x3
 3669              		.4byte	.LASF3
 3670 047e 0C0F0000 		.byte	0x2
 3671 0482 140F0000 		.byte	0x5
 3672 0486 0100     		.uleb128 0x3
 3673 0488 53       		.4byte	.LASF4
ARM GAS  C:\DOCUME~1\pstang\LOCALS~1\Temp/cc80aaaa.s 			page 80


 3674 0489 00000000 		.byte	0x4
 3675 048d 00000000 		.byte	0x7
 3676              		.uleb128 0x3
 3677 0491 140F0000 		.4byte	.LASF5
 3678 0495 1C0F0000 		.byte	0x4
 3679 0499 0100     		.byte	0x5
 3680 049b 53       		.uleb128 0x3
 3681 049c 00000000 		.4byte	.LASF6
 3682 04a0 00000000 		.byte	0x8
 3683              		.byte	0x7
 3684 04a4 1C0F0000 		.uleb128 0x3
 3685 04a8 240F0000 		.4byte	.LASF7
 3686 04ac 0100     		.byte	0x8
 3687 04ae 53       		.byte	0x5
 3688 04af 00000000 		.uleb128 0x3
 3689 04b3 00000000 		.4byte	.LASF8
 3690              		.byte	0x4
 3691 04b7 300F0000 		.byte	0x7
 3692 04bb 340F0000 		.uleb128 0x3
 3693 04bf 0100     		.4byte	.LASF9
 3694 04c1 5D       		.byte	0x1
 3695 04c2 340F0000 		.byte	0x8
 3696 04c6 900F0000 		.uleb128 0x4
 3697 04ca 0200     		.ascii	"int\000"
 3698 04cc 7D       		.byte	0x4
 3699 04cd 04       		.byte	0x5
 3700 04ce 00000000 		.uleb128 0x5
 3701 04d2 00000000 		.4byte	0xa2
 3702              		.byte	0x1
 3703 04d6 300F0000 		.4byte	.LASF12
 3704 04da 540F0000 		.byte	0x1
 3705 04de 0100     		.byte	0x8f
 3706 04e0 50       		.byte	0x1
 3707 04e1 540F0000 		.byte	0x3
 3708 04e5 640F0000 		.uleb128 0x6
 3709 04e9 0100     		.4byte	.LASF10
 3710 04eb 52       		.byte	0x1
 3711 04ec 640F0000 		.byte	0x8e
 3712 04f0 640F0000 		.4byte	0x25
 3713 04f4 0100     		.uleb128 0x6
 3714 04f6 50       		.4byte	.LASF11
 3715 04f7 700F0000 		.byte	0x1
 3716 04fb 900F0000 		.byte	0x8e
 3717 04ff 0100     		.4byte	0x25
 3718 0501 52       		.byte	0x0
 3719 0502 00000000 		.uleb128 0x7
 3720 0506 00000000 		.4byte	0xc0
 3721              		.byte	0x1
 3722 0000 02220000 		.4byte	.LASF13
 3723 0004 0200     		.byte	0x1
 3724 0006 00000000 		.byte	0xab
 3725 000a 04       		.byte	0x1
 3726 000b 01       		.4byte	0x25
 3727 000c 00000000 		.byte	0x3
 3728 0010 900F0000 		.uleb128 0x6
 3729 0014 00000000 		.4byte	.LASF10
 3730 0018 43000000 		.byte	0x1
ARM GAS  C:\DOCUME~1\pstang\LOCALS~1\Temp/cc80aaaa.s 			page 81


 3731 001c 01       		.byte	0xaa
 3732 001d 49020000 		.4byte	0x25
 3733 0021 3F030000 		.byte	0x0
 3734 0025 02       		.uleb128 0x8
 3735 0026 75303800 		.byte	0x1
 3736 002a 02       		.4byte	.LASF34
 3737 002b 20       		.byte	0x1
 3738 002c 30000000 		.byte	0x71
 3739 0030 03       		.byte	0x1
 3740 0031 D1010000 		.4byte	.LFB8
 3741 0035 01       		.4byte	.LFE8
 3742 0036 08       		.byte	0x1
 3743 0037 03       		.byte	0x5d
 3744 0038 E6010000 		.uleb128 0x9
 3745 003c 01       		.4byte	0xf5
 3746 003d 06       		.4byte	0x7d
 3747 003e 03       		.4byte	.LFB9
 3748 003f 6A020000 		.4byte	.LFE9
 3749 0043 02       		.byte	0x1
 3750 0044 07       		.byte	0x5d
 3751 0045 03       		.uleb128 0xa
 3752 0046 58000000 		.4byte	0x8b
 3753 004a 02       		.byte	0x1
 3754 004b 05       		.byte	0x50
 3755 004c 03       		.uleb128 0xa
 3756 004d 13020000 		.4byte	0x96
 3757 0051 04       		.byte	0x1
 3758 0052 07       		.byte	0x51
 3759 0053 03       		.byte	0x0
 3760 0054 14030000 		.uleb128 0x9
 3761 0058 04       		.4byte	0x112
 3762 0059 05       		.4byte	0xa2
 3763 005a 03       		.4byte	.LFB10
 3764 005b 92000000 		.4byte	.LFE10
 3765 005f 08       		.byte	0x1
 3766 0060 07       		.byte	0x5d
 3767 0061 03       		.uleb128 0xb
 3768 0062 A9000000 		.4byte	0xb4
 3769 0066 08       		.4byte	.LLST3
 3770 0067 05       		.byte	0x0
 3771 0068 03       		.uleb128 0xc
 3772 0069 00020000 		.4byte	0x295
 3773 006d 04       		.byte	0x1
 3774 006e 07       		.4byte	.LASF14
 3775 006f 03       		.byte	0x1
 3776 0070 7D020000 		.2byte	0x11b
 3777 0074 01       		.byte	0x1
 3778 0075 08       		.4byte	.LFB12
 3779 0076 04       		.4byte	.LFE12
 3780 0077 696E7400 		.4byte	.LLST4
 3781 007b 04       		.uleb128 0xd
 3782 007c 05       		.4byte	.LASF15
 3783 007d 05       		.byte	0x1
 3784 007e A2000000 		.2byte	0x11a
 3785 0082 01       		.4byte	0x68
 3786 0083 A1020000 		.byte	0x1
 3787 0087 01       		.byte	0x50
ARM GAS  C:\DOCUME~1\pstang\LOCALS~1\Temp/cc80aaaa.s 			page 82


 3788 0088 8F       		.uleb128 0xe
 3789 0089 01       		.4byte	.LASF19
 3790 008a 03       		.byte	0x1
 3791 008b 06       		.2byte	0x11c
 3792 008c F8010000 		.4byte	0x68
 3793 0090 01       		.byte	0x1
 3794 0091 8E       		.byte	0x5e
 3795 0092 25000000 		.uleb128 0xf
 3796 0096 06       		.4byte	0x167
 3797 0097 82020000 		.4byte	0x7d
 3798 009b 01       		.4byte	.LBB476
 3799 009c 8E       		.4byte	.LBE476
 3800 009d 25000000 		.byte	0x1
 3801 00a1 00       		.2byte	0x121
 3802 00a2 07       		.uleb128 0x10
 3803 00a3 C0000000 		.4byte	0xed
 3804 00a7 01       		.uleb128 0x10
 3805 00a8 33030000 		.4byte	0xe6
 3806 00ac 01       		.byte	0x0
 3807 00ad AB       		.uleb128 0xf
 3808 00ae 01       		.4byte	0x181
 3809 00af 25000000 		.4byte	0xa2
 3810 00b3 03       		.4byte	.LBB478
 3811 00b4 06       		.4byte	.LBE478
 3812 00b5 F8010000 		.byte	0x1
 3813 00b9 01       		.2byte	0x124
 3814 00ba AA       		.uleb128 0x10
 3815 00bb 25000000 		.4byte	0x108
 3816 00bf 00       		.byte	0x0
 3817 00c0 08       		.uleb128 0xf
 3818 00c1 01       		.4byte	0x1a0
 3819 00c2 62000000 		.4byte	0x7d
 3820 00c6 01       		.4byte	.LBB480
 3821 00c7 71       		.4byte	.LBE480
 3822 00c8 01       		.byte	0x1
 3823 00c9 00000000 		.2byte	0x127
 3824 00cd 04000000 		.uleb128 0x10
 3825 00d1 01       		.4byte	0xed
 3826 00d2 5D       		.uleb128 0x10
 3827 00d3 09       		.4byte	0xe6
 3828 00d4 F5000000 		.byte	0x0
 3829 00d8 7D000000 		.uleb128 0xf
 3830 00dc 04000000 		.4byte	0x1bf
 3831 00e0 1C000000 		.4byte	0x7d
 3832 00e4 01       		.4byte	.LBB482
 3833 00e5 5D       		.4byte	.LBE482
 3834 00e6 0A       		.byte	0x1
 3835 00e7 8B000000 		.2byte	0x12a
 3836 00eb 01       		.uleb128 0x10
 3837 00ec 50       		.4byte	0xed
 3838 00ed 0A       		.uleb128 0x10
 3839 00ee 96000000 		.4byte	0xe6
 3840 00f2 01       		.byte	0x0
 3841 00f3 51       		.uleb128 0xf
 3842 00f4 00       		.4byte	0x1de
 3843 00f5 09       		.4byte	0x7d
 3844 00f6 12010000 		.4byte	.LBB484
ARM GAS  C:\DOCUME~1\pstang\LOCALS~1\Temp/cc80aaaa.s 			page 83


 3845 00fa A2000000 		.4byte	.LBE484
 3846 00fe 1C000000 		.byte	0x1
 3847 0102 30000000 		.2byte	0x12b
 3848 0106 01       		.uleb128 0x10
 3849 0107 5D       		.4byte	0xed
 3850 0108 0B       		.uleb128 0x10
 3851 0109 B4000000 		.4byte	0xe6
 3852 010d 00000000 		.byte	0x0
 3853 0111 00       		.uleb128 0xf
 3854 0112 0C       		.4byte	0x1fd
 3855 0113 95020000 		.4byte	0x7d
 3856 0117 01       		.4byte	.LBB486
 3857 0118 F8000000 		.4byte	.LBE486
 3858 011c 01       		.byte	0x1
 3859 011d 1B01     		.2byte	0x12e
 3860 011f 01       		.uleb128 0x10
 3861 0120 30000000 		.4byte	0xed
 3862 0124 B0000000 		.uleb128 0x10
 3863 0128 13000000 		.4byte	0xe6
 3864 012c 0D       		.byte	0x0
 3865 012d 37010000 		.uleb128 0xf
 3866 0131 01       		.4byte	0x21c
 3867 0132 1A01     		.4byte	0x7d
 3868 0134 68000000 		.4byte	.LBB488
 3869 0138 01       		.4byte	.LBE488
 3870 0139 50       		.byte	0x1
 3871 013a 0E       		.2byte	0x131
 3872 013b E7020000 		.uleb128 0x10
 3873 013f 01       		.4byte	0xed
 3874 0140 1C01     		.uleb128 0x10
 3875 0142 68000000 		.4byte	0xe6
 3876 0146 01       		.byte	0x0
 3877 0147 5E       		.uleb128 0xf
 3878 0148 0F       		.4byte	0x23b
 3879 0149 67010000 		.4byte	0x7d
 3880 014d 7D000000 		.4byte	.LBB490
 3881 0151 40000000 		.4byte	.LBE490
 3882 0155 58000000 		.byte	0x1
 3883 0159 01       		.2byte	0x132
 3884 015a 2101     		.uleb128 0x10
 3885 015c 10       		.4byte	0xed
 3886 015d ED000000 		.uleb128 0x10
 3887 0161 10       		.4byte	0xe6
 3888 0162 E6000000 		.byte	0x0
 3889 0166 00       		.uleb128 0xf
 3890 0167 0F       		.4byte	0x25a
 3891 0168 81010000 		.4byte	0x7d
 3892 016c A2000000 		.4byte	.LBB492
 3893 0170 58000000 		.4byte	.LBE492
 3894 0174 5C000000 		.byte	0x1
 3895 0178 01       		.2byte	0x134
 3896 0179 2401     		.uleb128 0x10
 3897 017b 10       		.4byte	0xed
 3898 017c 08010000 		.uleb128 0x10
 3899 0180 00       		.4byte	0xe6
 3900 0181 0F       		.byte	0x0
 3901 0182 A0010000 		.uleb128 0xf
ARM GAS  C:\DOCUME~1\pstang\LOCALS~1\Temp/cc80aaaa.s 			page 84


 3902 0186 7D000000 		.4byte	0x279
 3903 018a 64000000 		.4byte	0x7d
 3904 018e 6C000000 		.4byte	.LBB494
 3905 0192 01       		.4byte	.LBE494
 3906 0193 2701     		.byte	0x1
 3907 0195 10       		.2byte	0x135
 3908 0196 ED000000 		.uleb128 0x10
 3909 019a 10       		.4byte	0xed
 3910 019b E6000000 		.uleb128 0x10
 3911 019f 00       		.4byte	0xe6
 3912 01a0 0F       		.byte	0x0
 3913 01a1 BF010000 		.uleb128 0x11
 3914 01a5 7D000000 		.4byte	0x7d
 3915 01a9 6C000000 		.4byte	.LBB496
 3916 01ad 70000000 		.4byte	.LBE496
 3917 01b1 01       		.byte	0x1
 3918 01b2 2A01     		.2byte	0x138
 3919 01b4 10       		.uleb128 0x10
 3920 01b5 ED000000 		.4byte	0xed
 3921 01b9 10       		.uleb128 0x10
 3922 01ba E6000000 		.4byte	0xe6
 3923 01be 00       		.byte	0x0
 3924 01bf 0F       		.byte	0x0
 3925 01c0 DE010000 		.uleb128 0x12
 3926 01c4 7D000000 		.4byte	0x2f3
 3927 01c8 70000000 		.byte	0x1
 3928 01cc 74000000 		.4byte	.LASF16
 3929 01d0 01       		.byte	0x1
 3930 01d1 2B01     		.2byte	0x13d
 3931 01d3 10       		.byte	0x1
 3932 01d4 ED000000 		.4byte	.LFB13
 3933 01d8 10       		.4byte	.LFE13
 3934 01d9 E6000000 		.byte	0x1
 3935 01dd 00       		.byte	0x5d
 3936 01de 0F       		.uleb128 0xd
 3937 01df FD010000 		.4byte	.LASF17
 3938 01e3 7D000000 		.byte	0x1
 3939 01e7 74000000 		.2byte	0x13c
 3940 01eb 80000000 		.4byte	0x2f3
 3941 01ef 01       		.byte	0x1
 3942 01f0 2E01     		.byte	0x50
 3943 01f2 10       		.uleb128 0xd
 3944 01f3 ED000000 		.4byte	.LASF18
 3945 01f7 10       		.byte	0x1
 3946 01f8 E6000000 		.2byte	0x13c
 3947 01fc 00       		.4byte	0x68
 3948 01fd 0F       		.byte	0x1
 3949 01fe 1C020000 		.byte	0x51
 3950 0202 7D000000 		.uleb128 0x13
 3951 0206 80000000 		.ascii	"i\000"
 3952 020a 8C000000 		.byte	0x1
 3953 020e 01       		.2byte	0x13e
 3954 020f 3101     		.4byte	0x68
 3955 0211 10       		.byte	0x1
 3956 0212 ED000000 		.byte	0x52
 3957 0216 10       		.uleb128 0x11
 3958 0217 E6000000 		.4byte	0x7d
ARM GAS  C:\DOCUME~1\pstang\LOCALS~1\Temp/cc80aaaa.s 			page 85


 3959 021b 00       		.4byte	.LBB498
 3960 021c 0F       		.4byte	.LBE498
 3961 021d 3B020000 		.byte	0x1
 3962 0221 7D000000 		.2byte	0x141
 3963 0225 8C000000 		.uleb128 0xa
 3964 0229 94000000 		.4byte	0xed
 3965 022d 01       		.byte	0x1
 3966 022e 3201     		.byte	0x53
 3967 0230 10       		.uleb128 0x10
 3968 0231 ED000000 		.4byte	0xe6
 3969 0235 10       		.byte	0x0
 3970 0236 E6000000 		.byte	0x0
 3971 023a 00       		.uleb128 0x14
 3972 023b 0F       		.byte	0x4
 3973 023c 5A020000 		.4byte	0x30
 3974 0240 7D000000 		.uleb128 0x12
 3975 0244 94000000 		.4byte	0x34c
 3976 0248 A0000000 		.byte	0x1
 3977 024c 01       		.4byte	.LASF20
 3978 024d 3401     		.byte	0x1
 3979 024f 10       		.2byte	0x146
 3980 0250 ED000000 		.byte	0x1
 3981 0254 10       		.4byte	.LFB14
 3982 0255 E6000000 		.4byte	.LFE14
 3983 0259 00       		.byte	0x1
 3984 025a 0F       		.byte	0x5d
 3985 025b 79020000 		.uleb128 0xf
 3986 025f 7D000000 		.4byte	0x330
 3987 0263 A0000000 		.4byte	0x7d
 3988 0267 A4000000 		.4byte	.LBB500
 3989 026b 01       		.4byte	.LBE500
 3990 026c 3501     		.byte	0x1
 3991 026e 10       		.2byte	0x148
 3992 026f ED000000 		.uleb128 0x10
 3993 0273 10       		.4byte	0xed
 3994 0274 E6000000 		.uleb128 0x10
 3995 0278 00       		.4byte	0xe6
 3996 0279 11       		.byte	0x0
 3997 027a 7D000000 		.uleb128 0x11
 3998 027e A4000000 		.4byte	0x7d
 3999 0282 AC000000 		.4byte	.LBB502
 4000 0286 01       		.4byte	.LBE502
 4001 0287 3801     		.byte	0x1
 4002 0289 10       		.2byte	0x14b
 4003 028a ED000000 		.uleb128 0x10
 4004 028e 10       		.4byte	0xed
 4005 028f E6000000 		.uleb128 0x10
 4006 0293 00       		.4byte	0xe6
 4007 0294 00       		.byte	0x0
 4008 0295 12       		.byte	0x0
 4009 0296 F3020000 		.uleb128 0x15
 4010 029a 01       		.4byte	0x384
 4011 029b 07000000 		.byte	0x1
 4012 029f 01       		.4byte	.LASF21
 4013 02a0 3D01     		.byte	0x1
 4014 02a2 01       		.byte	0x2a
 4015 02a3 B0000000 		.byte	0x1
ARM GAS  C:\DOCUME~1\pstang\LOCALS~1\Temp/cc80aaaa.s 			page 86


 4016 02a7 DC000000 		.4byte	.LFB3
 4017 02ab 01       		.4byte	.LFE3
 4018 02ac 5D       		.4byte	.LLST7
 4019 02ad 0D       		.uleb128 0x16
 4020 02ae 00030000 		.ascii	"len\000"
 4021 02b2 01       		.byte	0x1
 4022 02b3 3C01     		.byte	0x29
 4023 02b5 F3020000 		.4byte	0x68
 4024 02b9 01       		.4byte	.LLST8
 4025 02ba 50       		.uleb128 0x17
 4026 02bb 0D       		.4byte	.LASF22
 4027 02bc C5010000 		.byte	0x1
 4028 02c0 01       		.byte	0x29
 4029 02c1 3C01     		.4byte	0x2f3
 4030 02c3 68000000 		.4byte	.LLST9
 4031 02c7 01       		.byte	0x0
 4032 02c8 51       		.uleb128 0xc
 4033 02c9 13       		.4byte	0x4d4
 4034 02ca 6900     		.byte	0x1
 4035 02cc 01       		.4byte	.LASF23
 4036 02cd 3E01     		.byte	0x1
 4037 02cf 68000000 		.2byte	0x19f
 4038 02d3 01       		.byte	0x1
 4039 02d4 52       		.4byte	.LFB16
 4040 02d5 11       		.4byte	.LFE16
 4041 02d6 7D000000 		.4byte	.LLST10
 4042 02da C8000000 		.uleb128 0xd
 4043 02de CC000000 		.4byte	.LASF17
 4044 02e2 01       		.byte	0x1
 4045 02e3 4101     		.2byte	0x19e
 4046 02e5 0A       		.4byte	0x2f3
 4047 02e6 ED000000 		.byte	0x1
 4048 02ea 01       		.byte	0x50
 4049 02eb 53       		.uleb128 0x18
 4050 02ec 10       		.4byte	.LASF18
 4051 02ed E6000000 		.byte	0x1
 4052 02f1 00       		.2byte	0x19e
 4053 02f2 00       		.4byte	0x68
 4054 02f3 14       		.4byte	.LLST11
 4055 02f4 04       		.uleb128 0x19
 4056 02f5 30000000 		.ascii	"i\000"
 4057 02f9 12       		.byte	0x1
 4058 02fa 4C030000 		.2byte	0x1a0
 4059 02fe 01       		.4byte	0x68
 4060 02ff 22010000 		.4byte	.LLST12
 4061 0303 01       		.uleb128 0xf
 4062 0304 4601     		.4byte	0x3e9
 4063 0306 01       		.4byte	0x7d
 4064 0307 DC000000 		.4byte	.LBB504
 4065 030b F8000000 		.4byte	.LBE504
 4066 030f 01       		.byte	0x1
 4067 0310 5D       		.2byte	0x1a3
 4068 0311 0F       		.uleb128 0x10
 4069 0312 30030000 		.4byte	0xed
 4070 0316 7D000000 		.uleb128 0x10
 4071 031a DC000000 		.4byte	0xe6
 4072 031e EC000000 		.byte	0x0
ARM GAS  C:\DOCUME~1\pstang\LOCALS~1\Temp/cc80aaaa.s 			page 87


 4073 0322 01       		.uleb128 0xf
 4074 0323 4801     		.4byte	0x408
 4075 0325 10       		.4byte	0x7d
 4076 0326 ED000000 		.4byte	.LBB506
 4077 032a 10       		.4byte	.LBE506
 4078 032b E6000000 		.byte	0x1
 4079 032f 00       		.2byte	0x1a4
 4080 0330 11       		.uleb128 0x10
 4081 0331 7D000000 		.4byte	0xed
 4082 0335 EC000000 		.uleb128 0x10
 4083 0339 F4000000 		.4byte	0xe6
 4084 033d 01       		.byte	0x0
 4085 033e 4B01     		.uleb128 0xf
 4086 0340 10       		.4byte	0x427
 4087 0341 ED000000 		.4byte	0x7d
 4088 0345 10       		.4byte	.LBB508
 4089 0346 E6000000 		.4byte	.LBE508
 4090 034a 00       		.byte	0x1
 4091 034b 00       		.2byte	0x1a5
 4092 034c 15       		.uleb128 0x10
 4093 034d 84030000 		.4byte	0xed
 4094 0351 01       		.uleb128 0x10
 4095 0352 C6020000 		.4byte	0xe6
 4096 0356 01       		.byte	0x0
 4097 0357 2A       		.uleb128 0xf
 4098 0358 01       		.4byte	0x446
 4099 0359 F8000000 		.4byte	0x7d
 4100 035d 1C010000 		.4byte	.LBB510
 4101 0361 32000000 		.4byte	.LBE510
 4102 0365 16       		.byte	0x1
 4103 0366 6C656E00 		.2byte	0x1a6
 4104 036a 01       		.uleb128 0x10
 4105 036b 29       		.4byte	0xed
 4106 036c 68000000 		.uleb128 0x10
 4107 0370 51000000 		.4byte	0xe6
 4108 0374 17       		.byte	0x0
 4109 0375 EA000000 		.uleb128 0xf
 4110 0379 01       		.4byte	0x465
 4111 037a 29       		.4byte	0x7d
 4112 037b F3020000 		.4byte	.LBB512
 4113 037f 6F000000 		.4byte	.LBE512
 4114 0383 00       		.byte	0x1
 4115 0384 0C       		.2byte	0x1a7
 4116 0385 D4040000 		.uleb128 0x10
 4117 0389 01       		.4byte	0xed
 4118 038a 87020000 		.uleb128 0x10
 4119 038e 01       		.4byte	0xe6
 4120 038f 9F01     		.byte	0x0
 4121 0391 01       		.uleb128 0xf
 4122 0392 1C010000 		.4byte	0x47f
 4123 0396 E0010000 		.4byte	0xa2
 4124 039a 8D000000 		.4byte	.LBB514
 4125 039e 0D       		.4byte	.LBE514
 4126 039f 00030000 		.byte	0x1
 4127 03a3 01       		.2byte	0x1a9
 4128 03a4 9E01     		.uleb128 0x10
 4129 03a6 F3020000 		.4byte	0x108
ARM GAS  C:\DOCUME~1\pstang\LOCALS~1\Temp/cc80aaaa.s 			page 88


 4130 03aa 01       		.byte	0x0
 4131 03ab 50       		.uleb128 0xf
 4132 03ac 18       		.4byte	0x49e
 4133 03ad C5010000 		.4byte	0x7d
 4134 03b1 01       		.4byte	.LBB516
 4135 03b2 9E01     		.4byte	.LBE516
 4136 03b4 68000000 		.byte	0x1
 4137 03b8 AC000000 		.2byte	0x1ac
 4138 03bc 19       		.uleb128 0x10
 4139 03bd 6900     		.4byte	0xed
 4140 03bf 01       		.uleb128 0x10
 4141 03c0 A001     		.4byte	0xe6
 4142 03c2 68000000 		.byte	0x0
 4143 03c6 CA000000 		.uleb128 0xf
 4144 03ca 0F       		.4byte	0x4b8
 4145 03cb E9030000 		.4byte	0xa2
 4146 03cf 7D000000 		.4byte	.LBB518
 4147 03d3 28010000 		.4byte	.LBE518
 4148 03d7 3C010000 		.byte	0x1
 4149 03db 01       		.2byte	0x1ae
 4150 03dc A301     		.uleb128 0x10
 4151 03de 10       		.4byte	0x108
 4152 03df ED000000 		.byte	0x0
 4153 03e3 10       		.uleb128 0x11
 4154 03e4 E6000000 		.4byte	0x7d
 4155 03e8 00       		.4byte	.LBB520
 4156 03e9 0F       		.4byte	.LBE520
 4157 03ea 08040000 		.byte	0x1
 4158 03ee 7D000000 		.2byte	0x1b0
 4159 03f2 3C010000 		.uleb128 0x10
 4160 03f6 40010000 		.4byte	0xed
 4161 03fa 01       		.uleb128 0x10
 4162 03fb A401     		.4byte	0xe6
 4163 03fd 10       		.byte	0x0
 4164 03fe ED000000 		.byte	0x0
 4165 0402 10       		.uleb128 0x12
 4166 0403 E6000000 		.4byte	0x580
 4167 0407 00       		.byte	0x1
 4168 0408 0F       		.4byte	.LASF24
 4169 0409 27040000 		.byte	0x1
 4170 040d 7D000000 		.2byte	0x1b9
 4171 0411 4C010000 		.byte	0x1
 4172 0415 58010000 		.4byte	.LFB17
 4173 0419 01       		.4byte	.LFE17
 4174 041a A501     		.byte	0x1
 4175 041c 10       		.byte	0x5d
 4176 041d ED000000 		.uleb128 0x19
 4177 0421 10       		.ascii	"i\000"
 4178 0422 E6000000 		.byte	0x1
 4179 0426 00       		.2byte	0x1ba
 4180 0427 0F       		.4byte	0x30
 4181 0428 46040000 		.4byte	.LLST14
 4182 042c 7D000000 		.uleb128 0x1a
 4183 0430 58010000 		.4byte	.LASF25
 4184 0434 5C010000 		.byte	0x1
 4185 0438 01       		.2byte	0x1bb
 4186 0439 A601     		.4byte	0x30
ARM GAS  C:\DOCUME~1\pstang\LOCALS~1\Temp/cc80aaaa.s 			page 89


 4187 043b 10       		.4byte	.LLST15
 4188 043c ED000000 		.uleb128 0xf
 4189 0440 10       		.4byte	0x529
 4190 0441 E6000000 		.4byte	0x7d
 4191 0445 00       		.4byte	.LBB522
 4192 0446 0F       		.4byte	.LBE522
 4193 0447 65040000 		.byte	0x1
 4194 044b 7D000000 		.2byte	0x1be
 4195 044f 5C010000 		.uleb128 0x10
 4196 0453 64010000 		.4byte	0xed
 4197 0457 01       		.uleb128 0x10
 4198 0458 A701     		.4byte	0xe6
 4199 045a 10       		.byte	0x0
 4200 045b ED000000 		.uleb128 0xf
 4201 045f 10       		.4byte	0x543
 4202 0460 E6000000 		.4byte	0xa2
 4203 0464 00       		.4byte	.LBB524
 4204 0465 0F       		.4byte	.LBE524
 4205 0466 7F040000 		.byte	0x1
 4206 046a A2000000 		.2byte	0x1c0
 4207 046e 70010000 		.uleb128 0x10
 4208 0472 74010000 		.4byte	0x108
 4209 0476 01       		.byte	0x0
 4210 0477 A901     		.uleb128 0xf
 4211 0479 10       		.4byte	0x562
 4212 047a 08010000 		.4byte	0x7d
 4213 047e 00       		.4byte	.LBB526
 4214 047f 0F       		.4byte	.LBE526
 4215 0480 9E040000 		.byte	0x1
 4216 0484 7D000000 		.2byte	0x1c2
 4217 0488 84010000 		.uleb128 0x10
 4218 048c 9C010000 		.4byte	0xed
 4219 0490 01       		.uleb128 0x10
 4220 0491 AC01     		.4byte	0xe6
 4221 0493 10       		.byte	0x0
 4222 0494 ED000000 		.uleb128 0x11
 4223 0498 10       		.4byte	0x7d
 4224 0499 E6000000 		.4byte	.LBB528
 4225 049d 00       		.4byte	.LBE528
 4226 049e 0F       		.byte	0x1
 4227 049f B8040000 		.2byte	0x1c9
 4228 04a3 A2000000 		.uleb128 0xa
 4229 04a7 9C010000 		.4byte	0xed
 4230 04ab A0010000 		.byte	0x1
 4231 04af 01       		.byte	0x53
 4232 04b0 AE01     		.uleb128 0x10
 4233 04b2 10       		.4byte	0xe6
 4234 04b3 08010000 		.byte	0x0
 4235 04b7 00       		.byte	0x0
 4236 04b8 11       		.uleb128 0xc
 4237 04b9 7D000000 		.4byte	0xcda
 4238 04bd B4010000 		.byte	0x1
 4239 04c1 C0010000 		.4byte	.LASF26
 4240 04c5 01       		.byte	0x1
 4241 04c6 B001     		.2byte	0x227
 4242 04c8 10       		.byte	0x1
 4243 04c9 ED000000 		.4byte	.LFB20
ARM GAS  C:\DOCUME~1\pstang\LOCALS~1\Temp/cc80aaaa.s 			page 90


 4244 04cd 10       		.4byte	.LFE20
 4245 04ce E6000000 		.4byte	.LLST16
 4246 04d2 00       		.uleb128 0x18
 4247 04d3 00       		.4byte	.LASF27
 4248 04d4 12       		.byte	0x1
 4249 04d5 80050000 		.2byte	0x226
 4250 04d9 01       		.4byte	0x30
 4251 04da AC010000 		.4byte	.LLST17
 4252 04de 01       		.uleb128 0x18
 4253 04df B901     		.4byte	.LASF28
 4254 04e1 01       		.byte	0x1
 4255 04e2 E0010000 		.2byte	0x226
 4256 04e6 48020000 		.4byte	0x30
 4257 04ea 01       		.4byte	.LLST18
 4258 04eb 5D       		.uleb128 0x18
 4259 04ec 19       		.4byte	.LASF29
 4260 04ed 6900     		.byte	0x1
 4261 04ef 01       		.2byte	0x226
 4262 04f0 BA01     		.4byte	0x68
 4263 04f2 30000000 		.4byte	.LLST19
 4264 04f6 E8000000 		.uleb128 0x1a
 4265 04fa 1A       		.4byte	.LASF30
 4266 04fb 65010000 		.byte	0x1
 4267 04ff 01       		.2byte	0x228
 4268 0500 BB01     		.4byte	0x30
 4269 0502 30000000 		.4byte	.LLST20
 4270 0506 FB000000 		.uleb128 0x19
 4271 050a 0F       		.ascii	"i\000"
 4272 050b 29050000 		.byte	0x1
 4273 050f 7D000000 		.2byte	0x229
 4274 0513 E0010000 		.4byte	0x68
 4275 0517 F8010000 		.4byte	.LLST21
 4276 051b 01       		.uleb128 0xe
 4277 051c BE01     		.4byte	.LASF31
 4278 051e 10       		.byte	0x1
 4279 051f ED000000 		.2byte	0x229
 4280 0523 10       		.4byte	0x68
 4281 0524 E6000000 		.byte	0x1
 4282 0528 00       		.byte	0x50
 4283 0529 0F       		.uleb128 0xf
 4284 052a 43050000 		.4byte	0x610
 4285 052e A2000000 		.4byte	0xa2
 4286 0532 F8010000 		.4byte	.LBB530
 4287 0536 FC010000 		.4byte	.LBE530
 4288 053a 01       		.byte	0x1
 4289 053b C001     		.2byte	0x22b
 4290 053d 10       		.uleb128 0x10
 4291 053e 08010000 		.4byte	0x108
 4292 0542 00       		.byte	0x0
 4293 0543 0F       		.uleb128 0xf
 4294 0544 62050000 		.4byte	0x62f
 4295 0548 7D000000 		.4byte	0x7d
 4296 054c 14020000 		.4byte	.LBB532
 4297 0550 20020000 		.4byte	.LBE532
 4298 0554 01       		.byte	0x1
 4299 0555 C201     		.2byte	0x22b
 4300 0557 10       		.uleb128 0x10
ARM GAS  C:\DOCUME~1\pstang\LOCALS~1\Temp/cc80aaaa.s 			page 91


 4301 0558 ED000000 		.4byte	0xed
 4302 055c 10       		.uleb128 0x10
 4303 055d E6000000 		.4byte	0xe6
 4304 0561 00       		.byte	0x0
 4305 0562 11       		.uleb128 0xf
 4306 0563 7D000000 		.4byte	0x649
 4307 0567 38020000 		.4byte	0xa2
 4308 056b 40020000 		.4byte	.LBB534
 4309 056f 01       		.4byte	.LBE534
 4310 0570 C901     		.byte	0x1
 4311 0572 0A       		.2byte	0x22c
 4312 0573 ED000000 		.uleb128 0x10
 4313 0577 01       		.4byte	0x108
 4314 0578 53       		.byte	0x0
 4315 0579 10       		.uleb128 0xf
 4316 057a E6000000 		.4byte	0x668
 4317 057e 00       		.4byte	0x7d
 4318 057f 00       		.4byte	.LBB536
 4319 0580 0C       		.4byte	.LBE536
 4320 0581 DA0C0000 		.byte	0x1
 4321 0585 01       		.2byte	0x22c
 4322 0586 44010000 		.uleb128 0x10
 4323 058a 01       		.4byte	0xed
 4324 058b 2702     		.uleb128 0x10
 4325 058d 01       		.4byte	0xe6
 4326 058e 48020000 		.byte	0x0
 4327 0592 3C040000 		.uleb128 0xf
 4328 0596 0E010000 		.4byte	0x682
 4329 059a 18       		.4byte	0xa2
 4330 059b 0D020000 		.4byte	.LBB538
 4331 059f 01       		.4byte	.LBE538
 4332 05a0 2602     		.byte	0x1
 4333 05a2 30000000 		.2byte	0x22c
 4334 05a6 2D010000 		.uleb128 0x10
 4335 05aa 18       		.4byte	0x108
 4336 05ab 26000000 		.byte	0x0
 4337 05af 01       		.uleb128 0xf
 4338 05b0 2602     		.4byte	0x6a1
 4339 05b2 30000000 		.4byte	0x7d
 4340 05b6 40010000 		.4byte	.LBB540
 4341 05ba 18       		.4byte	.LBE540
 4342 05bb BE000000 		.byte	0x1
 4343 05bf 01       		.2byte	0x22c
 4344 05c0 2602     		.uleb128 0x10
 4345 05c2 68000000 		.4byte	0xed
 4346 05c6 53010000 		.uleb128 0x10
 4347 05ca 1A       		.4byte	0xe6
 4348 05cb E1020000 		.byte	0x0
 4349 05cf 01       		.uleb128 0xf
 4350 05d0 2802     		.4byte	0x6bb
 4351 05d2 30000000 		.4byte	0xa2
 4352 05d6 71010000 		.4byte	.LBB542
 4353 05da 19       		.4byte	.LBE542
 4354 05db 6900     		.byte	0x1
 4355 05dd 01       		.2byte	0x22c
 4356 05de 2902     		.uleb128 0x10
 4357 05e0 68000000 		.4byte	0x108
ARM GAS  C:\DOCUME~1\pstang\LOCALS~1\Temp/cc80aaaa.s 			page 92


 4358 05e4 8F010000 		.byte	0x0
 4359 05e8 0E       		.uleb128 0xf
 4360 05e9 F1000000 		.4byte	0x6da
 4361 05ed 01       		.4byte	0x7d
 4362 05ee 2902     		.4byte	.LBB544
 4363 05f0 68000000 		.4byte	.LBE544
 4364 05f4 01       		.byte	0x1
 4365 05f5 50       		.2byte	0x22c
 4366 05f6 0F       		.uleb128 0x10
 4367 05f7 10060000 		.4byte	0xed
 4368 05fb A2000000 		.uleb128 0x10
 4369 05ff 58020000 		.4byte	0xe6
 4370 0603 68020000 		.byte	0x0
 4371 0607 01       		.uleb128 0xf
 4372 0608 2B02     		.4byte	0x6f4
 4373 060a 10       		.4byte	0xa2
 4374 060b 08010000 		.4byte	.LBB546
 4375 060f 00       		.4byte	.LBE546
 4376 0610 0F       		.byte	0x1
 4377 0611 2F060000 		.2byte	0x22c
 4378 0615 7D000000 		.uleb128 0x10
 4379 0619 68020000 		.4byte	0x108
 4380 061d 6C020000 		.byte	0x0
 4381 0621 01       		.uleb128 0xf
 4382 0622 2B02     		.4byte	0x713
 4383 0624 10       		.4byte	0x7d
 4384 0625 ED000000 		.4byte	.LBB548
 4385 0629 10       		.4byte	.LBE548
 4386 062a E6000000 		.byte	0x1
 4387 062e 00       		.2byte	0x22c
 4388 062f 0F       		.uleb128 0x10
 4389 0630 49060000 		.4byte	0xed
 4390 0634 A2000000 		.uleb128 0x10
 4391 0638 6C020000 		.4byte	0xe6
 4392 063c 74020000 		.byte	0x0
 4393 0640 01       		.uleb128 0xf
 4394 0641 2C02     		.4byte	0x72d
 4395 0643 10       		.4byte	0xa2
 4396 0644 08010000 		.4byte	.LBB550
 4397 0648 00       		.4byte	.LBE550
 4398 0649 0F       		.byte	0x1
 4399 064a 68060000 		.2byte	0x22c
 4400 064e 7D000000 		.uleb128 0x10
 4401 0652 74020000 		.4byte	0x108
 4402 0656 78020000 		.byte	0x0
 4403 065a 01       		.uleb128 0xf
 4404 065b 2C02     		.4byte	0x74c
 4405 065d 10       		.4byte	0x7d
 4406 065e ED000000 		.4byte	.LBB552
 4407 0662 10       		.4byte	.LBE552
 4408 0663 E6000000 		.byte	0x1
 4409 0667 00       		.2byte	0x22c
 4410 0668 0F       		.uleb128 0x10
 4411 0669 82060000 		.4byte	0xed
 4412 066d A2000000 		.uleb128 0x10
 4413 0671 78020000 		.4byte	0xe6
 4414 0675 80020000 		.byte	0x0
ARM GAS  C:\DOCUME~1\pstang\LOCALS~1\Temp/cc80aaaa.s 			page 93


 4415 0679 01       		.uleb128 0xf
 4416 067a 2C02     		.4byte	0x766
 4417 067c 10       		.4byte	0xa2
 4418 067d 08010000 		.4byte	.LBB554
 4419 0681 00       		.4byte	.LBE554
 4420 0682 0F       		.byte	0x1
 4421 0683 A1060000 		.2byte	0x22c
 4422 0687 7D000000 		.uleb128 0x10
 4423 068b 80020000 		.4byte	0x108
 4424 068f 84020000 		.byte	0x0
 4425 0693 01       		.uleb128 0xf
 4426 0694 2C02     		.4byte	0x785
 4427 0696 10       		.4byte	0x7d
 4428 0697 ED000000 		.4byte	.LBB556
 4429 069b 10       		.4byte	.LBE556
 4430 069c E6000000 		.byte	0x1
 4431 06a0 00       		.2byte	0x22c
 4432 06a1 0F       		.uleb128 0x10
 4433 06a2 BB060000 		.4byte	0xed
 4434 06a6 A2000000 		.uleb128 0x10
 4435 06aa 84020000 		.4byte	0xe6
 4436 06ae 8C020000 		.byte	0x0
 4437 06b2 01       		.uleb128 0xf
 4438 06b3 2C02     		.4byte	0x79f
 4439 06b5 10       		.4byte	0xa2
 4440 06b6 08010000 		.4byte	.LBB558
 4441 06ba 00       		.4byte	.LBE558
 4442 06bb 0F       		.byte	0x1
 4443 06bc DA060000 		.2byte	0x22c
 4444 06c0 7D000000 		.uleb128 0x10
 4445 06c4 8C020000 		.4byte	0x108
 4446 06c8 90020000 		.byte	0x0
 4447 06cc 01       		.uleb128 0xf
 4448 06cd 2C02     		.4byte	0x7be
 4449 06cf 10       		.4byte	0x7d
 4450 06d0 ED000000 		.4byte	.LBB560
 4451 06d4 10       		.4byte	.LBE560
 4452 06d5 E6000000 		.byte	0x1
 4453 06d9 00       		.2byte	0x22c
 4454 06da 0F       		.uleb128 0x10
 4455 06db F4060000 		.4byte	0xed
 4456 06df A2000000 		.uleb128 0x10
 4457 06e3 90020000 		.4byte	0xe6
 4458 06e7 98020000 		.byte	0x0
 4459 06eb 01       		.uleb128 0xf
 4460 06ec 2C02     		.4byte	0x7d8
 4461 06ee 10       		.4byte	0xa2
 4462 06ef 08010000 		.4byte	.LBB562
 4463 06f3 00       		.4byte	.LBE562
 4464 06f4 0F       		.byte	0x1
 4465 06f5 13070000 		.2byte	0x22c
 4466 06f9 7D000000 		.uleb128 0x10
 4467 06fd 98020000 		.4byte	0x108
 4468 0701 9C020000 		.byte	0x0
 4469 0705 01       		.uleb128 0xf
 4470 0706 2C02     		.4byte	0x7f7
 4471 0708 10       		.4byte	0x7d
ARM GAS  C:\DOCUME~1\pstang\LOCALS~1\Temp/cc80aaaa.s 			page 94


 4472 0709 ED000000 		.4byte	.LBB564
 4473 070d 10       		.4byte	.LBE564
 4474 070e E6000000 		.byte	0x1
 4475 0712 00       		.2byte	0x22c
 4476 0713 0F       		.uleb128 0x10
 4477 0714 2D070000 		.4byte	0xed
 4478 0718 A2000000 		.uleb128 0x10
 4479 071c 9C020000 		.4byte	0xe6
 4480 0720 A4020000 		.byte	0x0
 4481 0724 01       		.uleb128 0xf
 4482 0725 2C02     		.4byte	0x811
 4483 0727 10       		.4byte	0xa2
 4484 0728 08010000 		.4byte	.LBB566
 4485 072c 00       		.4byte	.LBE566
 4486 072d 0F       		.byte	0x1
 4487 072e 4C070000 		.2byte	0x22c
 4488 0732 7D000000 		.uleb128 0x10
 4489 0736 A4020000 		.4byte	0x108
 4490 073a A8020000 		.byte	0x0
 4491 073e 01       		.uleb128 0xf
 4492 073f 2C02     		.4byte	0x830
 4493 0741 10       		.4byte	0x7d
 4494 0742 ED000000 		.4byte	.LBB568
 4495 0746 10       		.4byte	.LBE568
 4496 0747 E6000000 		.byte	0x1
 4497 074b 00       		.2byte	0x22c
 4498 074c 0F       		.uleb128 0x10
 4499 074d 66070000 		.4byte	0xed
 4500 0751 A2000000 		.uleb128 0x10
 4501 0755 A8020000 		.4byte	0xe6
 4502 0759 B0020000 		.byte	0x0
 4503 075d 01       		.uleb128 0xf
 4504 075e 2C02     		.4byte	0x84a
 4505 0760 10       		.4byte	0xa2
 4506 0761 08010000 		.4byte	.LBB570
 4507 0765 00       		.4byte	.LBE570
 4508 0766 0F       		.byte	0x1
 4509 0767 85070000 		.2byte	0x22c
 4510 076b 7D000000 		.uleb128 0x10
 4511 076f B0020000 		.4byte	0x108
 4512 0773 B4020000 		.byte	0x0
 4513 0777 01       		.uleb128 0xf
 4514 0778 2C02     		.4byte	0x869
 4515 077a 10       		.4byte	0x7d
 4516 077b ED000000 		.4byte	.LBB572
 4517 077f 10       		.4byte	.LBE572
 4518 0780 E6000000 		.byte	0x1
 4519 0784 00       		.2byte	0x22c
 4520 0785 0F       		.uleb128 0x10
 4521 0786 9F070000 		.4byte	0xed
 4522 078a A2000000 		.uleb128 0x10
 4523 078e B4020000 		.4byte	0xe6
 4524 0792 BC020000 		.byte	0x0
 4525 0796 01       		.uleb128 0xf
 4526 0797 2C02     		.4byte	0x883
 4527 0799 10       		.4byte	0xa2
 4528 079a 08010000 		.4byte	.LBB574
ARM GAS  C:\DOCUME~1\pstang\LOCALS~1\Temp/cc80aaaa.s 			page 95


 4529 079e 00       		.4byte	.LBE574
 4530 079f 0F       		.byte	0x1
 4531 07a0 BE070000 		.2byte	0x22c
 4532 07a4 7D000000 		.uleb128 0x10
 4533 07a8 BC020000 		.4byte	0x108
 4534 07ac C0020000 		.byte	0x0
 4535 07b0 01       		.uleb128 0xf
 4536 07b1 2C02     		.4byte	0x8a2
 4537 07b3 10       		.4byte	0x7d
 4538 07b4 ED000000 		.4byte	.LBB576
 4539 07b8 10       		.4byte	.LBE576
 4540 07b9 E6000000 		.byte	0x1
 4541 07bd 00       		.2byte	0x22c
 4542 07be 0F       		.uleb128 0x10
 4543 07bf D8070000 		.4byte	0xed
 4544 07c3 A2000000 		.uleb128 0x10
 4545 07c7 C0020000 		.4byte	0xe6
 4546 07cb C8020000 		.byte	0x0
 4547 07cf 01       		.uleb128 0xf
 4548 07d0 2C02     		.4byte	0x8bc
 4549 07d2 10       		.4byte	0xa2
 4550 07d3 08010000 		.4byte	.LBB578
 4551 07d7 00       		.4byte	.LBE578
 4552 07d8 0F       		.byte	0x1
 4553 07d9 F7070000 		.2byte	0x22c
 4554 07dd 7D000000 		.uleb128 0x10
 4555 07e1 C8020000 		.4byte	0x108
 4556 07e5 CC020000 		.byte	0x0
 4557 07e9 01       		.uleb128 0xf
 4558 07ea 2C02     		.4byte	0x8db
 4559 07ec 10       		.4byte	0x7d
 4560 07ed ED000000 		.4byte	.LBB580
 4561 07f1 10       		.4byte	.LBE580
 4562 07f2 E6000000 		.byte	0x1
 4563 07f6 00       		.2byte	0x22c
 4564 07f7 0F       		.uleb128 0x10
 4565 07f8 11080000 		.4byte	0xed
 4566 07fc A2000000 		.uleb128 0x10
 4567 0800 CC020000 		.4byte	0xe6
 4568 0804 D4020000 		.byte	0x0
 4569 0808 01       		.uleb128 0xf
 4570 0809 2C02     		.4byte	0x8f5
 4571 080b 10       		.4byte	0xa2
 4572 080c 08010000 		.4byte	.LBB582
 4573 0810 00       		.4byte	.LBE582
 4574 0811 0F       		.byte	0x1
 4575 0812 30080000 		.2byte	0x232
 4576 0816 7D000000 		.uleb128 0x10
 4577 081a D4020000 		.4byte	0x108
 4578 081e D8020000 		.byte	0x0
 4579 0822 01       		.uleb128 0xf
 4580 0823 2C02     		.4byte	0x914
 4581 0825 10       		.4byte	0x7d
 4582 0826 ED000000 		.4byte	.LBB584
 4583 082a 10       		.4byte	.LBE584
 4584 082b E6000000 		.byte	0x1
 4585 082f 00       		.2byte	0x232
ARM GAS  C:\DOCUME~1\pstang\LOCALS~1\Temp/cc80aaaa.s 			page 96


 4586 0830 0F       		.uleb128 0x10
 4587 0831 4A080000 		.4byte	0xed
 4588 0835 A2000000 		.uleb128 0x10
 4589 0839 D8020000 		.4byte	0xe6
 4590 083d E0020000 		.byte	0x0
 4591 0841 01       		.uleb128 0xf
 4592 0842 2C02     		.4byte	0x92e
 4593 0844 10       		.4byte	0xa2
 4594 0845 08010000 		.4byte	.LBB586
 4595 0849 00       		.4byte	.LBE586
 4596 084a 0F       		.byte	0x1
 4597 084b 69080000 		.2byte	0x234
 4598 084f 7D000000 		.uleb128 0x10
 4599 0853 E0020000 		.4byte	0x108
 4600 0857 E4020000 		.byte	0x0
 4601 085b 01       		.uleb128 0xf
 4602 085c 2C02     		.4byte	0x94d
 4603 085e 10       		.4byte	0x7d
 4604 085f ED000000 		.4byte	.LBB588
 4605 0863 10       		.4byte	.LBE588
 4606 0864 E6000000 		.byte	0x1
 4607 0868 00       		.2byte	0x234
 4608 0869 0F       		.uleb128 0x10
 4609 086a 83080000 		.4byte	0xed
 4610 086e A2000000 		.uleb128 0x10
 4611 0872 E4020000 		.4byte	0xe6
 4612 0876 EC020000 		.byte	0x0
 4613 087a 01       		.uleb128 0xf
 4614 087b 2C02     		.4byte	0x967
 4615 087d 10       		.4byte	0xa2
 4616 087e 08010000 		.4byte	.LBB590
 4617 0882 00       		.4byte	.LBE590
 4618 0883 0F       		.byte	0x1
 4619 0884 A2080000 		.2byte	0x235
 4620 0888 7D000000 		.uleb128 0x10
 4621 088c EC020000 		.4byte	0x108
 4622 0890 F0020000 		.byte	0x0
 4623 0894 01       		.uleb128 0xf
 4624 0895 2C02     		.4byte	0x986
 4625 0897 10       		.4byte	0x7d
 4626 0898 ED000000 		.4byte	.LBB592
 4627 089c 10       		.4byte	.LBE592
 4628 089d E6000000 		.byte	0x1
 4629 08a1 00       		.2byte	0x235
 4630 08a2 0F       		.uleb128 0x10
 4631 08a3 BC080000 		.4byte	0xed
 4632 08a7 A2000000 		.uleb128 0x10
 4633 08ab F0020000 		.4byte	0xe6
 4634 08af F8020000 		.byte	0x0
 4635 08b3 01       		.uleb128 0xf
 4636 08b4 2C02     		.4byte	0x9a0
 4637 08b6 10       		.4byte	0xa2
 4638 08b7 08010000 		.4byte	.LBB594
 4639 08bb 00       		.4byte	.LBE594
 4640 08bc 0F       		.byte	0x1
 4641 08bd DB080000 		.2byte	0x235
 4642 08c1 7D000000 		.uleb128 0x10
ARM GAS  C:\DOCUME~1\pstang\LOCALS~1\Temp/cc80aaaa.s 			page 97


 4643 08c5 F8020000 		.4byte	0x108
 4644 08c9 04030000 		.byte	0x0
 4645 08cd 01       		.uleb128 0xf
 4646 08ce 2C02     		.4byte	0x9bf
 4647 08d0 10       		.4byte	0x7d
 4648 08d1 ED000000 		.4byte	.LBB596
 4649 08d5 10       		.4byte	.LBE596
 4650 08d6 E6000000 		.byte	0x1
 4651 08da 00       		.2byte	0x235
 4652 08db 0F       		.uleb128 0x10
 4653 08dc F5080000 		.4byte	0xed
 4654 08e0 A2000000 		.uleb128 0x10
 4655 08e4 08030000 		.4byte	0xe6
 4656 08e8 10030000 		.byte	0x0
 4657 08ec 01       		.uleb128 0xf
 4658 08ed 3202     		.4byte	0x9d9
 4659 08ef 10       		.4byte	0xa2
 4660 08f0 08010000 		.4byte	.LBB598
 4661 08f4 00       		.4byte	.LBE598
 4662 08f5 0F       		.byte	0x1
 4663 08f6 14090000 		.2byte	0x23c
 4664 08fa 7D000000 		.uleb128 0x10
 4665 08fe 10030000 		.4byte	0x108
 4666 0902 14030000 		.byte	0x0
 4667 0906 01       		.uleb128 0xf
 4668 0907 3202     		.4byte	0x9f8
 4669 0909 10       		.4byte	0x7d
 4670 090a ED000000 		.4byte	.LBB600
 4671 090e 10       		.4byte	.LBE600
 4672 090f E6000000 		.byte	0x1
 4673 0913 00       		.2byte	0x23c
 4674 0914 0F       		.uleb128 0x10
 4675 0915 2E090000 		.4byte	0xed
 4676 0919 A2000000 		.uleb128 0x10
 4677 091d 14030000 		.4byte	0xe6
 4678 0921 1C030000 		.byte	0x0
 4679 0925 01       		.uleb128 0xf
 4680 0926 3402     		.4byte	0xa12
 4681 0928 10       		.4byte	0xa2
 4682 0929 08010000 		.4byte	.LBB602
 4683 092d 00       		.4byte	.LBE602
 4684 092e 0F       		.byte	0x1
 4685 092f 4D090000 		.2byte	0x23e
 4686 0933 7D000000 		.uleb128 0x10
 4687 0937 1C030000 		.4byte	0x108
 4688 093b 20030000 		.byte	0x0
 4689 093f 01       		.uleb128 0xf
 4690 0940 3402     		.4byte	0xa31
 4691 0942 10       		.4byte	0x7d
 4692 0943 ED000000 		.4byte	.LBB604
 4693 0947 10       		.4byte	.LBE604
 4694 0948 E6000000 		.byte	0x1
 4695 094c 00       		.2byte	0x23e
 4696 094d 0F       		.uleb128 0x10
 4697 094e 67090000 		.4byte	0xed
 4698 0952 A2000000 		.uleb128 0x10
 4699 0956 20030000 		.4byte	0xe6
ARM GAS  C:\DOCUME~1\pstang\LOCALS~1\Temp/cc80aaaa.s 			page 98


 4700 095a 28030000 		.byte	0x0
 4701 095e 01       		.uleb128 0xf
 4702 095f 3502     		.4byte	0xa4b
 4703 0961 10       		.4byte	0xa2
 4704 0962 08010000 		.4byte	.LBB606
 4705 0966 00       		.4byte	.LBE606
 4706 0967 0F       		.byte	0x1
 4707 0968 86090000 		.2byte	0x23f
 4708 096c 7D000000 		.uleb128 0x10
 4709 0970 28030000 		.4byte	0x108
 4710 0974 2C030000 		.byte	0x0
 4711 0978 01       		.uleb128 0xf
 4712 0979 3502     		.4byte	0xa6a
 4713 097b 10       		.4byte	0x7d
 4714 097c ED000000 		.4byte	.LBB608
 4715 0980 10       		.4byte	.LBE608
 4716 0981 E6000000 		.byte	0x1
 4717 0985 00       		.2byte	0x23f
 4718 0986 0F       		.uleb128 0x10
 4719 0987 A0090000 		.4byte	0xed
 4720 098b A2000000 		.uleb128 0x10
 4721 098f 2C030000 		.4byte	0xe6
 4722 0993 34030000 		.byte	0x0
 4723 0997 01       		.uleb128 0xf
 4724 0998 3502     		.4byte	0xa84
 4725 099a 10       		.4byte	0xa2
 4726 099b 08010000 		.4byte	.LBB610
 4727 099f 00       		.4byte	.LBE610
 4728 09a0 0F       		.byte	0x1
 4729 09a1 BF090000 		.2byte	0x23f
 4730 09a5 7D000000 		.uleb128 0x10
 4731 09a9 34030000 		.4byte	0x108
 4732 09ad 38030000 		.byte	0x0
 4733 09b1 01       		.uleb128 0xf
 4734 09b2 3502     		.4byte	0xaa3
 4735 09b4 10       		.4byte	0x7d
 4736 09b5 ED000000 		.4byte	.LBB612
 4737 09b9 10       		.4byte	.LBE612
 4738 09ba E6000000 		.byte	0x1
 4739 09be 00       		.2byte	0x23f
 4740 09bf 0F       		.uleb128 0x10
 4741 09c0 D9090000 		.4byte	0xed
 4742 09c4 A2000000 		.uleb128 0x10
 4743 09c8 5C030000 		.4byte	0xe6
 4744 09cc 64030000 		.byte	0x0
 4745 09d0 01       		.uleb128 0xf
 4746 09d1 3C02     		.4byte	0xabd
 4747 09d3 10       		.4byte	0xa2
 4748 09d4 08010000 		.4byte	.LBB614
 4749 09d8 00       		.4byte	.LBE614
 4750 09d9 0F       		.byte	0x1
 4751 09da F8090000 		.2byte	0x242
 4752 09de 7D000000 		.uleb128 0x10
 4753 09e2 64030000 		.4byte	0x108
 4754 09e6 68030000 		.byte	0x0
 4755 09ea 01       		.uleb128 0xf
 4756 09eb 3C02     		.4byte	0xadc
ARM GAS  C:\DOCUME~1\pstang\LOCALS~1\Temp/cc80aaaa.s 			page 99


 4757 09ed 10       		.4byte	0x7d
 4758 09ee ED000000 		.4byte	.LBB616
 4759 09f2 10       		.4byte	.LBE616
 4760 09f3 E6000000 		.byte	0x1
 4761 09f7 00       		.2byte	0x242
 4762 09f8 0F       		.uleb128 0x10
 4763 09f9 120A0000 		.4byte	0xed
 4764 09fd A2000000 		.uleb128 0x10
 4765 0a01 68030000 		.4byte	0xe6
 4766 0a05 70030000 		.byte	0x0
 4767 0a09 01       		.uleb128 0xf
 4768 0a0a 3E02     		.4byte	0xaf6
 4769 0a0c 10       		.4byte	0xa2
 4770 0a0d 08010000 		.4byte	.LBB618
 4771 0a11 00       		.4byte	.LBE618
 4772 0a12 0F       		.byte	0x1
 4773 0a13 310A0000 		.2byte	0x242
 4774 0a17 7D000000 		.uleb128 0x10
 4775 0a1b 70030000 		.4byte	0x108
 4776 0a1f 74030000 		.byte	0x0
 4777 0a23 01       		.uleb128 0xf
 4778 0a24 3E02     		.4byte	0xb15
 4779 0a26 10       		.4byte	0x7d
 4780 0a27 ED000000 		.4byte	.LBB620
 4781 0a2b 10       		.4byte	.LBE620
 4782 0a2c E6000000 		.byte	0x1
 4783 0a30 00       		.2byte	0x242
 4784 0a31 0F       		.uleb128 0x10
 4785 0a32 4B0A0000 		.4byte	0xed
 4786 0a36 A2000000 		.uleb128 0x10
 4787 0a3a 74030000 		.4byte	0xe6
 4788 0a3e 7C030000 		.byte	0x0
 4789 0a42 01       		.uleb128 0xf
 4790 0a43 3F02     		.4byte	0xb2f
 4791 0a45 10       		.4byte	0xa2
 4792 0a46 08010000 		.4byte	.LBB622
 4793 0a4a 00       		.4byte	.LBE622
 4794 0a4b 0F       		.byte	0x1
 4795 0a4c 6A0A0000 		.2byte	0x242
 4796 0a50 7D000000 		.uleb128 0x10
 4797 0a54 7C030000 		.4byte	0x108
 4798 0a58 80030000 		.byte	0x0
 4799 0a5c 01       		.uleb128 0xf
 4800 0a5d 3F02     		.4byte	0xb4e
 4801 0a5f 10       		.4byte	0x7d
 4802 0a60 ED000000 		.4byte	.LBB624
 4803 0a64 10       		.4byte	.LBE624
 4804 0a65 E6000000 		.byte	0x1
 4805 0a69 00       		.2byte	0x242
 4806 0a6a 0F       		.uleb128 0x10
 4807 0a6b 840A0000 		.4byte	0xed
 4808 0a6f A2000000 		.uleb128 0x10
 4809 0a73 80030000 		.4byte	0xe6
 4810 0a77 88030000 		.byte	0x0
 4811 0a7b 01       		.uleb128 0xf
 4812 0a7c 3F02     		.4byte	0xb68
 4813 0a7e 10       		.4byte	0xa2
ARM GAS  C:\DOCUME~1\pstang\LOCALS~1\Temp/cc80aaaa.s 			page 100


 4814 0a7f 08010000 		.4byte	.LBB626
 4815 0a83 00       		.4byte	.LBE626
 4816 0a84 0F       		.byte	0x1
 4817 0a85 A30A0000 		.2byte	0x242
 4818 0a89 7D000000 		.uleb128 0x10
 4819 0a8d 88030000 		.4byte	0x108
 4820 0a91 8C030000 		.byte	0x0
 4821 0a95 01       		.uleb128 0xf
 4822 0a96 3F02     		.4byte	0xb87
 4823 0a98 10       		.4byte	0x7d
 4824 0a99 ED000000 		.4byte	.LBB628
 4825 0a9d 10       		.4byte	.LBE628
 4826 0a9e E6000000 		.byte	0x1
 4827 0aa2 00       		.2byte	0x242
 4828 0aa3 0F       		.uleb128 0x10
 4829 0aa4 BD0A0000 		.4byte	0xed
 4830 0aa8 A2000000 		.uleb128 0x10
 4831 0aac 9C030000 		.4byte	0xe6
 4832 0ab0 AC030000 		.byte	0x0
 4833 0ab4 01       		.uleb128 0xf
 4834 0ab5 4202     		.4byte	0xba1
 4835 0ab7 10       		.4byte	0xa2
 4836 0ab8 08010000 		.4byte	.LBB630
 4837 0abc 00       		.4byte	.LBE630
 4838 0abd 0F       		.byte	0x1
 4839 0abe DC0A0000 		.2byte	0x242
 4840 0ac2 7D000000 		.uleb128 0x10
 4841 0ac6 AC030000 		.4byte	0x108
 4842 0aca B0030000 		.byte	0x0
 4843 0ace 01       		.uleb128 0xf
 4844 0acf 4202     		.4byte	0xbc0
 4845 0ad1 10       		.4byte	0x7d
 4846 0ad2 ED000000 		.4byte	.LBB632
 4847 0ad6 10       		.4byte	.LBE632
 4848 0ad7 E6000000 		.byte	0x1
 4849 0adb 00       		.2byte	0x242
 4850 0adc 0F       		.uleb128 0x10
 4851 0add F60A0000 		.4byte	0xed
 4852 0ae1 A2000000 		.uleb128 0x10
 4853 0ae5 B0030000 		.4byte	0xe6
 4854 0ae9 B8030000 		.byte	0x0
 4855 0aed 01       		.uleb128 0xf
 4856 0aee 4202     		.4byte	0xbda
 4857 0af0 10       		.4byte	0xa2
 4858 0af1 08010000 		.4byte	.LBB634
 4859 0af5 00       		.4byte	.LBE634
 4860 0af6 0F       		.byte	0x1
 4861 0af7 150B0000 		.2byte	0x242
 4862 0afb 7D000000 		.uleb128 0x10
 4863 0aff B8030000 		.4byte	0x108
 4864 0b03 BC030000 		.byte	0x0
 4865 0b07 01       		.uleb128 0xf
 4866 0b08 4202     		.4byte	0xbf9
 4867 0b0a 10       		.4byte	0x7d
 4868 0b0b ED000000 		.4byte	.LBB636
 4869 0b0f 10       		.4byte	.LBE636
 4870 0b10 E6000000 		.byte	0x1
ARM GAS  C:\DOCUME~1\pstang\LOCALS~1\Temp/cc80aaaa.s 			page 101


 4871 0b14 00       		.2byte	0x242
 4872 0b15 0F       		.uleb128 0x10
 4873 0b16 2F0B0000 		.4byte	0xed
 4874 0b1a A2000000 		.uleb128 0x10
 4875 0b1e BC030000 		.4byte	0xe6
 4876 0b22 C4030000 		.byte	0x0
 4877 0b26 01       		.uleb128 0xf
 4878 0b27 4202     		.4byte	0xc13
 4879 0b29 10       		.4byte	0xa2
 4880 0b2a 08010000 		.4byte	.LBB638
 4881 0b2e 00       		.4byte	.LBE638
 4882 0b2f 0F       		.byte	0x1
 4883 0b30 4E0B0000 		.2byte	0x248
 4884 0b34 7D000000 		.uleb128 0x10
 4885 0b38 C4030000 		.4byte	0x108
 4886 0b3c C8030000 		.byte	0x0
 4887 0b40 01       		.uleb128 0xf
 4888 0b41 4202     		.4byte	0xc32
 4889 0b43 10       		.4byte	0x7d
 4890 0b44 ED000000 		.4byte	.LBB640
 4891 0b48 10       		.4byte	.LBE640
 4892 0b49 E6000000 		.byte	0x1
 4893 0b4d 00       		.2byte	0x248
 4894 0b4e 0F       		.uleb128 0x10
 4895 0b4f 680B0000 		.4byte	0xed
 4896 0b53 A2000000 		.uleb128 0x10
 4897 0b57 C8030000 		.4byte	0xe6
 4898 0b5b D0030000 		.byte	0x0
 4899 0b5f 01       		.uleb128 0xf
 4900 0b60 4202     		.4byte	0xc4c
 4901 0b62 10       		.4byte	0xa2
 4902 0b63 08010000 		.4byte	.LBB642
 4903 0b67 00       		.4byte	.LBE642
 4904 0b68 0F       		.byte	0x1
 4905 0b69 870B0000 		.2byte	0x24a
 4906 0b6d 7D000000 		.uleb128 0x10
 4907 0b71 D0030000 		.4byte	0x108
 4908 0b75 D4030000 		.byte	0x0
 4909 0b79 01       		.uleb128 0xf
 4910 0b7a 4202     		.4byte	0xc6b
 4911 0b7c 10       		.4byte	0x7d
 4912 0b7d ED000000 		.4byte	.LBB644
 4913 0b81 10       		.4byte	.LBE644
 4914 0b82 E6000000 		.byte	0x1
 4915 0b86 00       		.2byte	0x24a
 4916 0b87 0F       		.uleb128 0x10
 4917 0b88 A10B0000 		.4byte	0xed
 4918 0b8c A2000000 		.uleb128 0x10
 4919 0b90 D4030000 		.4byte	0xe6
 4920 0b94 DC030000 		.byte	0x0
 4921 0b98 01       		.uleb128 0xf
 4922 0b99 4202     		.4byte	0xc85
 4923 0b9b 10       		.4byte	0xa2
 4924 0b9c 08010000 		.4byte	.LBB646
 4925 0ba0 00       		.4byte	.LBE646
 4926 0ba1 0F       		.byte	0x1
 4927 0ba2 C00B0000 		.2byte	0x24b
ARM GAS  C:\DOCUME~1\pstang\LOCALS~1\Temp/cc80aaaa.s 			page 102


 4928 0ba6 7D000000 		.uleb128 0x10
 4929 0baa DC030000 		.4byte	0x108
 4930 0bae E0030000 		.byte	0x0
 4931 0bb2 01       		.uleb128 0xf
 4932 0bb3 4202     		.4byte	0xca4
 4933 0bb5 10       		.4byte	0x7d
 4934 0bb6 ED000000 		.4byte	.LBB648
 4935 0bba 10       		.4byte	.LBE648
 4936 0bbb E6000000 		.byte	0x1
 4937 0bbf 00       		.2byte	0x24b
 4938 0bc0 0F       		.uleb128 0x10
 4939 0bc1 DA0B0000 		.4byte	0xed
 4940 0bc5 A2000000 		.uleb128 0x10
 4941 0bc9 E0030000 		.4byte	0xe6
 4942 0bcd E8030000 		.byte	0x0
 4943 0bd1 01       		.uleb128 0xf
 4944 0bd2 4202     		.4byte	0xcbe
 4945 0bd4 10       		.4byte	0xa2
 4946 0bd5 08010000 		.4byte	.LBB650
 4947 0bd9 00       		.4byte	.LBE650
 4948 0bda 0F       		.byte	0x1
 4949 0bdb F90B0000 		.2byte	0x24b
 4950 0bdf 7D000000 		.uleb128 0x10
 4951 0be3 E8030000 		.4byte	0x108
 4952 0be7 F4030000 		.byte	0x0
 4953 0beb 01       		.uleb128 0x11
 4954 0bec 4202     		.4byte	0x7d
 4955 0bee 10       		.4byte	.LBB652
 4956 0bef ED000000 		.4byte	.LBE652
 4957 0bf3 10       		.byte	0x1
 4958 0bf4 E6000000 		.2byte	0x24b
 4959 0bf8 00       		.uleb128 0x10
 4960 0bf9 0F       		.4byte	0xed
 4961 0bfa 130C0000 		.uleb128 0x10
 4962 0bfe A2000000 		.4byte	0xe6
 4963 0c02 F8030000 		.byte	0x0
 4964 0c06 00040000 		.byte	0x0
 4965 0c0a 01       		.uleb128 0x1b
 4966 0c0b 4802     		.4byte	0x13a5
 4967 0c0d 10       		.byte	0x1
 4968 0c0e 08010000 		.4byte	.LASF32
 4969 0c12 00       		.byte	0x1
 4970 0c13 0F       		.2byte	0x251
 4971 0c14 320C0000 		.byte	0x1
 4972 0c18 7D000000 		.4byte	0x68
 4973 0c1c 00040000 		.4byte	.LFB21
 4974 0c20 04040000 		.4byte	.LFE21
 4975 0c24 01       		.4byte	.LLST22
 4976 0c25 4802     		.uleb128 0x18
 4977 0c27 10       		.4byte	.LASF27
 4978 0c28 ED000000 		.byte	0x1
 4979 0c2c 10       		.2byte	0x250
 4980 0c2d E6000000 		.4byte	0x30
 4981 0c31 00       		.4byte	.LLST23
 4982 0c32 0F       		.uleb128 0x18
 4983 0c33 4C0C0000 		.4byte	.LASF28
 4984 0c37 A2000000 		.byte	0x1
ARM GAS  C:\DOCUME~1\pstang\LOCALS~1\Temp/cc80aaaa.s 			page 103


 4985 0c3b 04040000 		.2byte	0x250
 4986 0c3f 0C040000 		.4byte	0x30
 4987 0c43 01       		.4byte	.LLST24
 4988 0c44 4A02     		.uleb128 0x1a
 4989 0c46 10       		.4byte	.LASF30
 4990 0c47 08010000 		.byte	0x1
 4991 0c4b 00       		.2byte	0x252
 4992 0c4c 0F       		.4byte	0x30
 4993 0c4d 6B0C0000 		.4byte	.LLST25
 4994 0c51 7D000000 		.uleb128 0x19
 4995 0c55 0C040000 		.ascii	"i\000"
 4996 0c59 10040000 		.byte	0x1
 4997 0c5d 01       		.2byte	0x252
 4998 0c5e 4A02     		.4byte	0x30
 4999 0c60 10       		.4byte	.LLST26
 5000 0c61 ED000000 		.uleb128 0xe
 5001 0c65 10       		.4byte	.LASF31
 5002 0c66 E6000000 		.byte	0x1
 5003 0c6a 00       		.2byte	0x253
 5004 0c6b 0F       		.4byte	0x68
 5005 0c6c 850C0000 		.byte	0x1
 5006 0c70 A2000000 		.byte	0x5c
 5007 0c74 10040000 		.uleb128 0xe
 5008 0c78 18040000 		.4byte	.LASF33
 5009 0c7c 01       		.byte	0x1
 5010 0c7d 4B02     		.2byte	0x253
 5011 0c7f 10       		.4byte	0x68
 5012 0c80 08010000 		.byte	0x1
 5013 0c84 00       		.byte	0x50
 5014 0c85 0F       		.uleb128 0xf
 5015 0c86 A40C0000 		.4byte	0xd6c
 5016 0c8a 7D000000 		.4byte	0xa2
 5017 0c8e 18040000 		.4byte	.LBB654
 5018 0c92 1C040000 		.4byte	.LBE654
 5019 0c96 01       		.byte	0x1
 5020 0c97 4B02     		.2byte	0x255
 5021 0c99 10       		.uleb128 0x10
 5022 0c9a ED000000 		.4byte	0x108
 5023 0c9e 10       		.byte	0x0
 5024 0c9f E6000000 		.uleb128 0xf
 5025 0ca3 00       		.4byte	0xd8b
 5026 0ca4 0F       		.4byte	0x7d
 5027 0ca5 BE0C0000 		.4byte	.LBB656
 5028 0ca9 A2000000 		.4byte	.LBE656
 5029 0cad 1C040000 		.byte	0x1
 5030 0cb1 24040000 		.2byte	0x255
 5031 0cb5 01       		.uleb128 0x10
 5032 0cb6 4B02     		.4byte	0xed
 5033 0cb8 10       		.uleb128 0x10
 5034 0cb9 08010000 		.4byte	0xe6
 5035 0cbd 00       		.byte	0x0
 5036 0cbe 11       		.uleb128 0xf
 5037 0cbf 7D000000 		.4byte	0xda5
 5038 0cc3 24040000 		.4byte	0xa2
 5039 0cc7 28040000 		.4byte	.LBB658
 5040 0ccb 01       		.4byte	.LBE658
 5041 0ccc 4B02     		.byte	0x1
ARM GAS  C:\DOCUME~1\pstang\LOCALS~1\Temp/cc80aaaa.s 			page 104


 5042 0cce 10       		.2byte	0x256
 5043 0ccf ED000000 		.uleb128 0x10
 5044 0cd3 10       		.4byte	0x108
 5045 0cd4 E6000000 		.byte	0x0
 5046 0cd8 00       		.uleb128 0xf
 5047 0cd9 00       		.4byte	0xdc4
 5048 0cda 1B       		.4byte	0x7d
 5049 0cdb A5130000 		.4byte	.LBB660
 5050 0cdf 01       		.4byte	.LBE660
 5051 0ce0 24030000 		.byte	0x1
 5052 0ce4 01       		.2byte	0x256
 5053 0ce5 5102     		.uleb128 0x10
 5054 0ce7 01       		.4byte	0xed
 5055 0ce8 68000000 		.uleb128 0x10
 5056 0cec 3C040000 		.4byte	0xe6
 5057 0cf0 38060000 		.byte	0x0
 5058 0cf4 B8010000 		.uleb128 0xf
 5059 0cf8 18       		.4byte	0xdde
 5060 0cf9 0D020000 		.4byte	0xa2
 5061 0cfd 01       		.4byte	.LBB662
 5062 0cfe 5002     		.4byte	.LBE662
 5063 0d00 30000000 		.byte	0x1
 5064 0d04 D7010000 		.2byte	0x256
 5065 0d08 18       		.uleb128 0x10
 5066 0d09 26000000 		.4byte	0x108
 5067 0d0d 01       		.byte	0x0
 5068 0d0e 5002     		.uleb128 0xf
 5069 0d10 30000000 		.4byte	0xdfd
 5070 0d14 EA010000 		.4byte	0x7d
 5071 0d18 1A       		.4byte	.LBB664
 5072 0d19 E1020000 		.4byte	.LBE664
 5073 0d1d 01       		.byte	0x1
 5074 0d1e 5202     		.2byte	0x256
 5075 0d20 30000000 		.uleb128 0x10
 5076 0d24 FD010000 		.4byte	0xed
 5077 0d28 19       		.uleb128 0x10
 5078 0d29 6900     		.4byte	0xe6
 5079 0d2b 01       		.byte	0x0
 5080 0d2c 5202     		.uleb128 0xf
 5081 0d2e 30000000 		.4byte	0xe17
 5082 0d32 1B020000 		.4byte	0xa2
 5083 0d36 0E       		.4byte	.LBB666
 5084 0d37 F1000000 		.4byte	.LBE666
 5085 0d3b 01       		.byte	0x1
 5086 0d3c 5302     		.2byte	0x256
 5087 0d3e 68000000 		.uleb128 0x10
 5088 0d42 01       		.4byte	0x108
 5089 0d43 5C       		.byte	0x0
 5090 0d44 0E       		.uleb128 0xf
 5091 0d45 E1000000 		.4byte	0xe36
 5092 0d49 01       		.4byte	0x7d
 5093 0d4a 5302     		.4byte	.LBB668
 5094 0d4c 68000000 		.4byte	.LBE668
 5095 0d50 01       		.byte	0x1
 5096 0d51 50       		.2byte	0x256
 5097 0d52 0F       		.uleb128 0x10
 5098 0d53 6C0D0000 		.4byte	0xed
ARM GAS  C:\DOCUME~1\pstang\LOCALS~1\Temp/cc80aaaa.s 			page 105


 5099 0d57 A2000000 		.uleb128 0x10
 5100 0d5b 48040000 		.4byte	0xe6
 5101 0d5f 58040000 		.byte	0x0
 5102 0d63 01       		.uleb128 0xf
 5103 0d64 5502     		.4byte	0xe50
 5104 0d66 10       		.4byte	0xa2
 5105 0d67 08010000 		.4byte	.LBB670
 5106 0d6b 00       		.4byte	.LBE670
 5107 0d6c 0F       		.byte	0x1
 5108 0d6d 8B0D0000 		.2byte	0x256
 5109 0d71 7D000000 		.uleb128 0x10
 5110 0d75 58040000 		.4byte	0x108
 5111 0d79 5C040000 		.byte	0x0
 5112 0d7d 01       		.uleb128 0xf
 5113 0d7e 5502     		.4byte	0xe6f
 5114 0d80 10       		.4byte	0x7d
 5115 0d81 ED000000 		.4byte	.LBB672
 5116 0d85 10       		.4byte	.LBE672
 5117 0d86 E6000000 		.byte	0x1
 5118 0d8a 00       		.2byte	0x256
 5119 0d8b 0F       		.uleb128 0x10
 5120 0d8c A50D0000 		.4byte	0xed
 5121 0d90 A2000000 		.uleb128 0x10
 5122 0d94 5C040000 		.4byte	0xe6
 5123 0d98 64040000 		.byte	0x0
 5124 0d9c 01       		.uleb128 0xf
 5125 0d9d 5602     		.4byte	0xe89
 5126 0d9f 10       		.4byte	0xa2
 5127 0da0 08010000 		.4byte	.LBB674
 5128 0da4 00       		.4byte	.LBE674
 5129 0da5 0F       		.byte	0x1
 5130 0da6 C40D0000 		.2byte	0x256
 5131 0daa 7D000000 		.uleb128 0x10
 5132 0dae 64040000 		.4byte	0x108
 5133 0db2 68040000 		.byte	0x0
 5134 0db6 01       		.uleb128 0xf
 5135 0db7 5602     		.4byte	0xea8
 5136 0db9 10       		.4byte	0x7d
 5137 0dba ED000000 		.4byte	.LBB676
 5138 0dbe 10       		.4byte	.LBE676
 5139 0dbf E6000000 		.byte	0x1
 5140 0dc3 00       		.2byte	0x256
 5141 0dc4 0F       		.uleb128 0x10
 5142 0dc5 DE0D0000 		.4byte	0xed
 5143 0dc9 A2000000 		.uleb128 0x10
 5144 0dcd 68040000 		.4byte	0xe6
 5145 0dd1 70040000 		.byte	0x0
 5146 0dd5 01       		.uleb128 0xf
 5147 0dd6 5602     		.4byte	0xec2
 5148 0dd8 10       		.4byte	0xa2
 5149 0dd9 08010000 		.4byte	.LBB678
 5150 0ddd 00       		.4byte	.LBE678
 5151 0dde 0F       		.byte	0x1
 5152 0ddf FD0D0000 		.2byte	0x256
 5153 0de3 7D000000 		.uleb128 0x10
 5154 0de7 70040000 		.4byte	0x108
 5155 0deb 74040000 		.byte	0x0
ARM GAS  C:\DOCUME~1\pstang\LOCALS~1\Temp/cc80aaaa.s 			page 106


 5156 0def 01       		.uleb128 0xf
 5157 0df0 5602     		.4byte	0xee1
 5158 0df2 10       		.4byte	0x7d
 5159 0df3 ED000000 		.4byte	.LBB680
 5160 0df7 10       		.4byte	.LBE680
 5161 0df8 E6000000 		.byte	0x1
 5162 0dfc 00       		.2byte	0x256
 5163 0dfd 0F       		.uleb128 0x10
 5164 0dfe 170E0000 		.4byte	0xed
 5165 0e02 A2000000 		.uleb128 0x10
 5166 0e06 74040000 		.4byte	0xe6
 5167 0e0a 7C040000 		.byte	0x0
 5168 0e0e 01       		.uleb128 0xf
 5169 0e0f 5602     		.4byte	0xefb
 5170 0e11 10       		.4byte	0xa2
 5171 0e12 08010000 		.4byte	.LBB682
 5172 0e16 00       		.4byte	.LBE682
 5173 0e17 0F       		.byte	0x1
 5174 0e18 360E0000 		.2byte	0x256
 5175 0e1c 7D000000 		.uleb128 0x10
 5176 0e20 7C040000 		.4byte	0x108
 5177 0e24 80040000 		.byte	0x0
 5178 0e28 01       		.uleb128 0xf
 5179 0e29 5602     		.4byte	0xf1a
 5180 0e2b 10       		.4byte	0x7d
 5181 0e2c ED000000 		.4byte	.LBB684
 5182 0e30 10       		.4byte	.LBE684
 5183 0e31 E6000000 		.byte	0x1
 5184 0e35 00       		.2byte	0x256
 5185 0e36 0F       		.uleb128 0x10
 5186 0e37 500E0000 		.4byte	0xed
 5187 0e3b A2000000 		.uleb128 0x10
 5188 0e3f 80040000 		.4byte	0xe6
 5189 0e43 88040000 		.byte	0x0
 5190 0e47 01       		.uleb128 0xf
 5191 0e48 5602     		.4byte	0xf34
 5192 0e4a 10       		.4byte	0xa2
 5193 0e4b 08010000 		.4byte	.LBB686
 5194 0e4f 00       		.4byte	.LBE686
 5195 0e50 0F       		.byte	0x1
 5196 0e51 6F0E0000 		.2byte	0x256
 5197 0e55 7D000000 		.uleb128 0x10
 5198 0e59 88040000 		.4byte	0x108
 5199 0e5d 8C040000 		.byte	0x0
 5200 0e61 01       		.uleb128 0xf
 5201 0e62 5602     		.4byte	0xf53
 5202 0e64 10       		.4byte	0x7d
 5203 0e65 ED000000 		.4byte	.LBB688
 5204 0e69 10       		.4byte	.LBE688
 5205 0e6a E6000000 		.byte	0x1
 5206 0e6e 00       		.2byte	0x256
 5207 0e6f 0F       		.uleb128 0x10
 5208 0e70 890E0000 		.4byte	0xed
 5209 0e74 A2000000 		.uleb128 0x10
 5210 0e78 8C040000 		.4byte	0xe6
 5211 0e7c 94040000 		.byte	0x0
 5212 0e80 01       		.uleb128 0xf
ARM GAS  C:\DOCUME~1\pstang\LOCALS~1\Temp/cc80aaaa.s 			page 107


 5213 0e81 5602     		.4byte	0xf6d
 5214 0e83 10       		.4byte	0xa2
 5215 0e84 08010000 		.4byte	.LBB690
 5216 0e88 00       		.4byte	.LBE690
 5217 0e89 0F       		.byte	0x1
 5218 0e8a A80E0000 		.2byte	0x256
 5219 0e8e 7D000000 		.uleb128 0x10
 5220 0e92 94040000 		.4byte	0x108
 5221 0e96 98040000 		.byte	0x0
 5222 0e9a 01       		.uleb128 0xf
 5223 0e9b 5602     		.4byte	0xf8c
 5224 0e9d 10       		.4byte	0x7d
 5225 0e9e ED000000 		.4byte	.LBB692
 5226 0ea2 10       		.4byte	.LBE692
 5227 0ea3 E6000000 		.byte	0x1
 5228 0ea7 00       		.2byte	0x256
 5229 0ea8 0F       		.uleb128 0x10
 5230 0ea9 C20E0000 		.4byte	0xed
 5231 0ead A2000000 		.uleb128 0x10
 5232 0eb1 98040000 		.4byte	0xe6
 5233 0eb5 A0040000 		.byte	0x0
 5234 0eb9 01       		.uleb128 0xf
 5235 0eba 5602     		.4byte	0xfa6
 5236 0ebc 10       		.4byte	0xa2
 5237 0ebd 08010000 		.4byte	.LBB694
 5238 0ec1 00       		.4byte	.LBE694
 5239 0ec2 0F       		.byte	0x1
 5240 0ec3 E10E0000 		.2byte	0x256
 5241 0ec7 7D000000 		.uleb128 0x10
 5242 0ecb A0040000 		.4byte	0x108
 5243 0ecf A4040000 		.byte	0x0
 5244 0ed3 01       		.uleb128 0xf
 5245 0ed4 5602     		.4byte	0xfc5
 5246 0ed6 10       		.4byte	0x7d
 5247 0ed7 ED000000 		.4byte	.LBB696
 5248 0edb 10       		.4byte	.LBE696
 5249 0edc E6000000 		.byte	0x1
 5250 0ee0 00       		.2byte	0x256
 5251 0ee1 0F       		.uleb128 0x10
 5252 0ee2 FB0E0000 		.4byte	0xed
 5253 0ee6 A2000000 		.uleb128 0x10
 5254 0eea A4040000 		.4byte	0xe6
 5255 0eee AC040000 		.byte	0x0
 5256 0ef2 01       		.uleb128 0xf
 5257 0ef3 5602     		.4byte	0xfdf
 5258 0ef5 10       		.4byte	0xa2
 5259 0ef6 08010000 		.4byte	.LBB698
 5260 0efa 00       		.4byte	.LBE698
 5261 0efb 0F       		.byte	0x1
 5262 0efc 1A0F0000 		.2byte	0x256
 5263 0f00 7D000000 		.uleb128 0x10
 5264 0f04 AC040000 		.4byte	0x108
 5265 0f08 B0040000 		.byte	0x0
 5266 0f0c 01       		.uleb128 0xf
 5267 0f0d 5602     		.4byte	0xffe
 5268 0f0f 10       		.4byte	0x7d
 5269 0f10 ED000000 		.4byte	.LBB700
ARM GAS  C:\DOCUME~1\pstang\LOCALS~1\Temp/cc80aaaa.s 			page 108


 5270 0f14 10       		.4byte	.LBE700
 5271 0f15 E6000000 		.byte	0x1
 5272 0f19 00       		.2byte	0x256
 5273 0f1a 0F       		.uleb128 0x10
 5274 0f1b 340F0000 		.4byte	0xed
 5275 0f1f A2000000 		.uleb128 0x10
 5276 0f23 B0040000 		.4byte	0xe6
 5277 0f27 B8040000 		.byte	0x0
 5278 0f2b 01       		.uleb128 0xf
 5279 0f2c 5602     		.4byte	0x1018
 5280 0f2e 10       		.4byte	0xa2
 5281 0f2f 08010000 		.4byte	.LBB702
 5282 0f33 00       		.4byte	.LBE702
 5283 0f34 0F       		.byte	0x1
 5284 0f35 530F0000 		.2byte	0x256
 5285 0f39 7D000000 		.uleb128 0x10
 5286 0f3d B8040000 		.4byte	0x108
 5287 0f41 BC040000 		.byte	0x0
 5288 0f45 01       		.uleb128 0xf
 5289 0f46 5602     		.4byte	0x1037
 5290 0f48 10       		.4byte	0x7d
 5291 0f49 ED000000 		.4byte	.LBB704
 5292 0f4d 10       		.4byte	.LBE704
 5293 0f4e E6000000 		.byte	0x1
 5294 0f52 00       		.2byte	0x256
 5295 0f53 0F       		.uleb128 0x10
 5296 0f54 6D0F0000 		.4byte	0xed
 5297 0f58 A2000000 		.uleb128 0x10
 5298 0f5c BC040000 		.4byte	0xe6
 5299 0f60 C4040000 		.byte	0x0
 5300 0f64 01       		.uleb128 0xf
 5301 0f65 5602     		.4byte	0x1051
 5302 0f67 10       		.4byte	0xa2
 5303 0f68 08010000 		.4byte	.LBB706
 5304 0f6c 00       		.4byte	.LBE706
 5305 0f6d 0F       		.byte	0x1
 5306 0f6e 8C0F0000 		.2byte	0x25c
 5307 0f72 7D000000 		.uleb128 0x10
 5308 0f76 C4040000 		.4byte	0x108
 5309 0f7a C8040000 		.byte	0x0
 5310 0f7e 01       		.uleb128 0xf
 5311 0f7f 5602     		.4byte	0x1070
 5312 0f81 10       		.4byte	0x7d
 5313 0f82 ED000000 		.4byte	.LBB708
 5314 0f86 10       		.4byte	.LBE708
 5315 0f87 E6000000 		.byte	0x1
 5316 0f8b 00       		.2byte	0x25c
 5317 0f8c 0F       		.uleb128 0x10
 5318 0f8d A60F0000 		.4byte	0xed
 5319 0f91 A2000000 		.uleb128 0x10
 5320 0f95 C8040000 		.4byte	0xe6
 5321 0f99 D0040000 		.byte	0x0
 5322 0f9d 01       		.uleb128 0xf
 5323 0f9e 5602     		.4byte	0x108a
 5324 0fa0 10       		.4byte	0xa2
 5325 0fa1 08010000 		.4byte	.LBB710
 5326 0fa5 00       		.4byte	.LBE710
ARM GAS  C:\DOCUME~1\pstang\LOCALS~1\Temp/cc80aaaa.s 			page 109


 5327 0fa6 0F       		.byte	0x1
 5328 0fa7 C50F0000 		.2byte	0x25e
 5329 0fab 7D000000 		.uleb128 0x10
 5330 0faf D0040000 		.4byte	0x108
 5331 0fb3 D4040000 		.byte	0x0
 5332 0fb7 01       		.uleb128 0xf
 5333 0fb8 5602     		.4byte	0x10a9
 5334 0fba 10       		.4byte	0x7d
 5335 0fbb ED000000 		.4byte	.LBB712
 5336 0fbf 10       		.4byte	.LBE712
 5337 0fc0 E6000000 		.byte	0x1
 5338 0fc4 00       		.2byte	0x25e
 5339 0fc5 0F       		.uleb128 0x10
 5340 0fc6 DF0F0000 		.4byte	0xed
 5341 0fca A2000000 		.uleb128 0x10
 5342 0fce D4040000 		.4byte	0xe6
 5343 0fd2 DC040000 		.byte	0x0
 5344 0fd6 01       		.uleb128 0xf
 5345 0fd7 5602     		.4byte	0x10c3
 5346 0fd9 10       		.4byte	0xa2
 5347 0fda 08010000 		.4byte	.LBB714
 5348 0fde 00       		.4byte	.LBE714
 5349 0fdf 0F       		.byte	0x1
 5350 0fe0 FE0F0000 		.2byte	0x25f
 5351 0fe4 7D000000 		.uleb128 0x10
 5352 0fe8 DC040000 		.4byte	0x108
 5353 0fec E0040000 		.byte	0x0
 5354 0ff0 01       		.uleb128 0xf
 5355 0ff1 5602     		.4byte	0x10e2
 5356 0ff3 10       		.4byte	0x7d
 5357 0ff4 ED000000 		.4byte	.LBB716
 5358 0ff8 10       		.4byte	.LBE716
 5359 0ff9 E6000000 		.byte	0x1
 5360 0ffd 00       		.2byte	0x25f
 5361 0ffe 0F       		.uleb128 0x10
 5362 0fff 18100000 		.4byte	0xed
 5363 1003 A2000000 		.uleb128 0x10
 5364 1007 E0040000 		.4byte	0xe6
 5365 100b E8040000 		.byte	0x0
 5366 100f 01       		.uleb128 0xf
 5367 1010 5602     		.4byte	0x10fc
 5368 1012 10       		.4byte	0xa2
 5369 1013 08010000 		.4byte	.LBB718
 5370 1017 00       		.4byte	.LBE718
 5371 1018 0F       		.byte	0x1
 5372 1019 37100000 		.2byte	0x25f
 5373 101d 7D000000 		.uleb128 0x10
 5374 1021 E8040000 		.4byte	0x108
 5375 1025 F4040000 		.byte	0x0
 5376 1029 01       		.uleb128 0xf
 5377 102a 5602     		.4byte	0x111b
 5378 102c 10       		.4byte	0x7d
 5379 102d ED000000 		.4byte	.LBB720
 5380 1031 10       		.4byte	.LBE720
 5381 1032 E6000000 		.byte	0x1
 5382 1036 00       		.2byte	0x25f
 5383 1037 0F       		.uleb128 0x10
ARM GAS  C:\DOCUME~1\pstang\LOCALS~1\Temp/cc80aaaa.s 			page 110


 5384 1038 51100000 		.4byte	0xed
 5385 103c A2000000 		.uleb128 0x10
 5386 1040 F8040000 		.4byte	0xe6
 5387 1044 00050000 		.byte	0x0
 5388 1048 01       		.uleb128 0xf
 5389 1049 5C02     		.4byte	0x1135
 5390 104b 10       		.4byte	0xa2
 5391 104c 08010000 		.4byte	.LBB722
 5392 1050 00       		.4byte	.LBE722
 5393 1051 0F       		.byte	0x1
 5394 1052 70100000 		.2byte	0x266
 5395 1056 7D000000 		.uleb128 0x10
 5396 105a 00050000 		.4byte	0x108
 5397 105e 04050000 		.byte	0x0
 5398 1062 01       		.uleb128 0xf
 5399 1063 5C02     		.4byte	0x1154
 5400 1065 10       		.4byte	0x7d
 5401 1066 ED000000 		.4byte	.LBB724
 5402 106a 10       		.4byte	.LBE724
 5403 106b E6000000 		.byte	0x1
 5404 106f 00       		.2byte	0x266
 5405 1070 0F       		.uleb128 0x10
 5406 1071 8A100000 		.4byte	0xed
 5407 1075 A2000000 		.uleb128 0x10
 5408 1079 04050000 		.4byte	0xe6
 5409 107d 0C050000 		.byte	0x0
 5410 1081 01       		.uleb128 0xf
 5411 1082 5E02     		.4byte	0x116e
 5412 1084 10       		.4byte	0xa2
 5413 1085 08010000 		.4byte	.LBB726
 5414 1089 00       		.4byte	.LBE726
 5415 108a 0F       		.byte	0x1
 5416 108b A9100000 		.2byte	0x268
 5417 108f 7D000000 		.uleb128 0x10
 5418 1093 0C050000 		.4byte	0x108
 5419 1097 10050000 		.byte	0x0
 5420 109b 01       		.uleb128 0xf
 5421 109c 5E02     		.4byte	0x118d
 5422 109e 10       		.4byte	0x7d
 5423 109f ED000000 		.4byte	.LBB728
 5424 10a3 10       		.4byte	.LBE728
 5425 10a4 E6000000 		.byte	0x1
 5426 10a8 00       		.2byte	0x268
 5427 10a9 0F       		.uleb128 0x10
 5428 10aa C3100000 		.4byte	0xed
 5429 10ae A2000000 		.uleb128 0x10
 5430 10b2 10050000 		.4byte	0xe6
 5431 10b6 18050000 		.byte	0x0
 5432 10ba 01       		.uleb128 0xf
 5433 10bb 5F02     		.4byte	0x11a7
 5434 10bd 10       		.4byte	0xa2
 5435 10be 08010000 		.4byte	.LBB730
 5436 10c2 00       		.4byte	.LBE730
 5437 10c3 0F       		.byte	0x1
 5438 10c4 E2100000 		.2byte	0x269
 5439 10c8 7D000000 		.uleb128 0x10
 5440 10cc 18050000 		.4byte	0x108
ARM GAS  C:\DOCUME~1\pstang\LOCALS~1\Temp/cc80aaaa.s 			page 111


 5441 10d0 1C050000 		.byte	0x0
 5442 10d4 01       		.uleb128 0xf
 5443 10d5 5F02     		.4byte	0x11c6
 5444 10d7 10       		.4byte	0x7d
 5445 10d8 ED000000 		.4byte	.LBB732
 5446 10dc 10       		.4byte	.LBE732
 5447 10dd E6000000 		.byte	0x1
 5448 10e1 00       		.2byte	0x269
 5449 10e2 0F       		.uleb128 0x10
 5450 10e3 FC100000 		.4byte	0xed
 5451 10e7 A2000000 		.uleb128 0x10
 5452 10eb 1C050000 		.4byte	0xe6
 5453 10ef 24050000 		.byte	0x0
 5454 10f3 01       		.uleb128 0xf
 5455 10f4 5F02     		.4byte	0x11e0
 5456 10f6 10       		.4byte	0xa2
 5457 10f7 08010000 		.4byte	.LBB734
 5458 10fb 00       		.4byte	.LBE734
 5459 10fc 0F       		.byte	0x1
 5460 10fd 1B110000 		.2byte	0x269
 5461 1101 7D000000 		.uleb128 0x10
 5462 1105 24050000 		.4byte	0x108
 5463 1109 28050000 		.byte	0x0
 5464 110d 01       		.uleb128 0xf
 5465 110e 5F02     		.4byte	0x11ff
 5466 1110 10       		.4byte	0x7d
 5467 1111 ED000000 		.4byte	.LBB736
 5468 1115 10       		.4byte	.LBE736
 5469 1116 E6000000 		.byte	0x1
 5470 111a 00       		.2byte	0x269
 5471 111b 0F       		.uleb128 0x10
 5472 111c 35110000 		.4byte	0xed
 5473 1120 A2000000 		.uleb128 0x10
 5474 1124 50050000 		.4byte	0xe6
 5475 1128 58050000 		.byte	0x0
 5476 112c 01       		.uleb128 0xf
 5477 112d 6602     		.4byte	0x1219
 5478 112f 10       		.4byte	0xa2
 5479 1130 08010000 		.4byte	.LBB738
 5480 1134 00       		.4byte	.LBE738
 5481 1135 0F       		.byte	0x1
 5482 1136 54110000 		.2byte	0x26d
 5483 113a 7D000000 		.uleb128 0x10
 5484 113e 58050000 		.4byte	0x108
 5485 1142 5C050000 		.byte	0x0
 5486 1146 01       		.uleb128 0xf
 5487 1147 6602     		.4byte	0x1238
 5488 1149 10       		.4byte	0x7d
 5489 114a ED000000 		.4byte	.LBB740
 5490 114e 10       		.4byte	.LBE740
 5491 114f E6000000 		.byte	0x1
 5492 1153 00       		.2byte	0x26d
 5493 1154 0F       		.uleb128 0x10
 5494 1155 6E110000 		.4byte	0xed
 5495 1159 A2000000 		.uleb128 0x10
 5496 115d 5C050000 		.4byte	0xe6
 5497 1161 64050000 		.byte	0x0
ARM GAS  C:\DOCUME~1\pstang\LOCALS~1\Temp/cc80aaaa.s 			page 112


 5498 1165 01       		.uleb128 0xf
 5499 1166 6802     		.4byte	0x1252
 5500 1168 10       		.4byte	0xa2
 5501 1169 08010000 		.4byte	.LBB742
 5502 116d 00       		.4byte	.LBE742
 5503 116e 0F       		.byte	0x1
 5504 116f 8D110000 		.2byte	0x26e
 5505 1173 7D000000 		.uleb128 0x10
 5506 1177 64050000 		.4byte	0x108
 5507 117b 68050000 		.byte	0x0
 5508 117f 01       		.uleb128 0xf
 5509 1180 6802     		.4byte	0x1271
 5510 1182 10       		.4byte	0x7d
 5511 1183 ED000000 		.4byte	.LBB744
 5512 1187 10       		.4byte	.LBE744
 5513 1188 E6000000 		.byte	0x1
 5514 118c 00       		.2byte	0x26e
 5515 118d 0F       		.uleb128 0x10
 5516 118e A7110000 		.4byte	0xed
 5517 1192 A2000000 		.uleb128 0x10
 5518 1196 68050000 		.4byte	0xe6
 5519 119a 70050000 		.byte	0x0
 5520 119e 01       		.uleb128 0xf
 5521 119f 6902     		.4byte	0x128b
 5522 11a1 10       		.4byte	0xa2
 5523 11a2 08010000 		.4byte	.LBB746
 5524 11a6 00       		.4byte	.LBE746
 5525 11a7 0F       		.byte	0x1
 5526 11a8 C6110000 		.2byte	0x26e
 5527 11ac 7D000000 		.uleb128 0x10
 5528 11b0 70050000 		.4byte	0x108
 5529 11b4 74050000 		.byte	0x0
 5530 11b8 01       		.uleb128 0xf
 5531 11b9 6902     		.4byte	0x12aa
 5532 11bb 10       		.4byte	0x7d
 5533 11bc ED000000 		.4byte	.LBB748
 5534 11c0 10       		.4byte	.LBE748
 5535 11c1 E6000000 		.byte	0x1
 5536 11c5 00       		.2byte	0x26e
 5537 11c6 0F       		.uleb128 0x10
 5538 11c7 E0110000 		.4byte	0xed
 5539 11cb A2000000 		.uleb128 0x10
 5540 11cf 74050000 		.4byte	0xe6
 5541 11d3 7C050000 		.byte	0x0
 5542 11d7 01       		.uleb128 0xf
 5543 11d8 6902     		.4byte	0x12c4
 5544 11da 10       		.4byte	0xa2
 5545 11db 08010000 		.4byte	.LBB750
 5546 11df 00       		.4byte	.LBE750
 5547 11e0 0F       		.byte	0x1
 5548 11e1 FF110000 		.2byte	0x26e
 5549 11e5 7D000000 		.uleb128 0x10
 5550 11e9 7C050000 		.4byte	0x108
 5551 11ed 80050000 		.byte	0x0
 5552 11f1 01       		.uleb128 0xf
 5553 11f2 6902     		.4byte	0x12e3
 5554 11f4 10       		.4byte	0x7d
ARM GAS  C:\DOCUME~1\pstang\LOCALS~1\Temp/cc80aaaa.s 			page 113


 5555 11f5 ED000000 		.4byte	.LBB752
 5556 11f9 10       		.4byte	.LBE752
 5557 11fa E6000000 		.byte	0x1
 5558 11fe 00       		.2byte	0x26e
 5559 11ff 0F       		.uleb128 0x10
 5560 1200 19120000 		.4byte	0xed
 5561 1204 A2000000 		.uleb128 0x10
 5562 1208 94050000 		.4byte	0xe6
 5563 120c A4050000 		.byte	0x0
 5564 1210 01       		.uleb128 0xf
 5565 1211 6D02     		.4byte	0x12fd
 5566 1213 10       		.4byte	0xa2
 5567 1214 08010000 		.4byte	.LBB754
 5568 1218 00       		.4byte	.LBE754
 5569 1219 0F       		.byte	0x1
 5570 121a 38120000 		.2byte	0x26e
 5571 121e 7D000000 		.uleb128 0x10
 5572 1222 A4050000 		.4byte	0x108
 5573 1226 A8050000 		.byte	0x0
 5574 122a 01       		.uleb128 0xf
 5575 122b 6D02     		.4byte	0x131c
 5576 122d 10       		.4byte	0x7d
 5577 122e ED000000 		.4byte	.LBB756
 5578 1232 10       		.4byte	.LBE756
 5579 1233 E6000000 		.byte	0x1
 5580 1237 00       		.2byte	0x26e
 5581 1238 0F       		.uleb128 0x10
 5582 1239 52120000 		.4byte	0xed
 5583 123d A2000000 		.uleb128 0x10
 5584 1241 A8050000 		.4byte	0xe6
 5585 1245 B0050000 		.byte	0x0
 5586 1249 01       		.uleb128 0xf
 5587 124a 6E02     		.4byte	0x1336
 5588 124c 10       		.4byte	0xa2
 5589 124d 08010000 		.4byte	.LBB758
 5590 1251 00       		.4byte	.LBE758
 5591 1252 0F       		.byte	0x1
 5592 1253 71120000 		.2byte	0x274
 5593 1257 7D000000 		.uleb128 0x10
 5594 125b B0050000 		.4byte	0x108
 5595 125f B4050000 		.byte	0x0
 5596 1263 01       		.uleb128 0xf
 5597 1264 6E02     		.4byte	0x1350
 5598 1266 10       		.4byte	0xa2
 5599 1267 ED000000 		.4byte	.LBB760
 5600 126b 10       		.4byte	.LBE760
 5601 126c E6000000 		.byte	0x1
 5602 1270 00       		.2byte	0x27d
 5603 1271 0F       		.uleb128 0x10
 5604 1272 8B120000 		.4byte	0x108
 5605 1276 A2000000 		.byte	0x0
 5606 127a B4050000 		.uleb128 0xf
 5607 127e BC050000 		.4byte	0x136f
 5608 1282 01       		.4byte	0x7d
 5609 1283 6E02     		.4byte	.LBB762
 5610 1285 10       		.4byte	.LBE762
 5611 1286 08010000 		.byte	0x1
ARM GAS  C:\DOCUME~1\pstang\LOCALS~1\Temp/cc80aaaa.s 			page 114


 5612 128a 00       		.2byte	0x27d
 5613 128b 0F       		.uleb128 0x10
 5614 128c AA120000 		.4byte	0xed
 5615 1290 7D000000 		.uleb128 0x10
 5616 1294 BC050000 		.4byte	0xe6
 5617 1298 C0050000 		.byte	0x0
 5618 129c 01       		.uleb128 0xf
 5619 129d 6E02     		.4byte	0x1389
 5620 129f 10       		.4byte	0xa2
 5621 12a0 ED000000 		.4byte	.LBB764
 5622 12a4 10       		.4byte	.LBE764
 5623 12a5 E6000000 		.byte	0x1
 5624 12a9 00       		.2byte	0x27d
 5625 12aa 0F       		.uleb128 0x10
 5626 12ab C4120000 		.4byte	0x108
 5627 12af A2000000 		.byte	0x0
 5628 12b3 C0050000 		.uleb128 0x11
 5629 12b7 C8050000 		.4byte	0x7d
 5630 12bb 01       		.4byte	.LBB766
 5631 12bc 6E02     		.4byte	.LBE766
 5632 12be 10       		.byte	0x1
 5633 12bf 08010000 		.2byte	0x27d
 5634 12c3 00       		.uleb128 0x10
 5635 12c4 0F       		.4byte	0xed
 5636 12c5 E3120000 		.uleb128 0x10
 5637 12c9 7D000000 		.4byte	0xe6
 5638 12cd C8050000 		.byte	0x0
 5639 12d1 CC050000 		.byte	0x0
 5640 12d5 01       		.uleb128 0x1c
 5641 12d6 6E02     		.byte	0x1
 5642 12d8 10       		.4byte	.LASF35
 5643 12d9 ED000000 		.byte	0x1
 5644 12dd 10       		.2byte	0x2c3
 5645 12de E6000000 		.byte	0x1
 5646 12e2 00       		.4byte	.LFB23
 5647 12e3 0F       		.4byte	.LFE23
 5648 12e4 FD120000 		.4byte	.LLST27
 5649 12e8 A2000000 		.uleb128 0xc
 5650 12ec CC050000 		.4byte	0x163e
 5651 12f0 D4050000 		.byte	0x1
 5652 12f4 01       		.4byte	.LASF36
 5653 12f5 6E02     		.byte	0x1
 5654 12f7 10       		.2byte	0x285
 5655 12f8 08010000 		.byte	0x1
 5656 12fc 00       		.4byte	.LFB22
 5657 12fd 0F       		.4byte	.LFE22
 5658 12fe 1C130000 		.4byte	.LLST28
 5659 1302 7D000000 		.uleb128 0x1d
 5660 1306 D4050000 		.4byte	.LASF37
 5661 130a EC050000 		.byte	0x1
 5662 130e 01       		.2byte	0x286
 5663 130f 6E02     		.4byte	0x30
 5664 1311 10       		.uleb128 0xf
 5665 1312 ED000000 		.4byte	0x13fb
 5666 1316 10       		.4byte	0xa2
 5667 1317 E6000000 		.4byte	.LBB768
 5668 131b 00       		.4byte	.LBE768
ARM GAS  C:\DOCUME~1\pstang\LOCALS~1\Temp/cc80aaaa.s 			page 115


 5669 131c 0F       		.byte	0x1
 5670 131d 36130000 		.2byte	0x287
 5671 1321 A2000000 		.uleb128 0x10
 5672 1325 EC050000 		.4byte	0x108
 5673 1329 F0050000 		.byte	0x0
 5674 132d 01       		.uleb128 0xf
 5675 132e 7402     		.4byte	0x1415
 5676 1330 10       		.4byte	0xa2
 5677 1331 08010000 		.4byte	.LBB770
 5678 1335 00       		.4byte	.LBE770
 5679 1336 0F       		.byte	0x1
 5680 1337 50130000 		.2byte	0x299
 5681 133b A2000000 		.uleb128 0x10
 5682 133f 00060000 		.4byte	0x108
 5683 1343 10060000 		.byte	0x0
 5684 1347 01       		.uleb128 0xf
 5685 1348 7D02     		.4byte	0x142f
 5686 134a 10       		.4byte	0xa2
 5687 134b 08010000 		.4byte	.LBB772
 5688 134f 00       		.4byte	.LBE772
 5689 1350 0F       		.byte	0x1
 5690 1351 6F130000 		.2byte	0x29b
 5691 1355 7D000000 		.uleb128 0x10
 5692 1359 10060000 		.4byte	0x108
 5693 135d 14060000 		.byte	0x0
 5694 1361 01       		.uleb128 0xf
 5695 1362 7D02     		.4byte	0x1449
 5696 1364 10       		.4byte	0xa2
 5697 1365 ED000000 		.4byte	.LBB774
 5698 1369 10       		.4byte	.LBE774
 5699 136a E6000000 		.byte	0x1
 5700 136e 00       		.2byte	0x29d
 5701 136f 0F       		.uleb128 0x10
 5702 1370 89130000 		.4byte	0x108
 5703 1374 A2000000 		.byte	0x0
 5704 1378 14060000 		.uleb128 0xf
 5705 137c 1C060000 		.4byte	0x1463
 5706 1380 01       		.4byte	0xa2
 5707 1381 7D02     		.4byte	.LBB776
 5708 1383 10       		.4byte	.LBE776
 5709 1384 08010000 		.byte	0x1
 5710 1388 00       		.2byte	0x29f
 5711 1389 11       		.uleb128 0x10
 5712 138a 7D000000 		.4byte	0x108
 5713 138e 1C060000 		.byte	0x0
 5714 1392 20060000 		.uleb128 0xf
 5715 1396 01       		.4byte	0x147d
 5716 1397 7D02     		.4byte	0xa2
 5717 1399 10       		.4byte	.LBB778
 5718 139a ED000000 		.4byte	.LBE778
 5719 139e 10       		.byte	0x1
 5720 139f E6000000 		.2byte	0x2a1
 5721 13a3 00       		.uleb128 0x10
 5722 13a4 00       		.4byte	0x108
 5723 13a5 1C       		.byte	0x0
 5724 13a6 01       		.uleb128 0xf
 5725 13a7 9D010000 		.4byte	0x1497
ARM GAS  C:\DOCUME~1\pstang\LOCALS~1\Temp/cc80aaaa.s 			page 116


 5726 13ab 01       		.4byte	0xa2
 5727 13ac C302     		.4byte	.LBB780
 5728 13ae 01       		.4byte	.LBE780
 5729 13af 38060000 		.byte	0x1
 5730 13b3 F4080000 		.2byte	0x2a3
 5731 13b7 44020000 		.uleb128 0x10
 5732 13bb 0C       		.4byte	0x108
 5733 13bc 3E160000 		.byte	0x0
 5734 13c0 01       		.uleb128 0xf
 5735 13c1 C7000000 		.4byte	0x14b1
 5736 13c5 01       		.4byte	0xa2
 5737 13c6 8502     		.4byte	.LBB782
 5738 13c8 01       		.4byte	.LBE782
 5739 13c9 F4080000 		.byte	0x1
 5740 13cd CC0A0000 		.2byte	0x2a5
 5741 13d1 63020000 		.uleb128 0x10
 5742 13d5 1D       		.4byte	0x108
 5743 13d6 00000000 		.byte	0x0
 5744 13da 01       		.uleb128 0xf
 5745 13db 8602     		.4byte	0x14cb
 5746 13dd 30000000 		.4byte	0xa2
 5747 13e1 0F       		.4byte	.LBB784
 5748 13e2 FB130000 		.4byte	.LBE784
 5749 13e6 A2000000 		.byte	0x1
 5750 13ea F8080000 		.2byte	0x2a7
 5751 13ee 00090000 		.uleb128 0x10
 5752 13f2 01       		.4byte	0x108
 5753 13f3 8702     		.byte	0x0
 5754 13f5 10       		.uleb128 0xf
 5755 13f6 08010000 		.4byte	0x14e5
 5756 13fa 00       		.4byte	0xa2
 5757 13fb 0F       		.4byte	.LBB786
 5758 13fc 15140000 		.4byte	.LBE786
 5759 1400 A2000000 		.byte	0x1
 5760 1404 70090000 		.2byte	0x2a9
 5761 1408 7C090000 		.uleb128 0x10
 5762 140c 01       		.4byte	0x108
 5763 140d 9902     		.byte	0x0
 5764 140f 10       		.uleb128 0xf
 5765 1410 08010000 		.4byte	0x14ff
 5766 1414 00       		.4byte	0xa2
 5767 1415 0F       		.4byte	.LBB788
 5768 1416 2F140000 		.4byte	.LBE788
 5769 141a A2000000 		.byte	0x1
 5770 141e 8C090000 		.2byte	0x2ab
 5771 1422 90090000 		.uleb128 0x10
 5772 1426 01       		.4byte	0x108
 5773 1427 9B02     		.byte	0x0
 5774 1429 10       		.uleb128 0xf
 5775 142a 08010000 		.4byte	0x1519
 5776 142e 00       		.4byte	0xa2
 5777 142f 0F       		.4byte	.LBB790
 5778 1430 49140000 		.4byte	.LBE790
 5779 1434 A2000000 		.byte	0x1
 5780 1438 9C090000 		.2byte	0x2ae
 5781 143c A0090000 		.uleb128 0x10
 5782 1440 01       		.4byte	0x108
ARM GAS  C:\DOCUME~1\pstang\LOCALS~1\Temp/cc80aaaa.s 			page 117


 5783 1441 9D02     		.byte	0x0
 5784 1443 10       		.uleb128 0xf
 5785 1444 08010000 		.4byte	0x1538
 5786 1448 00       		.4byte	0x7d
 5787 1449 0F       		.4byte	.LBB792
 5788 144a 63140000 		.4byte	.LBE792
 5789 144e A2000000 		.byte	0x1
 5790 1452 AC090000 		.2byte	0x2ae
 5791 1456 B0090000 		.uleb128 0x10
 5792 145a 01       		.4byte	0xed
 5793 145b 9F02     		.uleb128 0x10
 5794 145d 10       		.4byte	0xe6
 5795 145e 08010000 		.byte	0x0
 5796 1462 00       		.uleb128 0xf
 5797 1463 0F       		.4byte	0x1552
 5798 1464 7D140000 		.4byte	0xa2
 5799 1468 A2000000 		.4byte	.LBB794
 5800 146c BC090000 		.4byte	.LBE794
 5801 1470 C0090000 		.byte	0x1
 5802 1474 01       		.2byte	0x2b2
 5803 1475 A102     		.uleb128 0x10
 5804 1477 10       		.4byte	0x108
 5805 1478 08010000 		.byte	0x0
 5806 147c 00       		.uleb128 0xf
 5807 147d 0F       		.4byte	0x156c
 5808 147e 97140000 		.4byte	0xa2
 5809 1482 A2000000 		.4byte	.LBB796
 5810 1486 CC090000 		.4byte	.LBE796
 5811 148a D0090000 		.byte	0x1
 5812 148e 01       		.2byte	0x2b4
 5813 148f A302     		.uleb128 0x10
 5814 1491 10       		.4byte	0x108
 5815 1492 08010000 		.byte	0x0
 5816 1496 00       		.uleb128 0xf
 5817 1497 0F       		.4byte	0x1586
 5818 1498 B1140000 		.4byte	0xa2
 5819 149c A2000000 		.4byte	.LBB798
 5820 14a0 DC090000 		.4byte	.LBE798
 5821 14a4 E0090000 		.byte	0x1
 5822 14a8 01       		.2byte	0x2b5
 5823 14a9 A502     		.uleb128 0x10
 5824 14ab 10       		.4byte	0x108
 5825 14ac 08010000 		.byte	0x0
 5826 14b0 00       		.uleb128 0xf
 5827 14b1 0F       		.4byte	0x15a0
 5828 14b2 CB140000 		.4byte	0xa2
 5829 14b6 A2000000 		.4byte	.LBB800
 5830 14ba EC090000 		.4byte	.LBE800
 5831 14be F0090000 		.byte	0x1
 5832 14c2 01       		.2byte	0x2b6
 5833 14c3 A702     		.uleb128 0x10
 5834 14c5 10       		.4byte	0x108
 5835 14c6 08010000 		.byte	0x0
 5836 14ca 00       		.uleb128 0xf
 5837 14cb 0F       		.4byte	0x15ba
 5838 14cc E5140000 		.4byte	0xa2
 5839 14d0 A2000000 		.4byte	.LBB802
ARM GAS  C:\DOCUME~1\pstang\LOCALS~1\Temp/cc80aaaa.s 			page 118


 5840 14d4 FC090000 		.4byte	.LBE802
 5841 14d8 000A0000 		.byte	0x1
 5842 14dc 01       		.2byte	0x2b7
 5843 14dd A902     		.uleb128 0x10
 5844 14df 10       		.4byte	0x108
 5845 14e0 08010000 		.byte	0x0
 5846 14e4 00       		.uleb128 0xf
 5847 14e5 0F       		.4byte	0x15d4
 5848 14e6 FF140000 		.4byte	0xa2
 5849 14ea A2000000 		.4byte	.LBB804
 5850 14ee 0C0A0000 		.4byte	.LBE804
 5851 14f2 100A0000 		.byte	0x1
 5852 14f6 01       		.2byte	0x2b8
 5853 14f7 AB02     		.uleb128 0x10
 5854 14f9 10       		.4byte	0x108
 5855 14fa 08010000 		.byte	0x0
 5856 14fe 00       		.uleb128 0xf
 5857 14ff 0F       		.4byte	0x15ee
 5858 1500 19150000 		.4byte	0xa2
 5859 1504 A2000000 		.4byte	.LBB806
 5860 1508 180A0000 		.4byte	.LBE806
 5861 150c 200A0000 		.byte	0x1
 5862 1510 01       		.2byte	0x2b9
 5863 1511 AE02     		.uleb128 0x10
 5864 1513 10       		.4byte	0x108
 5865 1514 08010000 		.byte	0x0
 5866 1518 00       		.uleb128 0xf
 5867 1519 0F       		.4byte	0x1608
 5868 151a 38150000 		.4byte	0xa2
 5869 151e 7D000000 		.4byte	.LBB808
 5870 1522 200A0000 		.4byte	.LBE808
 5871 1526 240A0000 		.byte	0x1
 5872 152a 01       		.2byte	0x2bb
 5873 152b AE02     		.uleb128 0x10
 5874 152d 10       		.4byte	0x108
 5875 152e ED000000 		.byte	0x0
 5876 1532 10       		.uleb128 0xf
 5877 1533 E6000000 		.4byte	0x1622
 5878 1537 00       		.4byte	0xa2
 5879 1538 0F       		.4byte	.LBB810
 5880 1539 52150000 		.4byte	.LBE810
 5881 153d A2000000 		.byte	0x1
 5882 1541 380A0000 		.2byte	0x2bd
 5883 1545 3C0A0000 		.uleb128 0x10
 5884 1549 01       		.4byte	0x108
 5885 154a B202     		.byte	0x0
 5886 154c 10       		.uleb128 0x11
 5887 154d 08010000 		.4byte	0x7d
 5888 1551 00       		.4byte	.LBB812
 5889 1552 0F       		.4byte	.LBE812
 5890 1553 6C150000 		.byte	0x1
 5891 1557 A2000000 		.2byte	0x2bd
 5892 155b 480A0000 		.uleb128 0x10
 5893 155f 4C0A0000 		.4byte	0xed
 5894 1563 01       		.uleb128 0x10
 5895 1564 B402     		.4byte	0xe6
 5896 1566 10       		.byte	0x0
ARM GAS  C:\DOCUME~1\pstang\LOCALS~1\Temp/cc80aaaa.s 			page 119


 5897 1567 08010000 		.byte	0x0
 5898 156b 00       		.uleb128 0x1e
 5899 156c 0F       		.byte	0x1
 5900 156d 86150000 		.4byte	.LASF38
 5901 1571 A2000000 		.byte	0x1
 5902 1575 500A0000 		.byte	0x6b
 5903 1579 540A0000 		.byte	0x1
 5904 157d 01       		.4byte	.LFB7
 5905 157e B502     		.4byte	.LFE7
 5906 1580 10       		.4byte	.LLST29
 5907 1581 08010000 		.uleb128 0xc
 5908 1585 00       		.4byte	0x180a
 5909 1586 0F       		.byte	0x1
 5910 1587 A0150000 		.4byte	.LASF39
 5911 158b A2000000 		.byte	0x1
 5912 158f 580A0000 		.2byte	0x1d8
 5913 1593 5C0A0000 		.byte	0x1
 5914 1597 01       		.4byte	.LFB19
 5915 1598 B602     		.4byte	.LFE19
 5916 159a 10       		.4byte	.LLST30
 5917 159b 08010000 		.uleb128 0x1d
 5918 159f 00       		.4byte	.LASF40
 5919 15a0 0F       		.byte	0x1
 5920 15a1 BA150000 		.2byte	0x1dc
 5921 15a5 A2000000 		.4byte	0x30
 5922 15a9 600A0000 		.uleb128 0x1d
 5923 15ad 640A0000 		.4byte	.LASF41
 5924 15b1 01       		.byte	0x1
 5925 15b2 B702     		.2byte	0x1dd
 5926 15b4 10       		.4byte	0x30
 5927 15b5 08010000 		.uleb128 0xf
 5928 15b9 00       		.4byte	0x169f
 5929 15ba 0F       		.4byte	0xa2
 5930 15bb D4150000 		.4byte	.LBB814
 5931 15bf A2000000 		.4byte	.LBE814
 5932 15c3 680A0000 		.byte	0x1
 5933 15c7 6C0A0000 		.2byte	0x1e0
 5934 15cb 01       		.uleb128 0x10
 5935 15cc B802     		.4byte	0x108
 5936 15ce 10       		.byte	0x0
 5937 15cf 08010000 		.uleb128 0xf
 5938 15d3 00       		.4byte	0x16be
 5939 15d4 0F       		.4byte	0x7d
 5940 15d5 EE150000 		.4byte	.LBB816
 5941 15d9 A2000000 		.4byte	.LBE816
 5942 15dd 700A0000 		.byte	0x1
 5943 15e1 740A0000 		.2byte	0x1e2
 5944 15e5 01       		.uleb128 0x10
 5945 15e6 B902     		.4byte	0xed
 5946 15e8 10       		.uleb128 0x10
 5947 15e9 08010000 		.4byte	0xe6
 5948 15ed 00       		.byte	0x0
 5949 15ee 0F       		.uleb128 0xf
 5950 15ef 08160000 		.4byte	0x16dd
 5951 15f3 A2000000 		.4byte	0x7d
 5952 15f7 800A0000 		.4byte	.LBB818
 5953 15fb 840A0000 		.4byte	.LBE818
ARM GAS  C:\DOCUME~1\pstang\LOCALS~1\Temp/cc80aaaa.s 			page 120


 5954 15ff 01       		.byte	0x1
 5955 1600 BB02     		.2byte	0x1e6
 5956 1602 10       		.uleb128 0x10
 5957 1603 08010000 		.4byte	0xed
 5958 1607 00       		.uleb128 0x10
 5959 1608 0F       		.4byte	0xe6
 5960 1609 22160000 		.byte	0x0
 5961 160d A2000000 		.uleb128 0xf
 5962 1611 880A0000 		.4byte	0x16fc
 5963 1615 900A0000 		.4byte	0x7d
 5964 1619 01       		.4byte	.LBB820
 5965 161a BD02     		.4byte	.LBE820
 5966 161c 10       		.byte	0x1
 5967 161d 08010000 		.2byte	0x1e7
 5968 1621 00       		.uleb128 0x10
 5969 1622 11       		.4byte	0xed
 5970 1623 7D000000 		.uleb128 0x10
 5971 1627 900A0000 		.4byte	0xe6
 5972 162b 940A0000 		.byte	0x0
 5973 162f 01       		.uleb128 0xf
 5974 1630 BD02     		.4byte	0x1716
 5975 1632 10       		.4byte	0xa2
 5976 1633 ED000000 		.4byte	.LBB822
 5977 1637 10       		.4byte	.LBE822
 5978 1638 E6000000 		.byte	0x1
 5979 163c 00       		.2byte	0x1ed
 5980 163d 00       		.uleb128 0x10
 5981 163e 1E       		.4byte	0x108
 5982 163f 01       		.byte	0x0
 5983 1640 D6000000 		.uleb128 0x1f
 5984 1644 01       		.4byte	0x1731
 5985 1645 6B       		.4byte	0x7d
 5986 1646 01       		.4byte	.Ldebug_ranges0+0x0
 5987 1647 CC0A0000 		.byte	0x1
 5988 164b D80A0000 		.2byte	0x1f4
 5989 164f 82020000 		.uleb128 0x10
 5990 1653 0C       		.4byte	0xed
 5991 1654 0A180000 		.uleb128 0x10
 5992 1658 01       		.4byte	0xe6
 5993 1659 74000000 		.byte	0x0
 5994 165d 01       		.uleb128 0x1f
 5995 165e D801     		.4byte	0x174c
 5996 1660 01       		.4byte	0x7d
 5997 1661 D80A0000 		.4byte	.Ldebug_ranges0+0x18
 5998 1665 B00B0000 		.byte	0x1
 5999 1669 A1020000 		.2byte	0x1f6
 6000 166d 1D       		.uleb128 0x10
 6001 166e B7000000 		.4byte	0xed
 6002 1672 01       		.uleb128 0x10
 6003 1673 DC01     		.4byte	0xe6
 6004 1675 30000000 		.byte	0x0
 6005 1679 1D       		.uleb128 0x1f
 6006 167a DF010000 		.4byte	0x1767
 6007 167e 01       		.4byte	0x7d
 6008 167f DD01     		.4byte	.Ldebug_ranges0+0x30
 6009 1681 30000000 		.byte	0x1
 6010 1685 0F       		.2byte	0x1f8
ARM GAS  C:\DOCUME~1\pstang\LOCALS~1\Temp/cc80aaaa.s 			page 121


 6011 1686 9F160000 		.uleb128 0x10
 6012 168a A2000000 		.4byte	0xed
 6013 168e DC0A0000 		.uleb128 0x10
 6014 1692 E80A0000 		.4byte	0xe6
 6015 1696 01       		.byte	0x0
 6016 1697 E001     		.uleb128 0x1f
 6017 1699 10       		.4byte	0x1782
 6018 169a 08010000 		.4byte	0x7d
 6019 169e 00       		.4byte	.Ldebug_ranges0+0x48
 6020 169f 0F       		.byte	0x1
 6021 16a0 BE160000 		.2byte	0x1fa
 6022 16a4 7D000000 		.uleb128 0x10
 6023 16a8 E80A0000 		.4byte	0xed
 6024 16ac F00A0000 		.uleb128 0x10
 6025 16b0 01       		.4byte	0xe6
 6026 16b1 E201     		.byte	0x0
 6027 16b3 10       		.uleb128 0x1f
 6028 16b4 ED000000 		.4byte	0x179d
 6029 16b8 10       		.4byte	0x7d
 6030 16b9 E6000000 		.4byte	.Ldebug_ranges0+0x60
 6031 16bd 00       		.byte	0x1
 6032 16be 0F       		.2byte	0x1fc
 6033 16bf DD160000 		.uleb128 0x10
 6034 16c3 7D000000 		.4byte	0xed
 6035 16c7 F80A0000 		.uleb128 0x10
 6036 16cb 000B0000 		.4byte	0xe6
 6037 16cf 01       		.byte	0x0
 6038 16d0 E601     		.uleb128 0x1f
 6039 16d2 10       		.4byte	0x17b8
 6040 16d3 ED000000 		.4byte	0x7d
 6041 16d7 10       		.4byte	.Ldebug_ranges0+0x78
 6042 16d8 E6000000 		.byte	0x1
 6043 16dc 00       		.2byte	0x1fe
 6044 16dd 0F       		.uleb128 0x10
 6045 16de FC160000 		.4byte	0xed
 6046 16e2 7D000000 		.uleb128 0x10
 6047 16e6 000B0000 		.4byte	0xe6
 6048 16ea 040B0000 		.byte	0x0
 6049 16ee 01       		.uleb128 0x1f
 6050 16ef E701     		.4byte	0x17d3
 6051 16f1 10       		.4byte	0x7d
 6052 16f2 ED000000 		.4byte	.Ldebug_ranges0+0x90
 6053 16f6 10       		.byte	0x1
 6054 16f7 E6000000 		.2byte	0x200
 6055 16fb 00       		.uleb128 0x10
 6056 16fc 0F       		.4byte	0xed
 6057 16fd 16170000 		.uleb128 0x10
 6058 1701 A2000000 		.4byte	0xe6
 6059 1705 0C0B0000 		.byte	0x0
 6060 1709 100B0000 		.uleb128 0x1f
 6061 170d 01       		.4byte	0x17ee
 6062 170e ED01     		.4byte	0x7d
 6063 1710 10       		.4byte	.Ldebug_ranges0+0xa8
 6064 1711 08010000 		.byte	0x1
 6065 1715 00       		.2byte	0x202
 6066 1716 1F       		.uleb128 0x10
 6067 1717 31170000 		.4byte	0xed
ARM GAS  C:\DOCUME~1\pstang\LOCALS~1\Temp/cc80aaaa.s 			page 122


 6068 171b 7D000000 		.uleb128 0x10
 6069 171f 00000000 		.4byte	0xe6
 6070 1723 01       		.byte	0x0
 6071 1724 F401     		.uleb128 0x11
 6072 1726 10       		.4byte	0x7d
 6073 1727 ED000000 		.4byte	.LBB856
 6074 172b 10       		.4byte	.LBE856
 6075 172c E6000000 		.byte	0x1
 6076 1730 00       		.2byte	0x206
 6077 1731 1F       		.uleb128 0x10
 6078 1732 4C170000 		.4byte	0xed
 6079 1736 7D000000 		.uleb128 0x10
 6080 173a 18000000 		.4byte	0xe6
 6081 173e 01       		.byte	0x0
 6082 173f F601     		.byte	0x0
 6083 1741 10       		.uleb128 0xc
 6084 1742 ED000000 		.4byte	0x1847
 6085 1746 10       		.byte	0x1
 6086 1747 E6000000 		.4byte	.LASF42
 6087 174b 00       		.byte	0x1
 6088 174c 1F       		.2byte	0x1ce
 6089 174d 67170000 		.byte	0x1
 6090 1751 7D000000 		.4byte	.LFB18
 6091 1755 30000000 		.4byte	.LFE18
 6092 1759 01       		.4byte	.LLST31
 6093 175a F801     		.uleb128 0x1d
 6094 175c 10       		.4byte	.LASF43
 6095 175d ED000000 		.byte	0x1
 6096 1761 10       		.2byte	0x1cf
 6097 1762 E6000000 		.4byte	0x30
 6098 1766 00       		.uleb128 0x11
 6099 1767 1F       		.4byte	0xa2
 6100 1768 82170000 		.4byte	.LBB858
 6101 176c 7D000000 		.4byte	.LBE858
 6102 1770 48000000 		.byte	0x1
 6103 1774 01       		.2byte	0x1cf
 6104 1775 FA01     		.uleb128 0x10
 6105 1777 10       		.4byte	0x108
 6106 1778 ED000000 		.byte	0x0
 6107 177c 10       		.byte	0x0
 6108 177d E6000000 		.uleb128 0x1b
 6109 1781 00       		.4byte	0x1ad1
 6110 1782 1F       		.byte	0x1
 6111 1783 9D170000 		.4byte	.LASF44
 6112 1787 7D000000 		.byte	0x1
 6113 178b 60000000 		.2byte	0x150
 6114 178f 01       		.byte	0x1
 6115 1790 FC01     		.4byte	0x68
 6116 1792 10       		.4byte	.LFB15
 6117 1793 ED000000 		.4byte	.LFE15
 6118 1797 10       		.4byte	.LLST32
 6119 1798 E6000000 		.uleb128 0x1d
 6120 179c 00       		.4byte	.LASF45
 6121 179d 1F       		.byte	0x1
 6122 179e B8170000 		.2byte	0x151
 6123 17a2 7D000000 		.4byte	0x30
 6124 17a6 78000000 		.uleb128 0x1a
ARM GAS  C:\DOCUME~1\pstang\LOCALS~1\Temp/cc80aaaa.s 			page 123


 6125 17aa 01       		.4byte	.LASF46
 6126 17ab FE01     		.byte	0x1
 6127 17ad 10       		.2byte	0x152
 6128 17ae ED000000 		.4byte	0x30
 6129 17b2 10       		.4byte	.LLST33
 6130 17b3 E6000000 		.uleb128 0x1a
 6131 17b7 00       		.4byte	.LASF25
 6132 17b8 1F       		.byte	0x1
 6133 17b9 D3170000 		.2byte	0x153
 6134 17bd 7D000000 		.4byte	0x30
 6135 17c1 90000000 		.4byte	.LLST34
 6136 17c5 01       		.uleb128 0x19
 6137 17c6 0002     		.ascii	"i\000"
 6138 17c8 10       		.byte	0x1
 6139 17c9 ED000000 		.2byte	0x154
 6140 17cd 10       		.4byte	0x30
 6141 17ce E6000000 		.4byte	.LLST35
 6142 17d2 00       		.uleb128 0xe
 6143 17d3 1F       		.4byte	.LASF47
 6144 17d4 EE170000 		.byte	0x1
 6145 17d8 7D000000 		.2byte	0x156
 6146 17dc A8000000 		.4byte	0x1ad1
 6147 17e0 01       		.byte	0x2
 6148 17e1 0202     		.byte	0x91
 6149 17e3 10       		.sleb128 -8
 6150 17e4 ED000000 		.uleb128 0x1d
 6151 17e8 10       		.4byte	.LASF48
 6152 17e9 E6000000 		.byte	0x1
 6153 17ed 00       		.2byte	0x157
 6154 17ee 11       		.4byte	0x68
 6155 17ef 7D000000 		.uleb128 0xf
 6156 17f3 A40B0000 		.4byte	0x18d9
 6157 17f7 B00B0000 		.4byte	0x7d
 6158 17fb 01       		.4byte	.LBB860
 6159 17fc 0602     		.4byte	.LBE860
 6160 17fe 10       		.byte	0x1
 6161 17ff ED000000 		.2byte	0x15d
 6162 1803 10       		.uleb128 0x10
 6163 1804 E6000000 		.4byte	0xed
 6164 1808 00       		.uleb128 0x10
 6165 1809 00       		.4byte	0xe6
 6166 180a 0C       		.byte	0x0
 6167 180b 47180000 		.uleb128 0xf
 6168 180f 01       		.4byte	0x18f3
 6169 1810 AE020000 		.4byte	0xa2
 6170 1814 01       		.4byte	.LBB862
 6171 1815 CE01     		.4byte	.LBE862
 6172 1817 01       		.byte	0x1
 6173 1818 B00B0000 		.2byte	0x15e
 6174 181c CC0B0000 		.uleb128 0x10
 6175 1820 C0020000 		.4byte	0x108
 6176 1824 1D       		.byte	0x0
 6177 1825 CC010000 		.uleb128 0xf
 6178 1829 01       		.4byte	0x1912
 6179 182a CF01     		.4byte	0x7d
 6180 182c 30000000 		.4byte	.LBB864
 6181 1830 11       		.4byte	.LBE864
ARM GAS  C:\DOCUME~1\pstang\LOCALS~1\Temp/cc80aaaa.s 			page 124


 6182 1831 A2000000 		.byte	0x1
 6183 1835 B40B0000 		.2byte	0x160
 6184 1839 BC0B0000 		.uleb128 0x10
 6185 183d 01       		.4byte	0xed
 6186 183e CF01     		.uleb128 0x10
 6187 1840 10       		.4byte	0xe6
 6188 1841 08010000 		.byte	0x0
 6189 1845 00       		.uleb128 0xf
 6190 1846 00       		.4byte	0x192c
 6191 1847 1B       		.4byte	0xa2
 6192 1848 D11A0000 		.4byte	.LBB866
 6193 184c 01       		.4byte	.LBE866
 6194 184d 82010000 		.byte	0x1
 6195 1851 01       		.2byte	0x161
 6196 1852 5001     		.uleb128 0x10
 6197 1854 01       		.4byte	0x108
 6198 1855 68000000 		.byte	0x0
 6199 1859 CC0B0000 		.uleb128 0xf
 6200 185d 280D0000 		.4byte	0x194b
 6201 1861 DF020000 		.4byte	0x7d
 6202 1865 1D       		.4byte	.LBB868
 6203 1866 3C020000 		.4byte	.LBE868
 6204 186a 01       		.byte	0x1
 6205 186b 5101     		.2byte	0x16e
 6206 186d 30000000 		.uleb128 0x10
 6207 1871 1A       		.4byte	0xed
 6208 1872 2C000000 		.uleb128 0x10
 6209 1876 01       		.4byte	0xe6
 6210 1877 5201     		.byte	0x0
 6211 1879 30000000 		.uleb128 0xf
 6212 187d 0A030000 		.4byte	0x196a
 6213 1881 1A       		.4byte	0x7d
 6214 1882 65010000 		.4byte	.LBB870
 6215 1886 01       		.4byte	.LBE870
 6216 1887 5301     		.byte	0x1
 6217 1889 30000000 		.2byte	0x174
 6218 188d 28030000 		.uleb128 0x10
 6219 1891 19       		.4byte	0xed
 6220 1892 6900     		.uleb128 0x10
 6221 1894 01       		.4byte	0xe6
 6222 1895 5401     		.byte	0x0
 6223 1897 30000000 		.uleb128 0xf
 6224 189b 46030000 		.4byte	0x1989
 6225 189f 0E       		.4byte	0x7d
 6226 18a0 38000000 		.4byte	.LBB872
 6227 18a4 01       		.4byte	.LBE872
 6228 18a5 5601     		.byte	0x1
 6229 18a7 D11A0000 		.2byte	0x175
 6230 18ab 02       		.uleb128 0x10
 6231 18ac 91       		.4byte	0xed
 6232 18ad 78       		.uleb128 0x10
 6233 18ae 1D       		.4byte	0xe6
 6234 18af F2010000 		.byte	0x0
 6235 18b3 01       		.uleb128 0xf
 6236 18b4 5701     		.4byte	0x19a8
 6237 18b6 68000000 		.4byte	0x7d
 6238 18ba 0F       		.4byte	.LBB874
ARM GAS  C:\DOCUME~1\pstang\LOCALS~1\Temp/cc80aaaa.s 			page 125


 6239 18bb D9180000 		.4byte	.LBE874
 6240 18bf 7D000000 		.byte	0x1
 6241 18c3 D80B0000 		.2byte	0x176
 6242 18c7 E80B0000 		.uleb128 0x10
 6243 18cb 01       		.4byte	0xed
 6244 18cc 5D01     		.uleb128 0x10
 6245 18ce 10       		.4byte	0xe6
 6246 18cf ED000000 		.byte	0x0
 6247 18d3 10       		.uleb128 0xf
 6248 18d4 E6000000 		.4byte	0x19c7
 6249 18d8 00       		.4byte	0x7d
 6250 18d9 0F       		.4byte	.LBB876
 6251 18da F3180000 		.4byte	.LBE876
 6252 18de A2000000 		.byte	0x1
 6253 18e2 E80B0000 		.2byte	0x177
 6254 18e6 EC0B0000 		.uleb128 0x10
 6255 18ea 01       		.4byte	0xed
 6256 18eb 5E01     		.uleb128 0x10
 6257 18ed 10       		.4byte	0xe6
 6258 18ee 08010000 		.byte	0x0
 6259 18f2 00       		.uleb128 0xf
 6260 18f3 0F       		.4byte	0x19e6
 6261 18f4 12190000 		.4byte	0x7d
 6262 18f8 7D000000 		.4byte	.LBB878
 6263 18fc EC0B0000 		.4byte	.LBE878
 6264 1900 F40B0000 		.byte	0x1
 6265 1904 01       		.2byte	0x17e
 6266 1905 6001     		.uleb128 0x10
 6267 1907 10       		.4byte	0xed
 6268 1908 ED000000 		.uleb128 0x10
 6269 190c 10       		.4byte	0xe6
 6270 190d E6000000 		.byte	0x0
 6271 1911 00       		.uleb128 0xf
 6272 1912 0F       		.4byte	0x1a05
 6273 1913 2C190000 		.4byte	0x7d
 6274 1917 A2000000 		.4byte	.LBB880
 6275 191b F40B0000 		.4byte	.LBE880
 6276 191f F80B0000 		.byte	0x1
 6277 1923 01       		.2byte	0x17f
 6278 1924 6101     		.uleb128 0x10
 6279 1926 10       		.4byte	0xed
 6280 1927 08010000 		.uleb128 0x10
 6281 192b 00       		.4byte	0xe6
 6282 192c 0F       		.byte	0x0
 6283 192d 4B190000 		.uleb128 0xf
 6284 1931 7D000000 		.4byte	0x1a24
 6285 1935 140C0000 		.4byte	0x7d
 6286 1939 240C0000 		.4byte	.LBB882
 6287 193d 01       		.4byte	.LBE882
 6288 193e 6E01     		.byte	0x1
 6289 1940 10       		.2byte	0x180
 6290 1941 ED000000 		.uleb128 0x10
 6291 1945 10       		.4byte	0xed
 6292 1946 E6000000 		.uleb128 0x10
 6293 194a 00       		.4byte	0xe6
 6294 194b 0F       		.byte	0x0
 6295 194c 6A190000 		.uleb128 0xf
ARM GAS  C:\DOCUME~1\pstang\LOCALS~1\Temp/cc80aaaa.s 			page 126


 6296 1950 7D000000 		.4byte	0x1a47
 6297 1954 300C0000 		.4byte	0x7d
 6298 1958 380C0000 		.4byte	.LBB884
 6299 195c 01       		.4byte	.LBE884
 6300 195d 7401     		.byte	0x1
 6301 195f 10       		.2byte	0x181
 6302 1960 ED000000 		.uleb128 0xb
 6303 1964 10       		.4byte	0xed
 6304 1965 E6000000 		.4byte	.LLST36
 6305 1969 00       		.uleb128 0x10
 6306 196a 0F       		.4byte	0xe6
 6307 196b 89190000 		.byte	0x0
 6308 196f 7D000000 		.uleb128 0xf
 6309 1973 380C0000 		.4byte	0x1a66
 6310 1977 400C0000 		.4byte	0x7d
 6311 197b 01       		.4byte	.LBB886
 6312 197c 7501     		.4byte	.LBE886
 6313 197e 10       		.byte	0x1
 6314 197f ED000000 		.2byte	0x182
 6315 1983 10       		.uleb128 0x10
 6316 1984 E6000000 		.4byte	0xed
 6317 1988 00       		.uleb128 0x10
 6318 1989 0F       		.4byte	0xe6
 6319 198a A8190000 		.byte	0x0
 6320 198e 7D000000 		.uleb128 0x1f
 6321 1992 400C0000 		.4byte	0x1a7c
 6322 1996 480C0000 		.4byte	0xa2
 6323 199a 01       		.4byte	.Ldebug_ranges0+0xc0
 6324 199b 7601     		.byte	0x1
 6325 199d 10       		.2byte	0x184
 6326 199e ED000000 		.uleb128 0x10
 6327 19a2 10       		.4byte	0x108
 6328 19a3 E6000000 		.byte	0x0
 6329 19a7 00       		.uleb128 0xf
 6330 19a8 0F       		.4byte	0x1a9b
 6331 19a9 C7190000 		.4byte	0x7d
 6332 19ad 7D000000 		.4byte	.LBB896
 6333 19b1 480C0000 		.4byte	.LBE896
 6334 19b5 580C0000 		.byte	0x1
 6335 19b9 01       		.2byte	0x187
 6336 19ba 7701     		.uleb128 0x10
 6337 19bc 10       		.4byte	0xed
 6338 19bd ED000000 		.uleb128 0x10
 6339 19c1 10       		.4byte	0xe6
 6340 19c2 E6000000 		.byte	0x0
 6341 19c6 00       		.uleb128 0xf
 6342 19c7 0F       		.4byte	0x1ab5
 6343 19c8 E6190000 		.4byte	0xa2
 6344 19cc 7D000000 		.4byte	.LBB898
 6345 19d0 580C0000 		.4byte	.LBE898
 6346 19d4 680C0000 		.byte	0x1
 6347 19d8 01       		.2byte	0x189
 6348 19d9 7E01     		.uleb128 0x10
 6349 19db 10       		.4byte	0x108
 6350 19dc ED000000 		.byte	0x0
 6351 19e0 10       		.uleb128 0x11
 6352 19e1 E6000000 		.4byte	0x7d
ARM GAS  C:\DOCUME~1\pstang\LOCALS~1\Temp/cc80aaaa.s 			page 127


 6353 19e5 00       		.4byte	.LBB900
 6354 19e6 0F       		.4byte	.LBE900
 6355 19e7 051A0000 		.byte	0x1
 6356 19eb 7D000000 		.2byte	0x18b
 6357 19ef 680C0000 		.uleb128 0x10
 6358 19f3 700C0000 		.4byte	0xed
 6359 19f7 01       		.uleb128 0x10
 6360 19f8 7F01     		.4byte	0xe6
 6361 19fa 10       		.byte	0x0
 6362 19fb ED000000 		.byte	0x0
 6363 19ff 10       		.uleb128 0x20
 6364 1a00 E6000000 		.4byte	0x1ae1
 6365 1a04 00       		.4byte	0x30
 6366 1a05 0F       		.uleb128 0x21
 6367 1a06 241A0000 		.4byte	0x1ae1
 6368 1a0a 7D000000 		.byte	0x3
 6369 1a0e 700C0000 		.byte	0x0
 6370 1a12 740C0000 		.uleb128 0x3
 6371 1a16 01       		.4byte	.LASF4
 6372 1a17 8001     		.byte	0x4
 6373 1a19 10       		.byte	0x7
 6374 1a1a ED000000 		.uleb128 0x22
 6375 1a1e 10       		.4byte	0x1b31
 6376 1a1f E6000000 		.byte	0x1
 6377 1a23 00       		.4byte	.LASF49
 6378 1a24 0F       		.byte	0x1
 6379 1a25 471A0000 		.byte	0x31
 6380 1a29 7D000000 		.byte	0x1
 6381 1a2d 7C0C0000 		.4byte	0x68
 6382 1a31 800C0000 		.4byte	.LFB4
 6383 1a35 01       		.4byte	.LFE4
 6384 1a36 8101     		.4byte	.LLST37
 6385 1a38 0B       		.uleb128 0x17
 6386 1a39 ED000000 		.4byte	.LASF50
 6387 1a3d 59030000 		.byte	0x1
 6388 1a41 10       		.byte	0x30
 6389 1a42 E6000000 		.4byte	0x68
 6390 1a46 00       		.4byte	.LLST38
 6391 1a47 0F       		.uleb128 0x17
 6392 1a48 661A0000 		.4byte	.LASF22
 6393 1a4c 7D000000 		.byte	0x1
 6394 1a50 800C0000 		.byte	0x30
 6395 1a54 880C0000 		.4byte	0x2f3
 6396 1a58 01       		.4byte	.LLST39
 6397 1a59 8201     		.uleb128 0x23
 6398 1a5b 10       		.4byte	.LASF15
 6399 1a5c ED000000 		.byte	0x1
 6400 1a60 10       		.byte	0x32
 6401 1a61 E6000000 		.4byte	0x68
 6402 1a65 00       		.byte	0x1
 6403 1a66 1F       		.byte	0x54
 6404 1a67 7C1A0000 		.byte	0x0
 6405 1a6b A2000000 		.uleb128 0x15
 6406 1a6f C0000000 		.4byte	0x1f5e
 6407 1a73 01       		.byte	0x1
 6408 1a74 8401     		.4byte	.LASF51
 6409 1a76 10       		.byte	0x1
ARM GAS  C:\DOCUME~1\pstang\LOCALS~1\Temp/cc80aaaa.s 			page 128


 6410 1a77 08010000 		.byte	0xc6
 6411 1a7b 00       		.byte	0x1
 6412 1a7c 0F       		.4byte	.LFB11
 6413 1a7d 9B1A0000 		.4byte	.LFE11
 6414 1a81 7D000000 		.4byte	.LLST40
 6415 1a85 AC0C0000 		.uleb128 0x24
 6416 1a89 B80C0000 		.4byte	.LASF52
 6417 1a8d 01       		.byte	0x1
 6418 1a8e 8701     		.byte	0xc7
 6419 1a90 10       		.4byte	0x30
 6420 1a91 ED000000 		.uleb128 0x25
 6421 1a95 10       		.4byte	0x1b6e
 6422 1a96 E6000000 		.4byte	0xa2
 6423 1a9a 00       		.4byte	.LBB902
 6424 1a9b 0F       		.4byte	.LBE902
 6425 1a9c B51A0000 		.byte	0x1
 6426 1aa0 A2000000 		.byte	0xd2
 6427 1aa4 B80C0000 		.uleb128 0x10
 6428 1aa8 BC0C0000 		.4byte	0x108
 6429 1aac 01       		.byte	0x0
 6430 1aad 8901     		.uleb128 0x25
 6431 1aaf 10       		.4byte	0x1b8c
 6432 1ab0 08010000 		.4byte	0x7d
 6433 1ab4 00       		.4byte	.LBB904
 6434 1ab5 11       		.4byte	.LBE904
 6435 1ab6 7D000000 		.byte	0x1
 6436 1aba D40C0000 		.byte	0xd2
 6437 1abe E00C0000 		.uleb128 0x10
 6438 1ac2 01       		.4byte	0xed
 6439 1ac3 8B01     		.uleb128 0x10
 6440 1ac5 10       		.4byte	0xe6
 6441 1ac6 ED000000 		.byte	0x0
 6442 1aca 10       		.uleb128 0x25
 6443 1acb E6000000 		.4byte	0x1ba5
 6444 1acf 00       		.4byte	0xa2
 6445 1ad0 00       		.4byte	.LBB906
 6446 1ad1 20       		.4byte	.LBE906
 6447 1ad2 E11A0000 		.byte	0x1
 6448 1ad6 30000000 		.byte	0xd6
 6449 1ada 21       		.uleb128 0x10
 6450 1adb E11A0000 		.4byte	0x108
 6451 1adf 03       		.byte	0x0
 6452 1ae0 00       		.uleb128 0x25
 6453 1ae1 03       		.4byte	0x1bbe
 6454 1ae2 13020000 		.4byte	0xa2
 6455 1ae6 04       		.4byte	.LBB908
 6456 1ae7 07       		.4byte	.LBE908
 6457 1ae8 22       		.byte	0x1
 6458 1ae9 311B0000 		.byte	0xd7
 6459 1aed 01       		.uleb128 0x10
 6460 1aee 1A010000 		.4byte	0x108
 6461 1af2 01       		.byte	0x0
 6462 1af3 31       		.uleb128 0x25
 6463 1af4 01       		.4byte	0x1bd7
 6464 1af5 68000000 		.4byte	0xa2
 6465 1af9 280D0000 		.4byte	.LBB910
 6466 1afd 6C0D0000 		.4byte	.LBE910
ARM GAS  C:\DOCUME~1\pstang\LOCALS~1\Temp/cc80aaaa.s 			page 129


 6467 1b01 6C030000 		.byte	0x1
 6468 1b05 17       		.byte	0xdb
 6469 1b06 CE020000 		.uleb128 0x10
 6470 1b0a 01       		.4byte	0x108
 6471 1b0b 30       		.byte	0x0
 6472 1b0c 68000000 		.uleb128 0x25
 6473 1b10 8B030000 		.4byte	0x1bf5
 6474 1b14 17       		.4byte	0x7d
 6475 1b15 EA000000 		.4byte	.LBB912
 6476 1b19 01       		.4byte	.LBE912
 6477 1b1a 30       		.byte	0x1
 6478 1b1b F3020000 		.byte	0xe2
 6479 1b1f A9030000 		.uleb128 0x10
 6480 1b23 23       		.4byte	0xed
 6481 1b24 37010000 		.uleb128 0x10
 6482 1b28 01       		.4byte	0xe6
 6483 1b29 32       		.byte	0x0
 6484 1b2a 68000000 		.uleb128 0x25
 6485 1b2e 01       		.4byte	0x1c13
 6486 1b2f 54       		.4byte	0x7d
 6487 1b30 00       		.4byte	.LBB914
 6488 1b31 15       		.4byte	.LBE914
 6489 1b32 5E1F0000 		.byte	0x1
 6490 1b36 01       		.byte	0xe4
 6491 1b37 D5020000 		.uleb128 0x10
 6492 1b3b 01       		.4byte	0xed
 6493 1b3c C6       		.uleb128 0x10
 6494 1b3d 01       		.4byte	0xe6
 6495 1b3e 6C0D0000 		.byte	0x0
 6496 1b42 C40E0000 		.uleb128 0x25
 6497 1b46 C7030000 		.4byte	0x1c31
 6498 1b4a 24       		.4byte	0x7d
 6499 1b4b 0F010000 		.4byte	.LBB916
 6500 1b4f 01       		.4byte	.LBE916
 6501 1b50 C7       		.byte	0x1
 6502 1b51 30000000 		.byte	0xe5
 6503 1b55 25       		.uleb128 0x10
 6504 1b56 6E1B0000 		.4byte	0xed
 6505 1b5a A2000000 		.uleb128 0x10
 6506 1b5e 700D0000 		.4byte	0xe6
 6507 1b62 7C0D0000 		.byte	0x0
 6508 1b66 01       		.uleb128 0x25
 6509 1b67 D2       		.4byte	0x1c4f
 6510 1b68 10       		.4byte	0x7d
 6511 1b69 08010000 		.4byte	.LBB918
 6512 1b6d 00       		.4byte	.LBE918
 6513 1b6e 25       		.byte	0x1
 6514 1b6f 8C1B0000 		.byte	0xe6
 6515 1b73 7D000000 		.uleb128 0x10
 6516 1b77 7C0D0000 		.4byte	0xed
 6517 1b7b 800D0000 		.uleb128 0x10
 6518 1b7f 01       		.4byte	0xe6
 6519 1b80 D2       		.byte	0x0
 6520 1b81 10       		.uleb128 0x25
 6521 1b82 ED000000 		.4byte	0x1c6d
 6522 1b86 10       		.4byte	0x7d
 6523 1b87 E6000000 		.4byte	.LBB920
ARM GAS  C:\DOCUME~1\pstang\LOCALS~1\Temp/cc80aaaa.s 			page 130


 6524 1b8b 00       		.4byte	.LBE920
 6525 1b8c 25       		.byte	0x1
 6526 1b8d A51B0000 		.byte	0xe7
 6527 1b91 A2000000 		.uleb128 0x10
 6528 1b95 880D0000 		.4byte	0xed
 6529 1b99 900D0000 		.uleb128 0x10
 6530 1b9d 01       		.4byte	0xe6
 6531 1b9e D6       		.byte	0x0
 6532 1b9f 10       		.uleb128 0x25
 6533 1ba0 08010000 		.4byte	0x1c8b
 6534 1ba4 00       		.4byte	0x7d
 6535 1ba5 25       		.4byte	.LBB922
 6536 1ba6 BE1B0000 		.4byte	.LBE922
 6537 1baa A2000000 		.byte	0x1
 6538 1bae 900D0000 		.byte	0xe8
 6539 1bb2 940D0000 		.uleb128 0x10
 6540 1bb6 01       		.4byte	0xed
 6541 1bb7 D7       		.uleb128 0x10
 6542 1bb8 10       		.4byte	0xe6
 6543 1bb9 08010000 		.byte	0x0
 6544 1bbd 00       		.uleb128 0x25
 6545 1bbe 25       		.4byte	0x1ca9
 6546 1bbf D71B0000 		.4byte	0x7d
 6547 1bc3 A2000000 		.4byte	.LBB924
 6548 1bc7 9C0D0000 		.4byte	.LBE924
 6549 1bcb A00D0000 		.byte	0x1
 6550 1bcf 01       		.byte	0xe9
 6551 1bd0 DB       		.uleb128 0x10
 6552 1bd1 10       		.4byte	0xed
 6553 1bd2 08010000 		.uleb128 0x10
 6554 1bd6 00       		.4byte	0xe6
 6555 1bd7 25       		.byte	0x0
 6556 1bd8 F51B0000 		.uleb128 0x25
 6557 1bdc 7D000000 		.4byte	0x1cc7
 6558 1be0 D40D0000 		.4byte	0x7d
 6559 1be4 E40D0000 		.4byte	.LBB926
 6560 1be8 01       		.4byte	.LBE926
 6561 1be9 E2       		.byte	0x1
 6562 1bea 10       		.byte	0xea
 6563 1beb ED000000 		.uleb128 0x10
 6564 1bef 10       		.4byte	0xed
 6565 1bf0 E6000000 		.uleb128 0x10
 6566 1bf4 00       		.4byte	0xe6
 6567 1bf5 25       		.byte	0x0
 6568 1bf6 131C0000 		.uleb128 0x25
 6569 1bfa 7D000000 		.4byte	0x1ce5
 6570 1bfe EC0D0000 		.4byte	0x7d
 6571 1c02 F40D0000 		.4byte	.LBB928
 6572 1c06 01       		.4byte	.LBE928
 6573 1c07 E4       		.byte	0x1
 6574 1c08 10       		.byte	0xeb
 6575 1c09 ED000000 		.uleb128 0x10
 6576 1c0d 10       		.4byte	0xed
 6577 1c0e E6000000 		.uleb128 0x10
 6578 1c12 00       		.4byte	0xe6
 6579 1c13 25       		.byte	0x0
 6580 1c14 311C0000 		.uleb128 0x25
ARM GAS  C:\DOCUME~1\pstang\LOCALS~1\Temp/cc80aaaa.s 			page 131


 6581 1c18 7D000000 		.4byte	0x1d03
 6582 1c1c F40D0000 		.4byte	0x7d
 6583 1c20 F80D0000 		.4byte	.LBB930
 6584 1c24 01       		.4byte	.LBE930
 6585 1c25 E5       		.byte	0x1
 6586 1c26 10       		.byte	0xec
 6587 1c27 ED000000 		.uleb128 0x10
 6588 1c2b 10       		.4byte	0xed
 6589 1c2c E6000000 		.uleb128 0x10
 6590 1c30 00       		.4byte	0xe6
 6591 1c31 25       		.byte	0x0
 6592 1c32 4F1C0000 		.uleb128 0x25
 6593 1c36 7D000000 		.4byte	0x1d21
 6594 1c3a F80D0000 		.4byte	0x7d
 6595 1c3e FC0D0000 		.4byte	.LBB932
 6596 1c42 01       		.4byte	.LBE932
 6597 1c43 E6       		.byte	0x1
 6598 1c44 10       		.byte	0xef
 6599 1c45 ED000000 		.uleb128 0x10
 6600 1c49 10       		.4byte	0xed
 6601 1c4a E6000000 		.uleb128 0x10
 6602 1c4e 00       		.4byte	0xe6
 6603 1c4f 25       		.byte	0x0
 6604 1c50 6D1C0000 		.uleb128 0x25
 6605 1c54 7D000000 		.4byte	0x1d3f
 6606 1c58 FC0D0000 		.4byte	0x7d
 6607 1c5c 000E0000 		.4byte	.LBB934
 6608 1c60 01       		.4byte	.LBE934
 6609 1c61 E7       		.byte	0x1
 6610 1c62 10       		.byte	0xf1
 6611 1c63 ED000000 		.uleb128 0x10
 6612 1c67 10       		.4byte	0xed
 6613 1c68 E6000000 		.uleb128 0x10
 6614 1c6c 00       		.4byte	0xe6
 6615 1c6d 25       		.byte	0x0
 6616 1c6e 8B1C0000 		.uleb128 0x25
 6617 1c72 7D000000 		.4byte	0x1d5d
 6618 1c76 000E0000 		.4byte	0x7d
 6619 1c7a 080E0000 		.4byte	.LBB936
 6620 1c7e 01       		.4byte	.LBE936
 6621 1c7f E8       		.byte	0x1
 6622 1c80 10       		.byte	0xf2
 6623 1c81 ED000000 		.uleb128 0x10
 6624 1c85 10       		.4byte	0xed
 6625 1c86 E6000000 		.uleb128 0x10
 6626 1c8a 00       		.4byte	0xe6
 6627 1c8b 25       		.byte	0x0
 6628 1c8c A91C0000 		.uleb128 0x25
 6629 1c90 7D000000 		.4byte	0x1d7b
 6630 1c94 080E0000 		.4byte	0x7d
 6631 1c98 100E0000 		.4byte	.LBB938
 6632 1c9c 01       		.4byte	.LBE938
 6633 1c9d E9       		.byte	0x1
 6634 1c9e 10       		.byte	0xf3
 6635 1c9f ED000000 		.uleb128 0x10
 6636 1ca3 10       		.4byte	0xed
 6637 1ca4 E6000000 		.uleb128 0x10
ARM GAS  C:\DOCUME~1\pstang\LOCALS~1\Temp/cc80aaaa.s 			page 132


 6638 1ca8 00       		.4byte	0xe6
 6639 1ca9 25       		.byte	0x0
 6640 1caa C71C0000 		.uleb128 0x25
 6641 1cae 7D000000 		.4byte	0x1d99
 6642 1cb2 100E0000 		.4byte	0x7d
 6643 1cb6 180E0000 		.4byte	.LBB940
 6644 1cba 01       		.4byte	.LBE940
 6645 1cbb EA       		.byte	0x1
 6646 1cbc 10       		.byte	0xf4
 6647 1cbd ED000000 		.uleb128 0x10
 6648 1cc1 10       		.4byte	0xed
 6649 1cc2 E6000000 		.uleb128 0x10
 6650 1cc6 00       		.4byte	0xe6
 6651 1cc7 25       		.byte	0x0
 6652 1cc8 E51C0000 		.uleb128 0x25
 6653 1ccc 7D000000 		.4byte	0x1db7
 6654 1cd0 180E0000 		.4byte	0x7d
 6655 1cd4 1C0E0000 		.4byte	.LBB942
 6656 1cd8 01       		.4byte	.LBE942
 6657 1cd9 EB       		.byte	0x1
 6658 1cda 10       		.byte	0xf5
 6659 1cdb ED000000 		.uleb128 0x10
 6660 1cdf 10       		.4byte	0xed
 6661 1ce0 E6000000 		.uleb128 0x10
 6662 1ce4 00       		.4byte	0xe6
 6663 1ce5 25       		.byte	0x0
 6664 1ce6 031D0000 		.uleb128 0x25
 6665 1cea 7D000000 		.4byte	0x1dd5
 6666 1cee 1C0E0000 		.4byte	0x7d
 6667 1cf2 240E0000 		.4byte	.LBB944
 6668 1cf6 01       		.4byte	.LBE944
 6669 1cf7 EC       		.byte	0x1
 6670 1cf8 10       		.byte	0xf6
 6671 1cf9 ED000000 		.uleb128 0x10
 6672 1cfd 10       		.4byte	0xed
 6673 1cfe E6000000 		.uleb128 0x10
 6674 1d02 00       		.4byte	0xe6
 6675 1d03 25       		.byte	0x0
 6676 1d04 211D0000 		.uleb128 0x25
 6677 1d08 7D000000 		.4byte	0x1df3
 6678 1d0c 240E0000 		.4byte	0x7d
 6679 1d10 2C0E0000 		.4byte	.LBB946
 6680 1d14 01       		.4byte	.LBE946
 6681 1d15 EF       		.byte	0x1
 6682 1d16 10       		.byte	0xf8
 6683 1d17 ED000000 		.uleb128 0x10
 6684 1d1b 10       		.4byte	0xed
 6685 1d1c E6000000 		.uleb128 0x10
 6686 1d20 00       		.4byte	0xe6
 6687 1d21 25       		.byte	0x0
 6688 1d22 3F1D0000 		.uleb128 0x25
 6689 1d26 7D000000 		.4byte	0x1e11
 6690 1d2a 2C0E0000 		.4byte	0x7d
 6691 1d2e 340E0000 		.4byte	.LBB948
 6692 1d32 01       		.4byte	.LBE948
 6693 1d33 F1       		.byte	0x1
 6694 1d34 10       		.byte	0xfa
ARM GAS  C:\DOCUME~1\pstang\LOCALS~1\Temp/cc80aaaa.s 			page 133


 6695 1d35 ED000000 		.uleb128 0x10
 6696 1d39 10       		.4byte	0xed
 6697 1d3a E6000000 		.uleb128 0x10
 6698 1d3e 00       		.4byte	0xe6
 6699 1d3f 25       		.byte	0x0
 6700 1d40 5D1D0000 		.uleb128 0x25
 6701 1d44 7D000000 		.4byte	0x1e2f
 6702 1d48 340E0000 		.4byte	0x7d
 6703 1d4c 380E0000 		.4byte	.LBB950
 6704 1d50 01       		.4byte	.LBE950
 6705 1d51 F2       		.byte	0x1
 6706 1d52 10       		.byte	0xfb
 6707 1d53 ED000000 		.uleb128 0x10
 6708 1d57 10       		.4byte	0xed
 6709 1d58 E6000000 		.uleb128 0x10
 6710 1d5c 00       		.4byte	0xe6
 6711 1d5d 25       		.byte	0x0
 6712 1d5e 7B1D0000 		.uleb128 0x25
 6713 1d62 7D000000 		.4byte	0x1e48
 6714 1d66 380E0000 		.4byte	0xa2
 6715 1d6a 3C0E0000 		.4byte	.LBB952
 6716 1d6e 01       		.4byte	.LBE952
 6717 1d6f F3       		.byte	0x1
 6718 1d70 10       		.byte	0xfd
 6719 1d71 ED000000 		.uleb128 0x10
 6720 1d75 10       		.4byte	0x108
 6721 1d76 E6000000 		.byte	0x0
 6722 1d7a 00       		.uleb128 0xf
 6723 1d7b 25       		.4byte	0x1e69
 6724 1d7c 991D0000 		.4byte	0x7d
 6725 1d80 7D000000 		.4byte	.LBB954
 6726 1d84 3C0E0000 		.4byte	.LBE954
 6727 1d88 440E0000 		.byte	0x1
 6728 1d8c 01       		.2byte	0x102
 6729 1d8d F4       		.uleb128 0xa
 6730 1d8e 10       		.4byte	0xed
 6731 1d8f ED000000 		.byte	0x1
 6732 1d93 10       		.byte	0x50
 6733 1d94 E6000000 		.uleb128 0x10
 6734 1d98 00       		.4byte	0xe6
 6735 1d99 25       		.byte	0x0
 6736 1d9a B71D0000 		.uleb128 0xf
 6737 1d9e 7D000000 		.4byte	0x1e88
 6738 1da2 440E0000 		.4byte	0x7d
 6739 1da6 4C0E0000 		.4byte	.LBB956
 6740 1daa 01       		.4byte	.LBE956
 6741 1dab F5       		.byte	0x1
 6742 1dac 10       		.2byte	0x104
 6743 1dad ED000000 		.uleb128 0x10
 6744 1db1 10       		.4byte	0xed
 6745 1db2 E6000000 		.uleb128 0x10
 6746 1db6 00       		.4byte	0xe6
 6747 1db7 25       		.byte	0x0
 6748 1db8 D51D0000 		.uleb128 0xf
 6749 1dbc 7D000000 		.4byte	0x1ea7
 6750 1dc0 4C0E0000 		.4byte	0x7d
 6751 1dc4 540E0000 		.4byte	.LBB958
ARM GAS  C:\DOCUME~1\pstang\LOCALS~1\Temp/cc80aaaa.s 			page 134


 6752 1dc8 01       		.4byte	.LBE958
 6753 1dc9 F6       		.byte	0x1
 6754 1dca 10       		.2byte	0x106
 6755 1dcb ED000000 		.uleb128 0x10
 6756 1dcf 10       		.4byte	0xed
 6757 1dd0 E6000000 		.uleb128 0x10
 6758 1dd4 00       		.4byte	0xe6
 6759 1dd5 25       		.byte	0x0
 6760 1dd6 F31D0000 		.uleb128 0xf
 6761 1dda 7D000000 		.4byte	0x1ec6
 6762 1dde 540E0000 		.4byte	0x7d
 6763 1de2 5C0E0000 		.4byte	.LBB960
 6764 1de6 01       		.4byte	.LBE960
 6765 1de7 F8       		.byte	0x1
 6766 1de8 10       		.2byte	0x108
 6767 1de9 ED000000 		.uleb128 0x10
 6768 1ded 10       		.4byte	0xed
 6769 1dee E6000000 		.uleb128 0x10
 6770 1df2 00       		.4byte	0xe6
 6771 1df3 25       		.byte	0x0
 6772 1df4 111E0000 		.uleb128 0xf
 6773 1df8 7D000000 		.4byte	0x1ee5
 6774 1dfc 5C0E0000 		.4byte	0x7d
 6775 1e00 640E0000 		.4byte	.LBB962
 6776 1e04 01       		.4byte	.LBE962
 6777 1e05 FA       		.byte	0x1
 6778 1e06 10       		.2byte	0x109
 6779 1e07 ED000000 		.uleb128 0x10
 6780 1e0b 10       		.4byte	0xed
 6781 1e0c E6000000 		.uleb128 0x10
 6782 1e10 00       		.4byte	0xe6
 6783 1e11 25       		.byte	0x0
 6784 1e12 2F1E0000 		.uleb128 0xf
 6785 1e16 7D000000 		.4byte	0x1f04
 6786 1e1a 640E0000 		.4byte	0x7d
 6787 1e1e 6C0E0000 		.4byte	.LBB964
 6788 1e22 01       		.4byte	.LBE964
 6789 1e23 FB       		.byte	0x1
 6790 1e24 10       		.2byte	0x10a
 6791 1e25 ED000000 		.uleb128 0x10
 6792 1e29 10       		.4byte	0xed
 6793 1e2a E6000000 		.uleb128 0x10
 6794 1e2e 00       		.4byte	0xe6
 6795 1e2f 25       		.byte	0x0
 6796 1e30 481E0000 		.uleb128 0xf
 6797 1e34 A2000000 		.4byte	0x1f23
 6798 1e38 6C0E0000 		.4byte	0x7d
 6799 1e3c 700E0000 		.4byte	.LBB966
 6800 1e40 01       		.4byte	.LBE966
 6801 1e41 FD       		.byte	0x1
 6802 1e42 10       		.2byte	0x10b
 6803 1e43 08010000 		.uleb128 0x10
 6804 1e47 00       		.4byte	0xed
 6805 1e48 0F       		.uleb128 0x10
 6806 1e49 691E0000 		.4byte	0xe6
 6807 1e4d 7D000000 		.byte	0x0
 6808 1e51 7C0E0000 		.uleb128 0xf
ARM GAS  C:\DOCUME~1\pstang\LOCALS~1\Temp/cc80aaaa.s 			page 135


 6809 1e55 840E0000 		.4byte	0x1f42
 6810 1e59 01       		.4byte	0x7d
 6811 1e5a 0201     		.4byte	.LBB968
 6812 1e5c 0A       		.4byte	.LBE968
 6813 1e5d ED000000 		.byte	0x1
 6814 1e61 01       		.2byte	0x10c
 6815 1e62 50       		.uleb128 0x10
 6816 1e63 10       		.4byte	0xed
 6817 1e64 E6000000 		.uleb128 0x10
 6818 1e68 00       		.4byte	0xe6
 6819 1e69 0F       		.byte	0x0
 6820 1e6a 881E0000 		.uleb128 0x11
 6821 1e6e 7D000000 		.4byte	0x7d
 6822 1e72 840E0000 		.4byte	.LBB970
 6823 1e76 8C0E0000 		.4byte	.LBE970
 6824 1e7a 01       		.byte	0x1
 6825 1e7b 0401     		.2byte	0x10d
 6826 1e7d 10       		.uleb128 0x10
 6827 1e7e ED000000 		.4byte	0xed
 6828 1e82 10       		.uleb128 0x10
 6829 1e83 E6000000 		.4byte	0xe6
 6830 1e87 00       		.byte	0x0
 6831 1e88 0F       		.byte	0x0
 6832 1e89 A71E0000 		.uleb128 0x1e
 6833 1e8d 7D000000 		.byte	0x1
 6834 1e91 8C0E0000 		.4byte	.LASF53
 6835 1e95 940E0000 		.byte	0x1
 6836 1e99 01       		.byte	0x25
 6837 1e9a 0601     		.byte	0x1
 6838 1e9c 10       		.4byte	.LFB2
 6839 1e9d ED000000 		.4byte	.LFE2
 6840 1ea1 10       		.4byte	.LLST41
 6841 1ea2 E6000000 		.uleb128 0x15
 6842 1ea6 00       		.4byte	0x20c2
 6843 1ea7 0F       		.byte	0x1
 6844 1ea8 C61E0000 		.4byte	.LASF54
 6845 1eac 7D000000 		.byte	0x1
 6846 1eb0 940E0000 		.byte	0x5a
 6847 1eb4 9C0E0000 		.byte	0x1
 6848 1eb8 01       		.4byte	.LFB6
 6849 1eb9 0801     		.4byte	.LFE6
 6850 1ebb 10       		.4byte	.LLST42
 6851 1ebc ED000000 		.uleb128 0x17
 6852 1ec0 10       		.4byte	.LASF55
 6853 1ec1 E6000000 		.byte	0x1
 6854 1ec5 00       		.byte	0x59
 6855 1ec6 0F       		.4byte	0x20c2
 6856 1ec7 E51E0000 		.4byte	.LLST43
 6857 1ecb 7D000000 		.uleb128 0x24
 6858 1ecf 9C0E0000 		.4byte	.LASF56
 6859 1ed3 A40E0000 		.byte	0x1
 6860 1ed7 01       		.byte	0x5b
 6861 1ed8 0901     		.4byte	0x25
 6862 1eda 10       		.uleb128 0x25
 6863 1edb ED000000 		.4byte	0x1fbf
 6864 1edf 10       		.4byte	0xa2
 6865 1ee0 E6000000 		.4byte	.LBB990
ARM GAS  C:\DOCUME~1\pstang\LOCALS~1\Temp/cc80aaaa.s 			page 136


 6866 1ee4 00       		.4byte	.LBE990
 6867 1ee5 0F       		.byte	0x1
 6868 1ee6 041F0000 		.byte	0x5d
 6869 1eea 7D000000 		.uleb128 0x10
 6870 1eee A40E0000 		.4byte	0x108
 6871 1ef2 AC0E0000 		.byte	0x0
 6872 1ef6 01       		.uleb128 0x25
 6873 1ef7 0A01     		.4byte	0x1fdd
 6874 1ef9 10       		.4byte	0x7d
 6875 1efa ED000000 		.4byte	.LBB992
 6876 1efe 10       		.4byte	.LBE992
 6877 1eff E6000000 		.byte	0x1
 6878 1f03 00       		.byte	0x5e
 6879 1f04 0F       		.uleb128 0x10
 6880 1f05 231F0000 		.4byte	0xed
 6881 1f09 7D000000 		.uleb128 0x10
 6882 1f0d AC0E0000 		.4byte	0xe6
 6883 1f11 B40E0000 		.byte	0x0
 6884 1f15 01       		.uleb128 0x25
 6885 1f16 0B01     		.4byte	0x1fff
 6886 1f18 10       		.4byte	0x7d
 6887 1f19 ED000000 		.4byte	.LBB994
 6888 1f1d 10       		.4byte	.LBE994
 6889 1f1e E6000000 		.byte	0x1
 6890 1f22 00       		.byte	0x60
 6891 1f23 0F       		.uleb128 0xb
 6892 1f24 421F0000 		.4byte	0xed
 6893 1f28 7D000000 		.4byte	.LLST44
 6894 1f2c B40E0000 		.uleb128 0x10
 6895 1f30 BC0E0000 		.4byte	0xe6
 6896 1f34 01       		.byte	0x0
 6897 1f35 0C01     		.uleb128 0x25
 6898 1f37 10       		.4byte	0x2021
 6899 1f38 ED000000 		.4byte	0x7d
 6900 1f3c 10       		.4byte	.LBB996
 6901 1f3d E6000000 		.4byte	.LBE996
 6902 1f41 00       		.byte	0x1
 6903 1f42 11       		.byte	0x61
 6904 1f43 7D000000 		.uleb128 0xb
 6905 1f47 BC0E0000 		.4byte	0xed
 6906 1f4b C00E0000 		.4byte	.LLST45
 6907 1f4f 01       		.uleb128 0x10
 6908 1f50 0D01     		.4byte	0xe6
 6909 1f52 10       		.byte	0x0
 6910 1f53 ED000000 		.uleb128 0x25
 6911 1f57 10       		.4byte	0x2043
 6912 1f58 E6000000 		.4byte	0x7d
 6913 1f5c 00       		.4byte	.LBB998
 6914 1f5d 00       		.4byte	.LBE998
 6915 1f5e 1E       		.byte	0x1
 6916 1f5f 01       		.byte	0x62
 6917 1f60 F8020000 		.uleb128 0xb
 6918 1f64 01       		.4byte	0xed
 6919 1f65 25       		.4byte	.LLST46
 6920 1f66 01       		.uleb128 0x10
 6921 1f67 C40E0000 		.4byte	0xe6
 6922 1f6b D00E0000 		.byte	0x0
ARM GAS  C:\DOCUME~1\pstang\LOCALS~1\Temp/cc80aaaa.s 			page 137


 6923 1f6f E6030000 		.uleb128 0x25
 6924 1f73 15       		.4byte	0x2065
 6925 1f74 C2200000 		.4byte	0x7d
 6926 1f78 01       		.4byte	.LBB1000
 6927 1f79 54010000 		.4byte	.LBE1000
 6928 1f7d 01       		.byte	0x1
 6929 1f7e 5A       		.byte	0x63
 6930 1f7f 01       		.uleb128 0xb
 6931 1f80 D00E0000 		.4byte	0xed
 6932 1f84 300F0000 		.4byte	.LLST47
 6933 1f88 05040000 		.uleb128 0x10
 6934 1f8c 17       		.4byte	0xe6
 6935 1f8d 0C030000 		.byte	0x0
 6936 1f91 01       		.uleb128 0x25
 6937 1f92 59       		.4byte	0x2087
 6938 1f93 C2200000 		.4byte	0x7d
 6939 1f97 24040000 		.4byte	.LBB1002
 6940 1f9b 24       		.4byte	.LBE1002
 6941 1f9c 1D030000 		.byte	0x1
 6942 1fa0 01       		.byte	0x64
 6943 1fa1 5B       		.uleb128 0xb
 6944 1fa2 25000000 		.4byte	0xed
 6945 1fa6 25       		.4byte	.LLST48
 6946 1fa7 BF1F0000 		.uleb128 0x10
 6947 1fab A2000000 		.4byte	0xe6
 6948 1faf D40E0000 		.byte	0x0
 6949 1fb3 E40E0000 		.uleb128 0x25
 6950 1fb7 01       		.4byte	0x20a7
 6951 1fb8 5D       		.4byte	0x7d
 6952 1fb9 10       		.4byte	.LBB1004
 6953 1fba 08010000 		.4byte	.LBE1004
 6954 1fbe 00       		.byte	0x1
 6955 1fbf 25       		.byte	0x65
 6956 1fc0 DD1F0000 		.uleb128 0xa
 6957 1fc4 7D000000 		.4byte	0xed
 6958 1fc8 E80E0000 		.byte	0x1
 6959 1fcc EC0E0000 		.byte	0x53
 6960 1fd0 01       		.uleb128 0x10
 6961 1fd1 5E       		.4byte	0xe6
 6962 1fd2 10       		.byte	0x0
 6963 1fd3 ED000000 		.uleb128 0x26
 6964 1fd7 10       		.4byte	0x7d
 6965 1fd8 E6000000 		.4byte	.LBB1006
 6966 1fdc 00       		.4byte	.LBE1006
 6967 1fdd 25       		.byte	0x1
 6968 1fde FF1F0000 		.byte	0x67
 6969 1fe2 7D000000 		.uleb128 0x10
 6970 1fe6 F40E0000 		.4byte	0xed
 6971 1fea F80E0000 		.uleb128 0x10
 6972 1fee 01       		.4byte	0xe6
 6973 1fef 60       		.byte	0x0
 6974 1ff0 0B       		.byte	0x0
 6975 1ff1 ED000000 		.uleb128 0x14
 6976 1ff5 58040000 		.byte	0x4
 6977 1ff9 10       		.4byte	0x25
 6978 1ffa E6000000 		.uleb128 0x15
 6979 1ffe 00       		.4byte	0x21e3
ARM GAS  C:\DOCUME~1\pstang\LOCALS~1\Temp/cc80aaaa.s 			page 138


 6980 1fff 25       		.byte	0x1
 6981 2000 21200000 		.4byte	.LASF57
 6982 2004 7D000000 		.byte	0x1
 6983 2008 000F0000 		.byte	0x49
 6984 200c 040F0000 		.byte	0x1
 6985 2010 01       		.4byte	.LFB5
 6986 2011 61       		.4byte	.LFE5
 6987 2012 0B       		.4byte	.LLST49
 6988 2013 ED000000 		.uleb128 0x17
 6989 2017 6B040000 		.4byte	.LASF55
 6990 201b 10       		.byte	0x1
 6991 201c E6000000 		.byte	0x48
 6992 2020 00       		.4byte	0x20c2
 6993 2021 25       		.4byte	.LLST50
 6994 2022 43200000 		.uleb128 0x24
 6995 2026 7D000000 		.4byte	.LASF56
 6996 202a 0C0F0000 		.byte	0x1
 6997 202e 100F0000 		.byte	0x4a
 6998 2032 01       		.4byte	0x25
 6999 2033 62       		.uleb128 0x25
 7000 2034 0B       		.4byte	0x2114
 7001 2035 ED000000 		.4byte	0xa2
 7002 2039 7E040000 		.4byte	.LBB1026
 7003 203d 10       		.4byte	.LBE1026
 7004 203e E6000000 		.byte	0x1
 7005 2042 00       		.byte	0x4c
 7006 2043 25       		.uleb128 0x10
 7007 2044 65200000 		.4byte	0x108
 7008 2048 7D000000 		.byte	0x0
 7009 204c 140F0000 		.uleb128 0x25
 7010 2050 180F0000 		.4byte	0x2132
 7011 2054 01       		.4byte	0x7d
 7012 2055 63       		.4byte	.LBB1028
 7013 2056 0B       		.4byte	.LBE1028
 7014 2057 ED000000 		.byte	0x1
 7015 205b 91040000 		.byte	0x4d
 7016 205f 10       		.uleb128 0x10
 7017 2060 E6000000 		.4byte	0xed
 7018 2064 00       		.uleb128 0x10
 7019 2065 25       		.4byte	0xe6
 7020 2066 87200000 		.byte	0x0
 7021 206a 7D000000 		.uleb128 0x25
 7022 206e 1C0F0000 		.4byte	0x214b
 7023 2072 200F0000 		.4byte	0xa2
 7024 2076 01       		.4byte	.LBB1030
 7025 2077 64       		.4byte	.LBE1030
 7026 2078 0B       		.byte	0x1
 7027 2079 ED000000 		.byte	0x4f
 7028 207d A4040000 		.uleb128 0x10
 7029 2081 10       		.4byte	0x108
 7030 2082 E6000000 		.byte	0x0
 7031 2086 00       		.uleb128 0x25
 7032 2087 25       		.4byte	0x2164
 7033 2088 A7200000 		.4byte	0xa2
 7034 208c 7D000000 		.4byte	.LBB1032
 7035 2090 240F0000 		.4byte	.LBE1032
 7036 2094 280F0000 		.byte	0x1
ARM GAS  C:\DOCUME~1\pstang\LOCALS~1\Temp/cc80aaaa.s 			page 139


 7037 2098 01       		.byte	0x50
 7038 2099 65       		.uleb128 0x10
 7039 209a 0A       		.4byte	0x108
 7040 209b ED000000 		.byte	0x0
 7041 209f 01       		.uleb128 0x25
 7042 20a0 53       		.4byte	0x217d
 7043 20a1 10       		.4byte	0xa2
 7044 20a2 E6000000 		.4byte	.LBB1034
 7045 20a6 00       		.4byte	.LBE1034
 7046 20a7 26       		.byte	0x1
 7047 20a8 7D000000 		.byte	0x51
 7048 20ac 280F0000 		.uleb128 0x10
 7049 20b0 2C0F0000 		.4byte	0x108
 7050 20b4 01       		.byte	0x0
 7051 20b5 67       		.uleb128 0x25
 7052 20b6 10       		.4byte	0x2196
 7053 20b7 ED000000 		.4byte	0xa2
 7054 20bb 10       		.4byte	.LBB1036
 7055 20bc E6000000 		.4byte	.LBE1036
 7056 20c0 00       		.byte	0x1
 7057 20c1 00       		.byte	0x52
 7058 20c2 14       		.uleb128 0x10
 7059 20c3 04       		.4byte	0x108
 7060 20c4 25000000 		.byte	0x0
 7061 20c8 15       		.uleb128 0x25
 7062 20c9 E3210000 		.4byte	0x21af
 7063 20cd 01       		.4byte	0xa2
 7064 20ce 71010000 		.4byte	.LBB1038
 7065 20d2 01       		.4byte	.LBE1038
 7066 20d3 49       		.byte	0x1
 7067 20d4 01       		.byte	0x53
 7068 20d5 300F0000 		.uleb128 0x10
 7069 20d9 900F0000 		.4byte	0x108
 7070 20dd B7040000 		.byte	0x0
 7071 20e1 17       		.uleb128 0x25
 7072 20e2 0C030000 		.4byte	0x21c8
 7073 20e6 01       		.4byte	0xa2
 7074 20e7 48       		.4byte	.LBB1040
 7075 20e8 C2200000 		.4byte	.LBE1040
 7076 20ec D6040000 		.byte	0x1
 7077 20f0 24       		.byte	0x54
 7078 20f1 1D030000 		.uleb128 0x10
 7079 20f5 01       		.4byte	0x108
 7080 20f6 4A       		.byte	0x0
 7081 20f7 25000000 		.uleb128 0x26
 7082 20fb 25       		.4byte	0x7d
 7083 20fc 14210000 		.4byte	.LBB1042
 7084 2100 A2000000 		.4byte	.LBE1042
 7085 2104 340F0000 		.byte	0x1
 7086 2108 440F0000 		.byte	0x56
 7087 210c 01       		.uleb128 0x10
 7088 210d 4C       		.4byte	0xed
 7089 210e 10       		.uleb128 0x10
 7090 210f 08010000 		.4byte	0xe6
 7091 2113 00       		.byte	0x0
 7092 2114 25       		.byte	0x0
 7093 2115 32210000 		.uleb128 0x23
ARM GAS  C:\DOCUME~1\pstang\LOCALS~1\Temp/cc80aaaa.s 			page 140


 7094 2119 7D000000 		.4byte	.LASF58
 7095 211d 480F0000 		.byte	0x1
 7096 2121 4C0F0000 		.byte	0x20
 7097 2125 01       		.4byte	0x30
 7098 2126 4D       		.byte	0x5
 7099 2127 10       		.byte	0x3
 7100 2128 ED000000 		.4byte	NextPage
 7101 212c 10       		.uleb128 0x23
 7102 212d E6000000 		.4byte	.LASF59
 7103 2131 00       		.byte	0x1
 7104 2132 25       		.byte	0x21
 7105 2133 4B210000 		.4byte	0x68
 7106 2137 A2000000 		.byte	0x5
 7107 213b 4C0F0000 		.byte	0x3
 7108 213f 500F0000 		.4byte	CurrentRetreiveAddress
 7109 2143 01       		.byte	0x0
 7110 2144 4F       		.section	.debug_abbrev
 7111 2145 10       		.uleb128 0x1
 7112 2146 08010000 		.uleb128 0x11
 7113 214a 00       		.byte	0x1
 7114 214b 25       		.uleb128 0x10
 7115 214c 64210000 		.uleb128 0x6
 7116 2150 A2000000 		.uleb128 0x12
 7117 2154 580F0000 		.uleb128 0x1
 7118 2158 5C0F0000 		.uleb128 0x11
 7119 215c 01       		.uleb128 0x1
 7120 215d 50       		.uleb128 0x25
 7121 215e 10       		.uleb128 0xe
 7122 215f 08010000 		.uleb128 0x13
 7123 2163 00       		.uleb128 0xb
 7124 2164 25       		.uleb128 0x3
 7125 2165 7D210000 		.uleb128 0xe
 7126 2169 A2000000 		.uleb128 0x1b
 7127 216d 640F0000 		.uleb128 0xe
 7128 2171 680F0000 		.byte	0x0
 7129 2175 01       		.byte	0x0
 7130 2176 51       		.uleb128 0x2
 7131 2177 10       		.uleb128 0x16
 7132 2178 08010000 		.byte	0x0
 7133 217c 00       		.uleb128 0x3
 7134 217d 25       		.uleb128 0x8
 7135 217e 96210000 		.uleb128 0x3a
 7136 2182 A2000000 		.uleb128 0xb
 7137 2186 700F0000 		.uleb128 0x3b
 7138 218a 740F0000 		.uleb128 0xb
 7139 218e 01       		.uleb128 0x49
 7140 218f 52       		.uleb128 0x13
 7141 2190 10       		.byte	0x0
 7142 2191 08010000 		.byte	0x0
 7143 2195 00       		.uleb128 0x3
 7144 2196 25       		.uleb128 0x24
 7145 2197 AF210000 		.byte	0x0
 7146 219b A2000000 		.uleb128 0x3
 7147 219f 780F0000 		.uleb128 0xe
 7148 21a3 7C0F0000 		.uleb128 0xb
 7149 21a7 01       		.uleb128 0xb
 7150 21a8 53       		.uleb128 0x3e
ARM GAS  C:\DOCUME~1\pstang\LOCALS~1\Temp/cc80aaaa.s 			page 141


 7151 21a9 10       		.uleb128 0xb
 7152 21aa 08010000 		.byte	0x0
 7153 21ae 00       		.byte	0x0
 7154 21af 25       		.uleb128 0x4
 7155 21b0 C8210000 		.uleb128 0x24
 7156 21b4 A2000000 		.byte	0x0
 7157 21b8 800F0000 		.uleb128 0x3
 7158 21bc 840F0000 		.uleb128 0x8
 7159 21c0 01       		.uleb128 0xb
 7160 21c1 54       		.uleb128 0xb
 7161 21c2 10       		.uleb128 0x3e
 7162 21c3 08010000 		.uleb128 0xb
 7163 21c7 00       		.byte	0x0
 7164 21c8 26       		.byte	0x0
 7165 21c9 7D000000 		.uleb128 0x5
 7166 21cd 880F0000 		.uleb128 0x2e
 7167 21d1 8C0F0000 		.byte	0x1
 7168 21d5 01       		.uleb128 0x1
 7169 21d6 56       		.uleb128 0x13
 7170 21d7 10       		.uleb128 0x3f
 7171 21d8 ED000000 		.uleb128 0xc
 7172 21dc 10       		.uleb128 0x3
 7173 21dd E6000000 		.uleb128 0xe
 7174 21e1 00       		.uleb128 0x3a
 7175 21e2 00       		.uleb128 0xb
 7176 21e3 23       		.uleb128 0x3b
 7177 21e4 1D000000 		.uleb128 0xb
 7178 21e8 01       		.uleb128 0x27
 7179 21e9 20       		.uleb128 0xc
 7180 21ea 30000000 		.uleb128 0x20
 7181 21ee 05       		.uleb128 0xb
 7182 21ef 03       		.byte	0x0
 7183 21f0 00000000 		.byte	0x0
 7184 21f4 23       		.uleb128 0x6
 7185 21f5 25020000 		.uleb128 0x5
 7186 21f9 01       		.byte	0x0
 7187 21fa 21       		.uleb128 0x3
 7188 21fb 68000000 		.uleb128 0xe
 7189 21ff 05       		.uleb128 0x3a
 7190 2200 03       		.uleb128 0xb
 7191 2201 04000000 		.uleb128 0x3b
 7192 2205 00       		.uleb128 0xb
 7193              		.uleb128 0x49
 7194 0000 01       		.uleb128 0x13
 7195 0001 11       		.byte	0x0
 7196 0002 01       		.byte	0x0
 7197 0003 10       		.uleb128 0x7
 7198 0004 06       		.uleb128 0x2e
 7199 0005 12       		.byte	0x1
 7200 0006 01       		.uleb128 0x1
 7201 0007 11       		.uleb128 0x13
 7202 0008 01       		.uleb128 0x3f
 7203 0009 25       		.uleb128 0xc
 7204 000a 0E       		.uleb128 0x3
 7205 000b 13       		.uleb128 0xe
 7206 000c 0B       		.uleb128 0x3a
 7207 000d 03       		.uleb128 0xb
ARM GAS  C:\DOCUME~1\pstang\LOCALS~1\Temp/cc80aaaa.s 			page 142


 7208 000e 0E       		.uleb128 0x3b
 7209 000f 1B       		.uleb128 0xb
 7210 0010 0E       		.uleb128 0x27
 7211 0011 00       		.uleb128 0xc
 7212 0012 00       		.uleb128 0x49
 7213 0013 02       		.uleb128 0x13
 7214 0014 16       		.uleb128 0x20
 7215 0015 00       		.uleb128 0xb
 7216 0016 03       		.byte	0x0
 7217 0017 08       		.byte	0x0
 7218 0018 3A       		.uleb128 0x8
 7219 0019 0B       		.uleb128 0x2e
 7220 001a 3B       		.byte	0x0
 7221 001b 0B       		.uleb128 0x3f
 7222 001c 49       		.uleb128 0xc
 7223 001d 13       		.uleb128 0x3
 7224 001e 00       		.uleb128 0xe
 7225 001f 00       		.uleb128 0x3a
 7226 0020 03       		.uleb128 0xb
 7227 0021 24       		.uleb128 0x3b
 7228 0022 00       		.uleb128 0xb
 7229 0023 03       		.uleb128 0x27
 7230 0024 0E       		.uleb128 0xc
 7231 0025 0B       		.uleb128 0x11
 7232 0026 0B       		.uleb128 0x1
 7233 0027 3E       		.uleb128 0x12
 7234 0028 0B       		.uleb128 0x1
 7235 0029 00       		.uleb128 0x40
 7236 002a 00       		.uleb128 0xa
 7237 002b 04       		.byte	0x0
 7238 002c 24       		.byte	0x0
 7239 002d 00       		.uleb128 0x9
 7240 002e 03       		.uleb128 0x2e
 7241 002f 08       		.byte	0x1
 7242 0030 0B       		.uleb128 0x1
 7243 0031 0B       		.uleb128 0x13
 7244 0032 3E       		.uleb128 0x31
 7245 0033 0B       		.uleb128 0x13
 7246 0034 00       		.uleb128 0x11
 7247 0035 00       		.uleb128 0x1
 7248 0036 05       		.uleb128 0x12
 7249 0037 2E       		.uleb128 0x1
 7250 0038 01       		.uleb128 0x40
 7251 0039 01       		.uleb128 0xa
 7252 003a 13       		.byte	0x0
 7253 003b 3F       		.byte	0x0
 7254 003c 0C       		.uleb128 0xa
 7255 003d 03       		.uleb128 0x5
 7256 003e 0E       		.byte	0x0
 7257 003f 3A       		.uleb128 0x31
 7258 0040 0B       		.uleb128 0x13
 7259 0041 3B       		.uleb128 0x2
 7260 0042 0B       		.uleb128 0xa
 7261 0043 27       		.byte	0x0
 7262 0044 0C       		.byte	0x0
 7263 0045 20       		.uleb128 0xb
 7264 0046 0B       		.uleb128 0x5
ARM GAS  C:\DOCUME~1\pstang\LOCALS~1\Temp/cc80aaaa.s 			page 143


 7265 0047 00       		.byte	0x0
 7266 0048 00       		.uleb128 0x31
 7267 0049 06       		.uleb128 0x13
 7268 004a 05       		.uleb128 0x2
 7269 004b 00       		.uleb128 0x6
 7270 004c 03       		.byte	0x0
 7271 004d 0E       		.byte	0x0
 7272 004e 3A       		.uleb128 0xc
 7273 004f 0B       		.uleb128 0x2e
 7274 0050 3B       		.byte	0x1
 7275 0051 0B       		.uleb128 0x1
 7276 0052 49       		.uleb128 0x13
 7277 0053 13       		.uleb128 0x3f
 7278 0054 00       		.uleb128 0xc
 7279 0055 00       		.uleb128 0x3
 7280 0056 07       		.uleb128 0xe
 7281 0057 2E       		.uleb128 0x3a
 7282 0058 01       		.uleb128 0xb
 7283 0059 01       		.uleb128 0x3b
 7284 005a 13       		.uleb128 0x5
 7285 005b 3F       		.uleb128 0x27
 7286 005c 0C       		.uleb128 0xc
 7287 005d 03       		.uleb128 0x11
 7288 005e 0E       		.uleb128 0x1
 7289 005f 3A       		.uleb128 0x12
 7290 0060 0B       		.uleb128 0x1
 7291 0061 3B       		.uleb128 0x40
 7292 0062 0B       		.uleb128 0x6
 7293 0063 27       		.byte	0x0
 7294 0064 0C       		.byte	0x0
 7295 0065 49       		.uleb128 0xd
 7296 0066 13       		.uleb128 0x5
 7297 0067 20       		.byte	0x0
 7298 0068 0B       		.uleb128 0x3
 7299 0069 00       		.uleb128 0xe
 7300 006a 00       		.uleb128 0x3a
 7301 006b 08       		.uleb128 0xb
 7302 006c 2E       		.uleb128 0x3b
 7303 006d 00       		.uleb128 0x5
 7304 006e 3F       		.uleb128 0x49
 7305 006f 0C       		.uleb128 0x13
 7306 0070 03       		.uleb128 0x2
 7307 0071 0E       		.uleb128 0xa
 7308 0072 3A       		.byte	0x0
 7309 0073 0B       		.byte	0x0
 7310 0074 3B       		.uleb128 0xe
 7311 0075 0B       		.uleb128 0x34
 7312 0076 27       		.byte	0x0
 7313 0077 0C       		.uleb128 0x3
 7314 0078 11       		.uleb128 0xe
 7315 0079 01       		.uleb128 0x3a
 7316 007a 12       		.uleb128 0xb
 7317 007b 01       		.uleb128 0x3b
 7318 007c 40       		.uleb128 0x5
 7319 007d 0A       		.uleb128 0x49
 7320 007e 00       		.uleb128 0x13
 7321 007f 00       		.uleb128 0x2
ARM GAS  C:\DOCUME~1\pstang\LOCALS~1\Temp/cc80aaaa.s 			page 144


 7322 0080 09       		.uleb128 0xa
 7323 0081 2E       		.byte	0x0
 7324 0082 01       		.byte	0x0
 7325 0083 01       		.uleb128 0xf
 7326 0084 13       		.uleb128 0x1d
 7327 0085 31       		.byte	0x1
 7328 0086 13       		.uleb128 0x1
 7329 0087 11       		.uleb128 0x13
 7330 0088 01       		.uleb128 0x31
 7331 0089 12       		.uleb128 0x13
 7332 008a 01       		.uleb128 0x11
 7333 008b 40       		.uleb128 0x1
 7334 008c 0A       		.uleb128 0x12
 7335 008d 00       		.uleb128 0x1
 7336 008e 00       		.uleb128 0x58
 7337 008f 0A       		.uleb128 0xb
 7338 0090 05       		.uleb128 0x59
 7339 0091 00       		.uleb128 0x5
 7340 0092 31       		.byte	0x0
 7341 0093 13       		.byte	0x0
 7342 0094 02       		.uleb128 0x10
 7343 0095 0A       		.uleb128 0x5
 7344 0096 00       		.byte	0x0
 7345 0097 00       		.uleb128 0x31
 7346 0098 0B       		.uleb128 0x13
 7347 0099 05       		.byte	0x0
 7348 009a 00       		.byte	0x0
 7349 009b 31       		.uleb128 0x11
 7350 009c 13       		.uleb128 0x1d
 7351 009d 02       		.byte	0x1
 7352 009e 06       		.uleb128 0x31
 7353 009f 00       		.uleb128 0x13
 7354 00a0 00       		.uleb128 0x11
 7355 00a1 0C       		.uleb128 0x1
 7356 00a2 2E       		.uleb128 0x12
 7357 00a3 01       		.uleb128 0x1
 7358 00a4 01       		.uleb128 0x58
 7359 00a5 13       		.uleb128 0xb
 7360 00a6 3F       		.uleb128 0x59
 7361 00a7 0C       		.uleb128 0x5
 7362 00a8 03       		.byte	0x0
 7363 00a9 0E       		.byte	0x0
 7364 00aa 3A       		.uleb128 0x12
 7365 00ab 0B       		.uleb128 0x2e
 7366 00ac 3B       		.byte	0x1
 7367 00ad 05       		.uleb128 0x1
 7368 00ae 27       		.uleb128 0x13
 7369 00af 0C       		.uleb128 0x3f
 7370 00b0 11       		.uleb128 0xc
 7371 00b1 01       		.uleb128 0x3
 7372 00b2 12       		.uleb128 0xe
 7373 00b3 01       		.uleb128 0x3a
 7374 00b4 40       		.uleb128 0xb
 7375 00b5 06       		.uleb128 0x3b
 7376 00b6 00       		.uleb128 0x5
 7377 00b7 00       		.uleb128 0x27
 7378 00b8 0D       		.uleb128 0xc
ARM GAS  C:\DOCUME~1\pstang\LOCALS~1\Temp/cc80aaaa.s 			page 145


 7379 00b9 05       		.uleb128 0x11
 7380 00ba 00       		.uleb128 0x1
 7381 00bb 03       		.uleb128 0x12
 7382 00bc 0E       		.uleb128 0x1
 7383 00bd 3A       		.uleb128 0x40
 7384 00be 0B       		.uleb128 0xa
 7385 00bf 3B       		.byte	0x0
 7386 00c0 05       		.byte	0x0
 7387 00c1 49       		.uleb128 0x13
 7388 00c2 13       		.uleb128 0x34
 7389 00c3 02       		.byte	0x0
 7390 00c4 0A       		.uleb128 0x3
 7391 00c5 00       		.uleb128 0x8
 7392 00c6 00       		.uleb128 0x3a
 7393 00c7 0E       		.uleb128 0xb
 7394 00c8 34       		.uleb128 0x3b
 7395 00c9 00       		.uleb128 0x5
 7396 00ca 03       		.uleb128 0x49
 7397 00cb 0E       		.uleb128 0x13
 7398 00cc 3A       		.uleb128 0x2
 7399 00cd 0B       		.uleb128 0xa
 7400 00ce 3B       		.byte	0x0
 7401 00cf 05       		.byte	0x0
 7402 00d0 49       		.uleb128 0x14
 7403 00d1 13       		.uleb128 0xf
 7404 00d2 02       		.byte	0x0
 7405 00d3 0A       		.uleb128 0xb
 7406 00d4 00       		.uleb128 0xb
 7407 00d5 00       		.uleb128 0x49
 7408 00d6 0F       		.uleb128 0x13
 7409 00d7 1D       		.byte	0x0
 7410 00d8 01       		.byte	0x0
 7411 00d9 01       		.uleb128 0x15
 7412 00da 13       		.uleb128 0x2e
 7413 00db 31       		.byte	0x1
 7414 00dc 13       		.uleb128 0x1
 7415 00dd 11       		.uleb128 0x13
 7416 00de 01       		.uleb128 0x3f
 7417 00df 12       		.uleb128 0xc
 7418 00e0 01       		.uleb128 0x3
 7419 00e1 58       		.uleb128 0xe
 7420 00e2 0B       		.uleb128 0x3a
 7421 00e3 59       		.uleb128 0xb
 7422 00e4 05       		.uleb128 0x3b
 7423 00e5 00       		.uleb128 0xb
 7424 00e6 00       		.uleb128 0x27
 7425 00e7 10       		.uleb128 0xc
 7426 00e8 05       		.uleb128 0x11
 7427 00e9 00       		.uleb128 0x1
 7428 00ea 31       		.uleb128 0x12
 7429 00eb 13       		.uleb128 0x1
 7430 00ec 00       		.uleb128 0x40
 7431 00ed 00       		.uleb128 0x6
 7432 00ee 11       		.byte	0x0
 7433 00ef 1D       		.byte	0x0
 7434 00f0 01       		.uleb128 0x16
 7435 00f1 31       		.uleb128 0x5
ARM GAS  C:\DOCUME~1\pstang\LOCALS~1\Temp/cc80aaaa.s 			page 146


 7436 00f2 13       		.byte	0x0
 7437 00f3 11       		.uleb128 0x3
 7438 00f4 01       		.uleb128 0x8
 7439 00f5 12       		.uleb128 0x3a
 7440 00f6 01       		.uleb128 0xb
 7441 00f7 58       		.uleb128 0x3b
 7442 00f8 0B       		.uleb128 0xb
 7443 00f9 59       		.uleb128 0x49
 7444 00fa 05       		.uleb128 0x13
 7445 00fb 00       		.uleb128 0x2
 7446 00fc 00       		.uleb128 0x6
 7447 00fd 12       		.byte	0x0
 7448 00fe 2E       		.byte	0x0
 7449 00ff 01       		.uleb128 0x17
 7450 0100 01       		.uleb128 0x5
 7451 0101 13       		.byte	0x0
 7452 0102 3F       		.uleb128 0x3
 7453 0103 0C       		.uleb128 0xe
 7454 0104 03       		.uleb128 0x3a
 7455 0105 0E       		.uleb128 0xb
 7456 0106 3A       		.uleb128 0x3b
 7457 0107 0B       		.uleb128 0xb
 7458 0108 3B       		.uleb128 0x49
 7459 0109 05       		.uleb128 0x13
 7460 010a 27       		.uleb128 0x2
 7461 010b 0C       		.uleb128 0x6
 7462 010c 11       		.byte	0x0
 7463 010d 01       		.byte	0x0
 7464 010e 12       		.uleb128 0x18
 7465 010f 01       		.uleb128 0x5
 7466 0110 40       		.byte	0x0
 7467 0111 0A       		.uleb128 0x3
 7468 0112 00       		.uleb128 0xe
 7469 0113 00       		.uleb128 0x3a
 7470 0114 13       		.uleb128 0xb
 7471 0115 34       		.uleb128 0x3b
 7472 0116 00       		.uleb128 0x5
 7473 0117 03       		.uleb128 0x49
 7474 0118 08       		.uleb128 0x13
 7475 0119 3A       		.uleb128 0x2
 7476 011a 0B       		.uleb128 0x6
 7477 011b 3B       		.byte	0x0
 7478 011c 05       		.byte	0x0
 7479 011d 49       		.uleb128 0x19
 7480 011e 13       		.uleb128 0x34
 7481 011f 02       		.byte	0x0
 7482 0120 0A       		.uleb128 0x3
 7483 0121 00       		.uleb128 0x8
 7484 0122 00       		.uleb128 0x3a
 7485 0123 14       		.uleb128 0xb
 7486 0124 0F       		.uleb128 0x3b
 7487 0125 00       		.uleb128 0x5
 7488 0126 0B       		.uleb128 0x49
 7489 0127 0B       		.uleb128 0x13
 7490 0128 49       		.uleb128 0x2
 7491 0129 13       		.uleb128 0x6
 7492 012a 00       		.byte	0x0
ARM GAS  C:\DOCUME~1\pstang\LOCALS~1\Temp/cc80aaaa.s 			page 147


 7493 012b 00       		.byte	0x0
 7494 012c 15       		.uleb128 0x1a
 7495 012d 2E       		.uleb128 0x34
 7496 012e 01       		.byte	0x0
 7497 012f 01       		.uleb128 0x3
 7498 0130 13       		.uleb128 0xe
 7499 0131 3F       		.uleb128 0x3a
 7500 0132 0C       		.uleb128 0xb
 7501 0133 03       		.uleb128 0x3b
 7502 0134 0E       		.uleb128 0x5
 7503 0135 3A       		.uleb128 0x49
 7504 0136 0B       		.uleb128 0x13
 7505 0137 3B       		.uleb128 0x2
 7506 0138 0B       		.uleb128 0x6
 7507 0139 27       		.byte	0x0
 7508 013a 0C       		.byte	0x0
 7509 013b 11       		.uleb128 0x1b
 7510 013c 01       		.uleb128 0x2e
 7511 013d 12       		.byte	0x1
 7512 013e 01       		.uleb128 0x1
 7513 013f 40       		.uleb128 0x13
 7514 0140 06       		.uleb128 0x3f
 7515 0141 00       		.uleb128 0xc
 7516 0142 00       		.uleb128 0x3
 7517 0143 16       		.uleb128 0xe
 7518 0144 05       		.uleb128 0x3a
 7519 0145 00       		.uleb128 0xb
 7520 0146 03       		.uleb128 0x3b
 7521 0147 08       		.uleb128 0x5
 7522 0148 3A       		.uleb128 0x27
 7523 0149 0B       		.uleb128 0xc
 7524 014a 3B       		.uleb128 0x49
 7525 014b 0B       		.uleb128 0x13
 7526 014c 49       		.uleb128 0x11
 7527 014d 13       		.uleb128 0x1
 7528 014e 02       		.uleb128 0x12
 7529 014f 06       		.uleb128 0x1
 7530 0150 00       		.uleb128 0x40
 7531 0151 00       		.uleb128 0x6
 7532 0152 17       		.byte	0x0
 7533 0153 05       		.byte	0x0
 7534 0154 00       		.uleb128 0x1c
 7535 0155 03       		.uleb128 0x2e
 7536 0156 0E       		.byte	0x0
 7537 0157 3A       		.uleb128 0x3f
 7538 0158 0B       		.uleb128 0xc
 7539 0159 3B       		.uleb128 0x3
 7540 015a 0B       		.uleb128 0xe
 7541 015b 49       		.uleb128 0x3a
 7542 015c 13       		.uleb128 0xb
 7543 015d 02       		.uleb128 0x3b
 7544 015e 06       		.uleb128 0x5
 7545 015f 00       		.uleb128 0x27
 7546 0160 00       		.uleb128 0xc
 7547 0161 18       		.uleb128 0x11
 7548 0162 05       		.uleb128 0x1
 7549 0163 00       		.uleb128 0x12
ARM GAS  C:\DOCUME~1\pstang\LOCALS~1\Temp/cc80aaaa.s 			page 148


 7550 0164 03       		.uleb128 0x1
 7551 0165 0E       		.uleb128 0x40
 7552 0166 3A       		.uleb128 0x6
 7553 0167 0B       		.byte	0x0
 7554 0168 3B       		.byte	0x0
 7555 0169 05       		.uleb128 0x1d
 7556 016a 49       		.uleb128 0x34
 7557 016b 13       		.byte	0x0
 7558 016c 02       		.uleb128 0x3
 7559 016d 06       		.uleb128 0xe
 7560 016e 00       		.uleb128 0x3a
 7561 016f 00       		.uleb128 0xb
 7562 0170 19       		.uleb128 0x3b
 7563 0171 34       		.uleb128 0x5
 7564 0172 00       		.uleb128 0x49
 7565 0173 03       		.uleb128 0x13
 7566 0174 08       		.byte	0x0
 7567 0175 3A       		.byte	0x0
 7568 0176 0B       		.uleb128 0x1e
 7569 0177 3B       		.uleb128 0x2e
 7570 0178 05       		.byte	0x0
 7571 0179 49       		.uleb128 0x3f
 7572 017a 13       		.uleb128 0xc
 7573 017b 02       		.uleb128 0x3
 7574 017c 06       		.uleb128 0xe
 7575 017d 00       		.uleb128 0x3a
 7576 017e 00       		.uleb128 0xb
 7577 017f 1A       		.uleb128 0x3b
 7578 0180 34       		.uleb128 0xb
 7579 0181 00       		.uleb128 0x27
 7580 0182 03       		.uleb128 0xc
 7581 0183 0E       		.uleb128 0x11
 7582 0184 3A       		.uleb128 0x1
 7583 0185 0B       		.uleb128 0x12
 7584 0186 3B       		.uleb128 0x1
 7585 0187 05       		.uleb128 0x40
 7586 0188 49       		.uleb128 0x6
 7587 0189 13       		.byte	0x0
 7588 018a 02       		.byte	0x0
 7589 018b 06       		.uleb128 0x1f
 7590 018c 00       		.uleb128 0x1d
 7591 018d 00       		.byte	0x1
 7592 018e 1B       		.uleb128 0x1
 7593 018f 2E       		.uleb128 0x13
 7594 0190 01       		.uleb128 0x31
 7595 0191 01       		.uleb128 0x13
 7596 0192 13       		.uleb128 0x55
 7597 0193 3F       		.uleb128 0x6
 7598 0194 0C       		.uleb128 0x58
 7599 0195 03       		.uleb128 0xb
 7600 0196 0E       		.uleb128 0x59
 7601 0197 3A       		.uleb128 0x5
 7602 0198 0B       		.byte	0x0
 7603 0199 3B       		.byte	0x0
 7604 019a 05       		.uleb128 0x20
 7605 019b 27       		.uleb128 0x1
 7606 019c 0C       		.byte	0x1
ARM GAS  C:\DOCUME~1\pstang\LOCALS~1\Temp/cc80aaaa.s 			page 149


 7607 019d 49       		.uleb128 0x1
 7608 019e 13       		.uleb128 0x13
 7609 019f 11       		.uleb128 0x49
 7610 01a0 01       		.uleb128 0x13
 7611 01a1 12       		.byte	0x0
 7612 01a2 01       		.byte	0x0
 7613 01a3 40       		.uleb128 0x21
 7614 01a4 06       		.uleb128 0x21
 7615 01a5 00       		.byte	0x0
 7616 01a6 00       		.uleb128 0x49
 7617 01a7 1C       		.uleb128 0x13
 7618 01a8 2E       		.uleb128 0x2f
 7619 01a9 00       		.uleb128 0xb
 7620 01aa 3F       		.byte	0x0
 7621 01ab 0C       		.byte	0x0
 7622 01ac 03       		.uleb128 0x22
 7623 01ad 0E       		.uleb128 0x2e
 7624 01ae 3A       		.byte	0x1
 7625 01af 0B       		.uleb128 0x1
 7626 01b0 3B       		.uleb128 0x13
 7627 01b1 05       		.uleb128 0x3f
 7628 01b2 27       		.uleb128 0xc
 7629 01b3 0C       		.uleb128 0x3
 7630 01b4 11       		.uleb128 0xe
 7631 01b5 01       		.uleb128 0x3a
 7632 01b6 12       		.uleb128 0xb
 7633 01b7 01       		.uleb128 0x3b
 7634 01b8 40       		.uleb128 0xb
 7635 01b9 06       		.uleb128 0x27
 7636 01ba 00       		.uleb128 0xc
 7637 01bb 00       		.uleb128 0x49
 7638 01bc 1D       		.uleb128 0x13
 7639 01bd 34       		.uleb128 0x11
 7640 01be 00       		.uleb128 0x1
 7641 01bf 03       		.uleb128 0x12
 7642 01c0 0E       		.uleb128 0x1
 7643 01c1 3A       		.uleb128 0x40
 7644 01c2 0B       		.uleb128 0x6
 7645 01c3 3B       		.byte	0x0
 7646 01c4 05       		.byte	0x0
 7647 01c5 49       		.uleb128 0x23
 7648 01c6 13       		.uleb128 0x34
 7649 01c7 00       		.byte	0x0
 7650 01c8 00       		.uleb128 0x3
 7651 01c9 1E       		.uleb128 0xe
 7652 01ca 2E       		.uleb128 0x3a
 7653 01cb 00       		.uleb128 0xb
 7654 01cc 3F       		.uleb128 0x3b
 7655 01cd 0C       		.uleb128 0xb
 7656 01ce 03       		.uleb128 0x49
 7657 01cf 0E       		.uleb128 0x13
 7658 01d0 3A       		.uleb128 0x2
 7659 01d1 0B       		.uleb128 0xa
 7660 01d2 3B       		.byte	0x0
 7661 01d3 0B       		.byte	0x0
 7662 01d4 27       		.uleb128 0x24
 7663 01d5 0C       		.uleb128 0x34
ARM GAS  C:\DOCUME~1\pstang\LOCALS~1\Temp/cc80aaaa.s 			page 150


 7664 01d6 11       		.byte	0x0
 7665 01d7 01       		.uleb128 0x3
 7666 01d8 12       		.uleb128 0xe
 7667 01d9 01       		.uleb128 0x3a
 7668 01da 40       		.uleb128 0xb
 7669 01db 06       		.uleb128 0x3b
 7670 01dc 00       		.uleb128 0xb
 7671 01dd 00       		.uleb128 0x49
 7672 01de 1F       		.uleb128 0x13
 7673 01df 1D       		.byte	0x0
 7674 01e0 01       		.byte	0x0
 7675 01e1 01       		.uleb128 0x25
 7676 01e2 13       		.uleb128 0x1d
 7677 01e3 31       		.byte	0x1
 7678 01e4 13       		.uleb128 0x1
 7679 01e5 55       		.uleb128 0x13
 7680 01e6 06       		.uleb128 0x31
 7681 01e7 58       		.uleb128 0x13
 7682 01e8 0B       		.uleb128 0x11
 7683 01e9 59       		.uleb128 0x1
 7684 01ea 05       		.uleb128 0x12
 7685 01eb 00       		.uleb128 0x1
 7686 01ec 00       		.uleb128 0x58
 7687 01ed 20       		.uleb128 0xb
 7688 01ee 01       		.uleb128 0x59
 7689 01ef 01       		.uleb128 0xb
 7690 01f0 01       		.byte	0x0
 7691 01f1 13       		.byte	0x0
 7692 01f2 49       		.uleb128 0x26
 7693 01f3 13       		.uleb128 0x1d
 7694 01f4 00       		.byte	0x1
 7695 01f5 00       		.uleb128 0x31
 7696 01f6 21       		.uleb128 0x13
 7697 01f7 21       		.uleb128 0x11
 7698 01f8 00       		.uleb128 0x1
 7699 01f9 49       		.uleb128 0x12
 7700 01fa 13       		.uleb128 0x1
 7701 01fb 2F       		.uleb128 0x58
 7702 01fc 0B       		.uleb128 0xb
 7703 01fd 00       		.uleb128 0x59
 7704 01fe 00       		.uleb128 0xb
 7705 01ff 22       		.byte	0x0
 7706 0200 2E       		.byte	0x0
 7707 0201 01       		.byte	0x0
 7708 0202 01       		.section	.debug_pubnames,"",%progbits
 7709 0203 13       		.4byte	0x1e5
 7710 0204 3F       		.2byte	0x2
 7711 0205 0C       		.4byte	.Ldebug_info0
 7712 0206 03       		.4byte	0x2206
 7713 0207 0E       		.4byte	0xc0
 7714 0208 3A       		.ascii	"ax88796SetupPorts\000"
 7715 0209 0B       		.4byte	0xd3
 7716 020a 3B       		.ascii	"ax88796Write\000"
 7717 020b 0B       		.4byte	0xf5
 7718 020c 27       		.ascii	"ax88796Read\000"
 7719 020d 0C       		.4byte	0x112
 7720 020e 49       		.ascii	"ax88796BeginPacketSend\000"
ARM GAS  C:\DOCUME~1\pstang\LOCALS~1\Temp/cc80aaaa.s 			page 151


 7721 020f 13       		.4byte	0x295
 7722 0210 11       		.ascii	"ax88796SendPacketData\000"
 7723 0211 01       		.4byte	0x2f9
 7724 0212 12       		.ascii	"ax88796EndPacketSend\000"
 7725 0213 01       		.4byte	0x34c
 7726 0214 40       		.ascii	"nicSend\000"
 7727 0215 06       		.4byte	0x384
 7728 0216 00       		.ascii	"ax88796RetreivePacketData\000"
 7729 0217 00       		.4byte	0x4d4
 7730 0218 23       		.ascii	"ax88796EndPacketRetreive\000"
 7731 0219 34       		.4byte	0x580
 7732 021a 00       		.ascii	"ax88796WriteMii\000"
 7733 021b 03       		.4byte	0xcda
 7734 021c 0E       		.ascii	"ax88796ReadMii\000"
 7735 021d 3A       		.4byte	0x13a5
 7736 021e 0B       		.ascii	"ax88796PhyDump\000"
 7737 021f 3B       		.4byte	0x13bb
 7738 0220 0B       		.ascii	"ax88796RegDump\000"
 7739 0221 49       		.4byte	0x163e
 7740 0222 13       		.ascii	"nicRegDump\000"
 7741 0223 02       		.4byte	0x1653
 7742 0224 0A       		.ascii	"ax88796ReceiveOverflowRecover\000"
 7743 0225 00       		.4byte	0x180a
 7744 0226 00       		.ascii	"ax88796ProcessInterrupt\000"
 7745 0227 24       		.4byte	0x1847
 7746 0228 34       		.ascii	"ax88796BeginPacketRetreive\000"
 7747 0229 00       		.4byte	0x1ae8
 7748 022a 03       		.ascii	"nicPoll\000"
 7749 022b 0E       		.4byte	0x1b31
 7750 022c 3A       		.ascii	"ax88796Init\000"
 7751 022d 0B       		.4byte	0x1f5e
 7752 022e 3B       		.ascii	"nicInit\000"
 7753 022f 0B       		.4byte	0x1f73
 7754 0230 49       		.ascii	"nicSetMacAddress\000"
 7755 0231 13       		.4byte	0x20c8
 7756 0232 00       		.ascii	"nicGetMacAddress\000"
 7757 0233 00       		.4byte	0x0
 7758 0234 25       		.section	.debug_aranges,"",%progbits
 7759 0235 1D       		.4byte	0x1c
 7760 0236 01       		.2byte	0x2
 7761 0237 01       		.4byte	.Ldebug_info0
 7762 0238 13       		.byte	0x4
 7763 0239 31       		.byte	0x0
 7764 023a 13       		.2byte	0x0
 7765 023b 11       		.2byte	0x0
 7766 023c 01       		.4byte	.Ltext0
 7767 023d 12       		.4byte	.Letext0-.Ltext0
 7768 023e 01       		.4byte	0x0
 7769 023f 58       		.4byte	0x0
 7770 0240 0B       		.section	.debug_ranges,"",%progbits
 7771 0241 59       	.Ldebug_ranges0:
 7772 0242 0B       		.4byte	.LBB824-.Ltext0
 7773 0243 00       		.4byte	.LBE824-.Ltext0
 7774 0244 00       		.4byte	.LBB840-.Ltext0
 7775 0245 26       		.4byte	.LBE840-.Ltext0
 7776 0246 1D       		.4byte	0x0
 7777 0247 01       		.4byte	0x0
ARM GAS  C:\DOCUME~1\pstang\LOCALS~1\Temp/cc80aaaa.s 			page 152


 7778 0248 31       		.4byte	.LBB826-.Ltext0
 7779 0249 13       		.4byte	.LBE826-.Ltext0
 7780 024a 11       		.4byte	.LBB842-.Ltext0
 7781 024b 01       		.4byte	.LBE842-.Ltext0
 7782 024c 12       		.4byte	0x0
 7783 024d 01       		.4byte	0x0
 7784 024e 58       		.4byte	.LBB828-.Ltext0
 7785 024f 0B       		.4byte	.LBE828-.Ltext0
 7786 0250 59       		.4byte	.LBB844-.Ltext0
 7787 0251 0B       		.4byte	.LBE844-.Ltext0
 7788 0252 00       		.4byte	0x0
 7789 0253 00       		.4byte	0x0
 7790 0254 00       		.4byte	.LBB830-.Ltext0
 7791              		.4byte	.LBE830-.Ltext0
 7792 0000 E5010000 		.4byte	.LBB846-.Ltext0
 7793 0004 0200     		.4byte	.LBE846-.Ltext0
 7794 0006 00000000 		.4byte	0x0
 7795 000a 06220000 		.4byte	0x0
 7796 000e C0000000 		.4byte	.LBB832-.Ltext0
 7797 0012 61783838 		.4byte	.LBE832-.Ltext0
 7797      37393653 
 7797      65747570 
 7797      506F7274 
 7797      7300
 7798 0024 D3000000 		.4byte	.LBB848-.Ltext0
 7799 0028 61783838 		.4byte	.LBE848-.Ltext0
 7799      37393657 
 7799      72697465 
 7799      00
 7800 0035 F5000000 		.4byte	0x0
 7801 0039 61783838 		.4byte	0x0
 7801      37393652 
 7801      65616400 
 7802 0045 12010000 		.4byte	.LBB834-.Ltext0
 7803 0049 61783838 		.4byte	.LBE834-.Ltext0
 7803      37393642 
 7803      6567696E 
 7803      5061636B 
 7803      65745365 
 7804 0060 95020000 		.4byte	.LBB850-.Ltext0
 7805 0064 61783838 		.4byte	.LBE850-.Ltext0
 7805      37393653 
 7805      656E6450 
 7805      61636B65 
 7805      74446174 
 7806 007a F9020000 		.4byte	0x0
 7807 007e 61783838 		.4byte	0x0
 7807      37393645 
 7807      6E645061 
 7807      636B6574 
 7807      53656E64 
 7808 0093 4C030000 		.4byte	.LBB836-.Ltext0
 7809 0097 6E696353 		.4byte	.LBE836-.Ltext0
 7809      656E6400 
 7810 009f 84030000 		.4byte	.LBB852-.Ltext0
 7811 00a3 61783838 		.4byte	.LBE852-.Ltext0
 7811      37393652 
ARM GAS  C:\DOCUME~1\pstang\LOCALS~1\Temp/cc80aaaa.s 			page 153


 7811      65747265 
 7811      69766550 
 7811      61636B65 
 7812 00bd D4040000 		.4byte	0x0
 7813 00c1 61783838 		.4byte	0x0
 7813      37393645 
 7813      6E645061 
 7813      636B6574 
 7813      52657472 
 7814 00da 80050000 		.4byte	.LBB838-.Ltext0
 7815 00de 61783838 		.4byte	.LBE838-.Ltext0
 7815      37393657 
 7815      72697465 
 7815      4D696900 
 7816 00ee DA0C0000 		.4byte	.LBB854-.Ltext0
 7817 00f2 61783838 		.4byte	.LBE854-.Ltext0
 7817      37393652 
 7817      6561644D 
 7817      696900
 7818 0101 A5130000 		.4byte	0x0
 7819 0105 61783838 		.4byte	0x0
 7819      37393650 
 7819      68794475 
 7819      6D7000
 7820 0114 BB130000 		.4byte	.LBB888-.Ltext0
 7821 0118 61783838 		.4byte	.LBE888-.Ltext0
 7821      37393652 
 7821      65674475 
 7821      6D7000
 7822 0127 3E160000 		.4byte	.LBB894-.Ltext0
 7823 012b 6E696352 		.4byte	.LBE894-.Ltext0
 7823      65674475 
 7823      6D7000
 7824 0136 53160000 		.4byte	.LBB892-.Ltext0
 7825 013a 61783838 		.4byte	.LBE892-.Ltext0
 7825      37393652 
 7825      65636569 
 7825      76654F76 
 7825      6572666C 
 7826 0158 0A180000 		.4byte	.LBB890-.Ltext0
 7827 015c 61783838 		.4byte	.LBE890-.Ltext0
 7827      37393650 
 7827      726F6365 
 7827      7373496E 
 7827      74657272 
 7828 0174 47180000 		.4byte	0x0
 7829 0178 61783838 		.4byte	0x0
 7829      37393642 
 7829      6567696E 
 7829      5061636B 
 7829      65745265 
 7830 0193 E81A0000 		.section	.debug_str,"MS",%progbits,1
 7831 0197 6E696350 	.LASF37:
 7831      6F6C6C00 
 7832 019f 311B0000 		.ascii	"result\000"
 7833 01a3 61783838 	.LASF16:
 7833      37393649 
ARM GAS  C:\DOCUME~1\pstang\LOCALS~1\Temp/cc80aaaa.s 			page 154


 7833      6E697400 
 7834 01af 5E1F0000 		.ascii	"ax88796SendPacketData\000"
 7835 01b3 6E696349 	.LASF58:
 7835      6E697400 
 7836 01bb 731F0000 		.ascii	"NextPage\000"
 7837 01bf 6E696353 	.LASF28:
 7837      65744D61 
 7837      63416464 
 7837      72657373 
 7837      00
 7838 01d0 C8200000 		.ascii	"regad\000"
 7839 01d4 6E696347 	.LASF46:
 7839      65744D61 
 7839      63416464 
 7839      72657373 
 7839      00
 7840 01e5 00000000 		.ascii	"readPagePtr\000"
 7841              	.LASF47:
 7842 0000 1C000000 		.ascii	"pageheader\000"
 7843 0004 0200     	.LASF60:
 7844 0006 00000000 		.ascii	"GNU C 4.1.1 (WinARM)\000"
 7845 000a 04       	.LASF3:
 7846 000b 00       		.ascii	"short int\000"
 7847 000c 0000     	.LASF34:
 7848 000e 0000     		.ascii	"ax88796SetupPorts\000"
 7849 0010 00000000 	.LASF39:
 7850 0014 900F0000 		.ascii	"ax88796ReceiveOverflowRecover\000"
 7851 0018 00000000 	.LASF6:
 7852 001c 00000000 		.ascii	"long long unsigned int\000"
 7853              	.LASF7:
 7854              		.ascii	"long long int\000"
 7855 0000 180B0000 	.LASF40:
 7856 0004 280B0000 		.ascii	"cmdReg\000"
 7857 0008 600B0000 	.LASF29:
 7858 000c 700B0000 		.ascii	"mii_data\000"
 7859 0010 00000000 	.LASF36:
 7860 0014 00000000 		.ascii	"ax88796RegDump\000"
 7861 0018 280B0000 	.LASF38:
 7862 001c 300B0000 		.ascii	"nicRegDump\000"
 7863 0020 700B0000 	.LASF33:
 7864 0024 780B0000 		.ascii	"result16\000"
 7865 0028 00000000 	.LASF22:
 7866 002c 00000000 		.ascii	"packet\000"
 7867 0030 300B0000 	.LASF31:
 7868 0034 380B0000 		.ascii	"mask16\000"
 7869 0038 780B0000 	.LASF14:
 7870 003c 800B0000 		.ascii	"ax88796BeginPacketSend\000"
 7871 0040 00000000 	.LASF52:
 7872 0044 00000000 		.ascii	"tcrFduFlag\000"
 7873 0048 380B0000 	.LASF49:
 7874 004c 400B0000 		.ascii	"nicPoll\000"
 7875 0050 800B0000 	.LASF20:
 7876 0054 880B0000 		.ascii	"ax88796EndPacketSend\000"
 7877 0058 00000000 	.LASF15:
 7878 005c 00000000 		.ascii	"packetLength\000"
 7879 0060 400B0000 	.LASF26:
 7880 0064 480B0000 		.ascii	"ax88796WriteMii\000"
ARM GAS  C:\DOCUME~1\pstang\LOCALS~1\Temp/cc80aaaa.s 			page 155


 7881 0068 880B0000 	.LASF54:
 7882 006c 900B0000 		.ascii	"nicSetMacAddress\000"
 7883 0070 00000000 	.LASF25:
 7884 0074 00000000 		.ascii	"bnryPagePtr\000"
 7885 0078 480B0000 	.LASF57:
 7886 007c 4C0B0000 		.ascii	"nicGetMacAddress\000"
 7887 0080 900B0000 	.LASF44:
 7888 0084 940B0000 		.ascii	"ax88796BeginPacketRetreive\000"
 7889 0088 00000000 	.LASF35:
 7890 008c 00000000 		.ascii	"ax88796PhyDump\000"
 7891 0090 4C0B0000 	.LASF24:
 7892 0094 540B0000 		.ascii	"ax88796EndPacketRetreive\000"
 7893 0098 940B0000 	.LASF18:
 7894 009c 9C0B0000 		.ascii	"length\000"
 7895 00a0 00000000 	.LASF43:
 7896 00a4 00000000 		.ascii	"intr\000"
 7897 00a8 540B0000 	.LASF0:
 7898 00ac 600B0000 		.ascii	"unsigned char\000"
 7899 00b0 9C0B0000 	.LASF41:
 7900 00b4 A40B0000 		.ascii	"resend\000"
 7901 00b8 00000000 	.LASF1:
 7902 00bc 00000000 		.ascii	"signed char\000"
 7903 00c0 880C0000 	.LASF48:
 7904 00c4 8C0C0000 		.ascii	"rxlen\000"
 7905 00c8 A00C0000 	.LASF10:
 7906 00cc A40C0000 		.ascii	"address\000"
 7907 00d0 980C0000 	.LASF8:
 7908 00d4 9C0C0000 		.ascii	"unsigned int\000"
 7909 00d8 900C0000 	.LASF27:
 7910 00dc 940C0000 		.ascii	"phyad\000"
 7911 00e0 00000000 	.LASF4:
 7912 00e4 00000000 		.ascii	"long unsigned int\000"
 7913              	.LASF59:
 7914              		.ascii	"CurrentRetreiveAddress\000"
 7915 0000 72657375 	.LASF45:
 7915      6C7400
 7916              		.ascii	"writePagePtr\000"
 7917 0007 61783838 	.LASF61:
 7917      37393653 
 7917      656E6450 
 7917      61636B65 
 7917      74446174 
 7918              		.ascii	"c:\\code\\arm\\armlib/net/ax88796.c\000"
 7919 001d 4E657874 	.LASF2:
 7919      50616765 
 7919      00
 7920              		.ascii	"short unsigned int\000"
 7921 0026 72656761 	.LASF9:
 7921      6400
 7922              		.ascii	"char\000"
 7923 002c 72656164 	.LASF11:
 7923      50616765 
 7923      50747200 
 7924              		.ascii	"data\000"
 7925 0038 70616765 	.LASF23:
 7925      68656164 
 7925      657200
ARM GAS  C:\DOCUME~1\pstang\LOCALS~1\Temp/cc80aaaa.s 			page 156


 7926              		.ascii	"ax88796RetreivePacketData\000"
 7927 0043 474E5520 	.LASF12:
 7927      4320342E 
 7927      312E3120 
 7927      2857696E 
 7927      41524D29 
 7928              		.ascii	"ax88796Write\000"
 7929 0058 73686F72 	.LASF42:
 7929      7420696E 
 7929      7400
 7930              		.ascii	"ax88796ProcessInterrupt\000"
 7931 0062 61783838 	.LASF21:
 7931      37393653 
 7931      65747570 
 7931      506F7274 
 7931      7300
 7932              		.ascii	"nicSend\000"
 7933 0074 61783838 	.LASF50:
 7933      37393652 
 7933      65636569 
 7933      76654F76 
 7933      6572666C 
 7934              		.ascii	"maxlen\000"
 7935 0092 6C6F6E67 	.LASF51:
 7935      206C6F6E 
 7935      6720756E 
 7935      7369676E 
 7935      65642069 
 7936              		.ascii	"ax88796Init\000"
 7937 00a9 6C6F6E67 	.LASF30:
 7937      206C6F6E 
 7937      6720696E 
 7937      7400
 7938              		.ascii	"mask8\000"
 7939 00b7 636D6452 	.LASF19:
 7939      656700
 7940              		.ascii	"sendPacketLength\000"
 7941 00be 6D69695F 	.LASF53:
 7941      64617461 
 7941      00
 7942              		.ascii	"nicInit\000"
 7943 00c7 61783838 	.LASF17:
 7943      37393652 
 7943      65674475 
 7943      6D7000
 7944              		.ascii	"localBuffer\000"
 7945 00d6 6E696352 	.LASF55:
 7945      65674475 
 7945      6D7000
 7946              		.ascii	"macaddr\000"
 7947 00e1 72657375 	.LASF5:
 7947      6C743136 
 7947      00
 7948              		.ascii	"long int\000"
 7949 00ea 7061636B 	.LASF56:
 7949      657400
 7950              		.ascii	"tempCR\000"
ARM GAS  C:\DOCUME~1\pstang\LOCALS~1\Temp/cc80aaaa.s 			page 157


 7951 00f1 6D61736B 	.LASF32:
 7951      313600
 7952              		.ascii	"ax88796ReadMii\000"
 7953 00f8 61783838 	.LASF13:
 7953      37393642 
 7953      6567696E 
 7953      5061636B 
 7953      65745365 
 7954              		.ascii	"ax88796Read\000"
 7955 010f 74637246 	.LASF62:
 7955      6475466C 
 7955      616700
 7956              		.ascii	"C:\\Code\\ARM\\lpc2000\\EtherDrive\\etherdrive-net\000"
 7957 011a 6E696350 		.ident	"GCC: (GNU) 4.1.1 (WinARM)"
 7957      6F6C6C00 
 7958              	...
ARM GAS  C:\DOCUME~1\pstang\LOCALS~1\Temp/cc80aaaa.s 			page 158


DEFINED SYMBOLS
                            *ABS*:00000000 ax88796.c
C:\DOCUME~1\pstang\LOCALS~1\Temp/cc80aaaa.s:13     .text:00000000 ax88796SetupPorts
C:\DOCUME~1\pstang\LOCALS~1\Temp/cc80aaaa.s:22     .text:00000000 $a
C:\DOCUME~1\pstang\LOCALS~1\Temp/cc80aaaa.s:28     .text:00000004 ax88796Write
C:\DOCUME~1\pstang\LOCALS~1\Temp/cc80aaaa.s:49     .text:0000001c ax88796Read
C:\DOCUME~1\pstang\LOCALS~1\Temp/cc80aaaa.s:70     .text:00000030 ax88796BeginPacketSend
C:\DOCUME~1\pstang\LOCALS~1\Temp/cc80aaaa.s:166    .text:000000b0 ax88796SendPacketData
C:\DOCUME~1\pstang\LOCALS~1\Temp/cc80aaaa.s:201    .text:000000dc ax88796EndPacketSend
C:\DOCUME~1\pstang\LOCALS~1\Temp/cc80aaaa.s:230    .text:000000f8 nicSend
C:\DOCUME~1\pstang\LOCALS~1\Temp/cc80aaaa.s:256    .text:0000011c ax88796RetreivePacketData
C:\DOCUME~1\pstang\LOCALS~1\Temp/cc80aaaa.s:375    .text:000001dc $d
C:\DOCUME~1\pstang\LOCALS~1\Temp/cc80aaaa.s:2909   .bss:00000004 CurrentRetreiveAddress
C:\DOCUME~1\pstang\LOCALS~1\Temp/cc80aaaa.s:381    .text:000001e0 ax88796EndPacketRetreive
C:\DOCUME~1\pstang\LOCALS~1\Temp/cc80aaaa.s:391    .text:000001e0 $a
C:\DOCUME~1\pstang\LOCALS~1\Temp/cc80aaaa.s:447    .text:00000244 $d
C:\DOCUME~1\pstang\LOCALS~1\Temp/cc80aaaa.s:2906   .bss:00000000 NextPage
C:\DOCUME~1\pstang\LOCALS~1\Temp/cc80aaaa.s:453    .text:00000248 ax88796WriteMii
C:\DOCUME~1\pstang\LOCALS~1\Temp/cc80aaaa.s:459    .text:00000248 $a
C:\DOCUME~1\pstang\LOCALS~1\Temp/cc80aaaa.s:921    .text:0000043c ax88796ReadMii
C:\DOCUME~1\pstang\LOCALS~1\Temp/cc80aaaa.s:1427   .text:00000638 ax88796PhyDump
C:\DOCUME~1\pstang\LOCALS~1\Temp/cc80aaaa.s:1612   .text:000008ac $d
C:\DOCUME~1\pstang\LOCALS~1\Temp/cc80aaaa.s:1671   .text:000008f4 ax88796RegDump
C:\DOCUME~1\pstang\LOCALS~1\Temp/cc80aaaa.s:1676   .text:000008f4 $a
C:\DOCUME~1\pstang\LOCALS~1\Temp/cc80aaaa.s:1951   .text:00000aa0 $d
C:\DOCUME~1\pstang\LOCALS~1\Temp/cc80aaaa.s:1967   .text:00000acc nicRegDump
C:\DOCUME~1\pstang\LOCALS~1\Temp/cc80aaaa.s:1972   .text:00000acc $a
C:\DOCUME~1\pstang\LOCALS~1\Temp/cc80aaaa.s:1983   .text:00000ad8 ax88796ReceiveOverflowRecover
C:\DOCUME~1\pstang\LOCALS~1\Temp/cc80aaaa.s:2146   .text:00000bb0 ax88796ProcessInterrupt
C:\DOCUME~1\pstang\LOCALS~1\Temp/cc80aaaa.s:2171   .text:00000bcc ax88796BeginPacketRetreive
C:\DOCUME~1\pstang\LOCALS~1\Temp/cc80aaaa.s:2399   .text:00000d20 $d
C:\DOCUME~1\pstang\LOCALS~1\Temp/cc80aaaa.s:2406   .text:00000d28 nicPoll
C:\DOCUME~1\pstang\LOCALS~1\Temp/cc80aaaa.s:2412   .text:00000d28 $a
C:\DOCUME~1\pstang\LOCALS~1\Temp/cc80aaaa.s:2446   .text:00000d6c ax88796Init
C:\DOCUME~1\pstang\LOCALS~1\Temp/cc80aaaa.s:2703   .text:00000ec4 nicInit
C:\DOCUME~1\pstang\LOCALS~1\Temp/cc80aaaa.s:2719   .text:00000ed0 nicSetMacAddress
C:\DOCUME~1\pstang\LOCALS~1\Temp/cc80aaaa.s:2816   .text:00000f30 nicGetMacAddress
                             .bss:00000000 $d

UNDEFINED SYMBOLS
rprintfStr
rprintfu16
rprintfCRLF
rprintf1RamRom
rprintfu08
rprintfChar
timerPause
