ARM GAS  C:\DOCUME~1\pstang\LOCALS~1\Temp/cc80aaaa.s 			page 1


   1              		.file	"ax88796.c"
   8 0000 07050000 		.text
   8      02005B00 
   8      00000201 
   8      FB0E0D00 
   8      01010101 
   9              	.Ltext0:
  10              		.align	2
  11              		.global	ax88796SetupPorts
  12              		.type	ax88796SetupPorts, %function
  13              	ax88796SetupPorts:
  14              	.LFB8:
  15              		.file 1 "c:\\code\\arm\\armlib/net/ax88796.c"
   1:c:\code\arm\armlib/net\ax88796.c **** /*! \file ax88796.c \brief ASIX AX88796 Ethernet Interface Driver. */
   2:c:\code\arm\armlib/net\ax88796.c **** //*****************************************************************************
   3:c:\code\arm\armlib/net\ax88796.c **** //
   4:c:\code\arm\armlib/net\ax88796.c **** // File Name	: 'ax88796.c'
   5:c:\code\arm\armlib/net\ax88796.c **** // Title		: ASIX AX88796 Ethernet Interface Driver
   6:c:\code\arm\armlib/net\ax88796.c **** // Author		: Pascal Stang
   7:c:\code\arm\armlib/net\ax88796.c **** // Created		: 10/22/2002
   8:c:\code\arm\armlib/net\ax88796.c **** // Revised		: 8/21/2005
   9:c:\code\arm\armlib/net\ax88796.c **** // Version		: 0.1
  10:c:\code\arm\armlib/net\ax88796.c **** // Target MCU	: Atmel AVR series
  11:c:\code\arm\armlib/net\ax88796.c **** // Editor Tabs	: 4
  12:c:\code\arm\armlib/net\ax88796.c **** //
  13:c:\code\arm\armlib/net\ax88796.c **** // Description	: This driver provides initialization and transmit/receive
  14:c:\code\arm\armlib/net\ax88796.c **** //		functions for the ASIX AX88796 10/100Mb Ethernet Controller and PHY.
  15:c:\code\arm\armlib/net\ax88796.c **** //
  16:c:\code\arm\armlib/net\ax88796.c **** // Based in part on code by Louis Beaudoin (www.embedded-creations.com).
  17:c:\code\arm\armlib/net\ax88796.c **** // Thanks to Adam Dunkels and Louis Beaudoin for providing the initial
  18:c:\code\arm\armlib/net\ax88796.c **** // structure in which to write this driver.
  19:c:\code\arm\armlib/net\ax88796.c **** //
  20:c:\code\arm\armlib/net\ax88796.c **** //*****************************************************************************
  21:c:\code\arm\armlib/net\ax88796.c **** 
  22:c:\code\arm\armlib/net\ax88796.c **** #include "global.h"
  23:c:\code\arm\armlib/net\ax88796.c **** #include "timer.h"
  24:c:\code\arm\armlib/net\ax88796.c **** #include "rprintf.h"
  25:c:\code\arm\armlib/net\ax88796.c **** 
  26:c:\code\arm\armlib/net\ax88796.c **** #include "ax88796.h"
  27:c:\code\arm\armlib/net\ax88796.c **** 
  28:c:\code\arm\armlib/net\ax88796.c **** // include configuration
  29:c:\code\arm\armlib/net\ax88796.c **** #include "ax88796conf.h"
  30:c:\code\arm\armlib/net\ax88796.c **** 
  31:c:\code\arm\armlib/net\ax88796.c **** // pointers to locations in the ax88796 receive buffer
  32:c:\code\arm\armlib/net\ax88796.c **** static unsigned char NextPage;				// page pointer to next Rx packet
  33:c:\code\arm\armlib/net\ax88796.c **** static unsigned int CurrentRetreiveAddress;	// DMA address for read Rx packet location
  34:c:\code\arm\armlib/net\ax88796.c **** 
  35:c:\code\arm\armlib/net\ax88796.c **** 
  36:c:\code\arm\armlib/net\ax88796.c **** void nicInit(void)
  37:c:\code\arm\armlib/net\ax88796.c **** {
  38:c:\code\arm\armlib/net\ax88796.c **** 	ax88796Init();
ARM GAS  C:\DOCUME~1\pstang\LOCALS~1\Temp/cc80aaaa.s 			page 2


  39:c:\code\arm\armlib/net\ax88796.c **** }
  40:c:\code\arm\armlib/net\ax88796.c **** 
  41:c:\code\arm\armlib/net\ax88796.c **** void nicSend(unsigned int len, unsigned char* packet)
  42:c:\code\arm\armlib/net\ax88796.c **** {
  43:c:\code\arm\armlib/net\ax88796.c **** 	ax88796BeginPacketSend(len);
  44:c:\code\arm\armlib/net\ax88796.c **** 	ax88796SendPacketData(packet, len);
  45:c:\code\arm\armlib/net\ax88796.c **** 	ax88796EndPacketSend();
  46:c:\code\arm\armlib/net\ax88796.c **** }
  47:c:\code\arm\armlib/net\ax88796.c **** 
  48:c:\code\arm\armlib/net\ax88796.c **** unsigned int nicPoll(unsigned int maxlen, unsigned char* packet)
  49:c:\code\arm\armlib/net\ax88796.c **** {
  50:c:\code\arm\armlib/net\ax88796.c **** 	unsigned int packetLength;
  51:c:\code\arm\armlib/net\ax88796.c **** 	
  52:c:\code\arm\armlib/net\ax88796.c **** 	packetLength = ax88796BeginPacketRetreive();
  53:c:\code\arm\armlib/net\ax88796.c **** 
  54:c:\code\arm\armlib/net\ax88796.c **** 	// if there's no packet or an error - exit without ending the operation
  55:c:\code\arm\armlib/net\ax88796.c **** 	if( !packetLength )
  56:c:\code\arm\armlib/net\ax88796.c **** 		return 0;
  57:c:\code\arm\armlib/net\ax88796.c **** 
  58:c:\code\arm\armlib/net\ax88796.c **** 	// drop anything too big for the buffer
  59:c:\code\arm\armlib/net\ax88796.c **** 	if( packetLength > maxlen )
  60:c:\code\arm\armlib/net\ax88796.c **** 	{
  61:c:\code\arm\armlib/net\ax88796.c **** 		ax88796EndPacketRetreive();
  62:c:\code\arm\armlib/net\ax88796.c **** 		return 0;
  63:c:\code\arm\armlib/net\ax88796.c **** 	}
  64:c:\code\arm\armlib/net\ax88796.c **** 	
  65:c:\code\arm\armlib/net\ax88796.c **** 	// copy the packet data into the uIP packet buffer
  66:c:\code\arm\armlib/net\ax88796.c **** 	ax88796RetreivePacketData( packet, packetLength );
  67:c:\code\arm\armlib/net\ax88796.c **** 	ax88796EndPacketRetreive();
  68:c:\code\arm\armlib/net\ax88796.c **** 		
  69:c:\code\arm\armlib/net\ax88796.c **** 	return packetLength;
  70:c:\code\arm\armlib/net\ax88796.c **** }
  71:c:\code\arm\armlib/net\ax88796.c **** 
  72:c:\code\arm\armlib/net\ax88796.c **** void nicGetMacAddress(u08* macaddr)
  73:c:\code\arm\armlib/net\ax88796.c **** {
  74:c:\code\arm\armlib/net\ax88796.c **** 	u08 tempCR;
  75:c:\code\arm\armlib/net\ax88796.c **** 	// switch register pages
  76:c:\code\arm\armlib/net\ax88796.c **** 	tempCR = ax88796Read(CR);
  77:c:\code\arm\armlib/net\ax88796.c **** 	ax88796Write(CR,tempCR|PS0);
  78:c:\code\arm\armlib/net\ax88796.c **** 	// read MAC address registers
  79:c:\code\arm\armlib/net\ax88796.c **** 	*macaddr++ = ax88796Read(PAR0);
  80:c:\code\arm\armlib/net\ax88796.c **** 	*macaddr++ = ax88796Read(PAR1);
  81:c:\code\arm\armlib/net\ax88796.c **** 	*macaddr++ = ax88796Read(PAR2);
  82:c:\code\arm\armlib/net\ax88796.c **** 	*macaddr++ = ax88796Read(PAR3);
  83:c:\code\arm\armlib/net\ax88796.c **** 	*macaddr++ = ax88796Read(PAR4);
  84:c:\code\arm\armlib/net\ax88796.c **** 	*macaddr++ = ax88796Read(PAR5);
  85:c:\code\arm\armlib/net\ax88796.c **** 	// switch register pages back
  86:c:\code\arm\armlib/net\ax88796.c **** 	ax88796Write(CR,tempCR);
  87:c:\code\arm\armlib/net\ax88796.c **** }
  88:c:\code\arm\armlib/net\ax88796.c **** 
  89:c:\code\arm\armlib/net\ax88796.c **** void nicSetMacAddress(u08* macaddr)
  90:c:\code\arm\armlib/net\ax88796.c **** {
  91:c:\code\arm\armlib/net\ax88796.c **** 	u08 tempCR;
  92:c:\code\arm\armlib/net\ax88796.c **** 	// switch register pages
  93:c:\code\arm\armlib/net\ax88796.c **** 	tempCR = ax88796Read(CR);
  94:c:\code\arm\armlib/net\ax88796.c **** 	ax88796Write(CR,tempCR|PS0);
  95:c:\code\arm\armlib/net\ax88796.c **** 	// write MAC address registers
ARM GAS  C:\DOCUME~1\pstang\LOCALS~1\Temp/cc80aaaa.s 			page 3


  96:c:\code\arm\armlib/net\ax88796.c **** 	ax88796Write(PAR0, *macaddr++);
  97:c:\code\arm\armlib/net\ax88796.c **** 	ax88796Write(PAR1, *macaddr++);
  98:c:\code\arm\armlib/net\ax88796.c **** 	ax88796Write(PAR2, *macaddr++);
  99:c:\code\arm\armlib/net\ax88796.c **** 	ax88796Write(PAR3, *macaddr++);
 100:c:\code\arm\armlib/net\ax88796.c **** 	ax88796Write(PAR4, *macaddr++);
 101:c:\code\arm\armlib/net\ax88796.c **** 	ax88796Write(PAR5, *macaddr++);
 102:c:\code\arm\armlib/net\ax88796.c **** 	// switch register pages back
 103:c:\code\arm\armlib/net\ax88796.c **** 	ax88796Write(CR,tempCR);
 104:c:\code\arm\armlib/net\ax88796.c **** }
 105:c:\code\arm\armlib/net\ax88796.c **** 
 106:c:\code\arm\armlib/net\ax88796.c **** void nicRegDump(void)
 107:c:\code\arm\armlib/net\ax88796.c **** {
 108:c:\code\arm\armlib/net\ax88796.c **** 	ax88796RegDump();
 109:c:\code\arm\armlib/net\ax88796.c **** }
 110:c:\code\arm\armlib/net\ax88796.c **** 
 111:c:\code\arm\armlib/net\ax88796.c **** 
 112:c:\code\arm\armlib/net\ax88796.c **** void ax88796SetupPorts(void)
 113:c:\code\arm\armlib/net\ax88796.c **** {
  16              	@ args = 0, pretend = 0, frame = 0
  17              		@ frame_needed = 0, uses_anonymous_args = 0
  18              		@ link register save eliminated.
  19              		@ lr needed for prologue
  20              		.loc 1 138 0
 114:c:\code\arm\armlib/net\ax88796.c **** #if NIC_CONNECTION == MEMORY_MAPPED
 115:c:\code\arm\armlib/net\ax88796.c **** 	// enable external SRAM interface - no wait states
 116:c:\code\arm\armlib/net\ax88796.c **** //	sbi(MCUCR, SRE);
 117:c:\code\arm\armlib/net\ax88796.c **** //	sbi(MCUCR, SRW10);
 118:c:\code\arm\armlib/net\ax88796.c **** //	sbi(XMCRA, SRW00);
 119:c:\code\arm\armlib/net\ax88796.c **** //	sbi(XMCRA, SRW01);
 120:c:\code\arm\armlib/net\ax88796.c **** //	sbi(XMCRA, SRW11);
 121:c:\code\arm\armlib/net\ax88796.c **** #else
 122:c:\code\arm\armlib/net\ax88796.c **** 	// set address port to output
 123:c:\code\arm\armlib/net\ax88796.c **** 	AX88796_ADDRESS_DDR = AX88796_ADDRESS_MASK;
 124:c:\code\arm\armlib/net\ax88796.c ****     
 125:c:\code\arm\armlib/net\ax88796.c **** 	// set data port to input with pull-ups
 126:c:\code\arm\armlib/net\ax88796.c **** 	AX88796_DATA_DDR = 0x00;
 127:c:\code\arm\armlib/net\ax88796.c **** 	AX88796_DATA_PORT = 0xFF;
 128:c:\code\arm\armlib/net\ax88796.c **** 
 129:c:\code\arm\armlib/net\ax88796.c **** 	// initialize the control port read and write pins to de-asserted
 130:c:\code\arm\armlib/net\ax88796.c **** 	sbi( AX88796_CONTROL_PORT, AX88796_CONTROL_READPIN );
 131:c:\code\arm\armlib/net\ax88796.c **** 	sbi( AX88796_CONTROL_PORT, AX88796_CONTROL_WRITEPIN );
 132:c:\code\arm\armlib/net\ax88796.c **** 	// set the read and write pins to output
 133:c:\code\arm\armlib/net\ax88796.c **** 	sbi( AX88796_CONTROL_DDR, AX88796_CONTROL_READPIN );
 134:c:\code\arm\armlib/net\ax88796.c **** 	sbi( AX88796_CONTROL_DDR, AX88796_CONTROL_WRITEPIN );
 135:c:\code\arm\armlib/net\ax88796.c **** #endif
 136:c:\code\arm\armlib/net\ax88796.c **** 	// set reset pin to output
 137:c:\code\arm\armlib/net\ax88796.c **** //	sbi( AX88796_RESET_DDR, AX88796_RESET_PIN );
 138:c:\code\arm\armlib/net\ax88796.c **** }
  21              	r
  22 0000 1EFF2FE1 	.LFE8:
  23              		.size	ax88796SetupPorts, .-ax88796SetupPorts
  24              		.align	2
  25              		.global	ax88796Write
  26              		.type	ax88796Write, %function
  27              	ax88796Write:
  28              	.LFB9:
  29              		.loc 1 143 0
ARM GAS  C:\DOCUME~1\pstang\LOCALS~1\Temp/cc80aaaa.s 			page 4


 139:c:\code\arm\armlib/net\ax88796.c **** 
 140:c:\code\arm\armlib/net\ax88796.c **** 
 141:c:\code\arm\armlib/net\ax88796.c **** #if NIC_CONNECTION == MEMORY_MAPPED
 142:c:\code\arm\armlib/net\ax88796.c **** inline void ax88796Write(u08 address, u08 data)
 143:c:\code\arm\armlib/net\ax88796.c **** {
  30              	 0, pretend = 0, frame = 0
  31              		@ frame_needed = 0, uses_anonymous_args = 0
  32              		@ link register save eliminated.
  33              	.LVL0:
  34              		@ lr needed for prologue
  35              		and	r0, r0, #255
  36 0004 FF0000E2 		and	r1, r1, #255
  37 0008 FF1001E2 		.loc 1 144 0
 144:c:\code\arm\armlib/net\ax88796.c **** 	*(volatile u08*)(AX88796_MEMORY_MAPPED_OFFSET + address) = data;
  38              	 #-2147483648
  39 000c 0231A0E3 		add	r3, r3, #512
  40 0010 023C83E2 		strb	r1, [r0, r3]
  41 0014 0310C0E7 		.loc 1 145 0
 145:c:\code\arm\armlib/net\ax88796.c **** }
  42              	lr
  43 0018 1EFF2FE1 	.LFE9:
  44              		.size	ax88796Write, .-ax88796Write
  45              		.align	2
  46              		.global	ax88796Read
  47              		.type	ax88796Read, %function
  48              	ax88796Read:
  49              	.LFB10:
  50              		.loc 1 171 0
 146:c:\code\arm\armlib/net\ax88796.c **** #else
 147:c:\code\arm\armlib/net\ax88796.c **** void ax88796Write(u08 address, u08 data)
 148:c:\code\arm\armlib/net\ax88796.c **** {
 149:c:\code\arm\armlib/net\ax88796.c **** 	// assert the address
 150:c:\code\arm\armlib/net\ax88796.c ****     AX88796_ADDRESS_PORT = address | (AX88796_ADDRESS_PORT&~AX88796_ADDRESS_MASK);
 151:c:\code\arm\armlib/net\ax88796.c **** 
 152:c:\code\arm\armlib/net\ax88796.c **** 	// set data bus as output and place data on bus
 153:c:\code\arm\armlib/net\ax88796.c **** 	AX88796_DATA_DDR = 0xFF;
 154:c:\code\arm\armlib/net\ax88796.c **** 	AX88796_DATA_PORT = data;
 155:c:\code\arm\armlib/net\ax88796.c ****     
 156:c:\code\arm\armlib/net\ax88796.c **** 	// clock write pin
 157:c:\code\arm\armlib/net\ax88796.c **** 	cbi(AX88796_CONTROL_PORT, AX88796_CONTROL_WRITEPIN);
 158:c:\code\arm\armlib/net\ax88796.c **** 	nop();
 159:c:\code\arm\armlib/net\ax88796.c **** 	nop();
 160:c:\code\arm\armlib/net\ax88796.c **** 	sbi(AX88796_CONTROL_PORT, AX88796_CONTROL_WRITEPIN);
 161:c:\code\arm\armlib/net\ax88796.c ****     
 162:c:\code\arm\armlib/net\ax88796.c **** 	// set data bus back to input with pullups enabled
 163:c:\code\arm\armlib/net\ax88796.c **** 	AX88796_DATA_DDR = 0x00;
 164:c:\code\arm\armlib/net\ax88796.c **** 	AX88796_DATA_PORT = 0xFF;
 165:c:\code\arm\armlib/net\ax88796.c **** }
 166:c:\code\arm\armlib/net\ax88796.c **** #endif
 167:c:\code\arm\armlib/net\ax88796.c **** 
 168:c:\code\arm\armlib/net\ax88796.c **** 
 169:c:\code\arm\armlib/net\ax88796.c **** #if NIC_CONNECTION == MEMORY_MAPPED
 170:c:\code\arm\armlib/net\ax88796.c **** inline u08 ax88796Read(u08 address)
 171:c:\code\arm\armlib/net\ax88796.c **** {
  51              	 0, pretend = 0, frame = 0
  52              		@ frame_needed = 0, uses_anonymous_args = 0
  53              		@ link register save eliminated.
ARM GAS  C:\DOCUME~1\pstang\LOCALS~1\Temp/cc80aaaa.s 			page 5


  54              	.LVL1:
  55              		@ lr needed for prologue
  56              		and	r0, r0, #255
  57 001c FF0000E2 		.loc 1 172 0
 172:c:\code\arm\armlib/net\ax88796.c **** 	return *(volatile u08*)(AX88796_MEMORY_MAPPED_OFFSET + address);
  58              	, #-2147483648
  59 0020 0231A0E3 		add	r3, r3, #512
  60 0024 023C83E2 		ldrb	r0, [r0, r3]	@ zero_extendqisi2
  61 0028 0300D0E7 	.LVL2:
  62              		.loc 1 173 0
 173:c:\code\arm\armlib/net\ax88796.c **** }
  63              	r
  64 002c 1EFF2FE1 	.LFE10:
  65              		.size	ax88796Read, .-ax88796Read
  66              		.align	2
  67              		.global	ax88796BeginPacketSend
  68              		.type	ax88796BeginPacketSend, %function
  69              	ax88796BeginPacketSend:
  70              	.LFB12:
  71              		.loc 1 283 0
 174:c:\code\arm\armlib/net\ax88796.c **** #else
 175:c:\code\arm\armlib/net\ax88796.c **** u08 ax88796Read(u08 address)
 176:c:\code\arm\armlib/net\ax88796.c **** {
 177:c:\code\arm\armlib/net\ax88796.c **** 	u08 data;
 178:c:\code\arm\armlib/net\ax88796.c ****    
 179:c:\code\arm\armlib/net\ax88796.c **** 	// assert the address
 180:c:\code\arm\armlib/net\ax88796.c ****     AX88796_ADDRESS_PORT = address | (AX88796_ADDRESS_PORT&~AX88796_ADDRESS_MASK);
 181:c:\code\arm\armlib/net\ax88796.c **** 
 182:c:\code\arm\armlib/net\ax88796.c **** 	// assert read
 183:c:\code\arm\armlib/net\ax88796.c **** 	cbi(AX88796_CONTROL_PORT, AX88796_CONTROL_READPIN);
 184:c:\code\arm\armlib/net\ax88796.c **** 	nop();
 185:c:\code\arm\armlib/net\ax88796.c **** 	nop();
 186:c:\code\arm\armlib/net\ax88796.c **** 	// read in the data
 187:c:\code\arm\armlib/net\ax88796.c **** 	data = AX88796_DATA_PIN;
 188:c:\code\arm\armlib/net\ax88796.c **** 
 189:c:\code\arm\armlib/net\ax88796.c **** 	// negate read
 190:c:\code\arm\armlib/net\ax88796.c **** 	sbi(AX88796_CONTROL_PORT, AX88796_CONTROL_READPIN);
 191:c:\code\arm\armlib/net\ax88796.c **** 
 192:c:\code\arm\armlib/net\ax88796.c **** 	return data;
 193:c:\code\arm\armlib/net\ax88796.c **** }
 194:c:\code\arm\armlib/net\ax88796.c **** #endif                       
 195:c:\code\arm\armlib/net\ax88796.c **** 
 196:c:\code\arm\armlib/net\ax88796.c **** 
 197:c:\code\arm\armlib/net\ax88796.c **** void ax88796Init(void)
 198:c:\code\arm\armlib/net\ax88796.c **** {
 199:c:\code\arm\armlib/net\ax88796.c **** 	unsigned char tcrFduFlag;
 200:c:\code\arm\armlib/net\ax88796.c **** 	
 201:c:\code\arm\armlib/net\ax88796.c **** 	// initialize I/O ports
 202:c:\code\arm\armlib/net\ax88796.c **** 	ax88796SetupPorts();
 203:c:\code\arm\armlib/net\ax88796.c **** 
 204:c:\code\arm\armlib/net\ax88796.c **** 	// do a hard reset
 205:c:\code\arm\armlib/net\ax88796.c **** //	sbi(AX88796_RESET_PORT, AX88796_RESET_PIN);
 206:c:\code\arm\armlib/net\ax88796.c **** //	delay_ms(100);
 207:c:\code\arm\armlib/net\ax88796.c **** //	cbi(AX88796_RESET_PORT, AX88796_RESET_PIN);
 208:c:\code\arm\armlib/net\ax88796.c **** 
 209:c:\code\arm\armlib/net\ax88796.c **** 	// do soft reset
 210:c:\code\arm\armlib/net\ax88796.c **** 	ax88796Write(ISR, ax88796Read(ISR));
ARM GAS  C:\DOCUME~1\pstang\LOCALS~1\Temp/cc80aaaa.s 			page 6


 211:c:\code\arm\armlib/net\ax88796.c **** 	delay_ms(50);
 212:c:\code\arm\armlib/net\ax88796.c **** 
 213:c:\code\arm\armlib/net\ax88796.c **** 	// wait for PHY to come out of reset
 214:c:\code\arm\armlib/net\ax88796.c **** 	ax88796Read(RSTPORT);
 215:c:\code\arm\armlib/net\ax88796.c **** 	while(ax88796Read(TR) & RST_B);
 216:c:\code\arm\armlib/net\ax88796.c ****   
 217:c:\code\arm\armlib/net\ax88796.c **** 	// if the phy has not completed autonegotiation,
 218:c:\code\arm\armlib/net\ax88796.c **** 	// power it down, wait 2.5sec, and then re-enable autonegotioation
 219:c:\code\arm\armlib/net\ax88796.c **** 	if(!(ax88796Read(TR) & AUTOD))
 220:c:\code\arm\armlib/net\ax88796.c **** 	{
 221:c:\code\arm\armlib/net\ax88796.c **** 	ax88796WriteMii(0x10,0x00,0x0800);
 222:c:\code\arm\armlib/net\ax88796.c **** 		delay_ms(2500);
 223:c:\code\arm\armlib/net\ax88796.c **** 	ax88796WriteMii(0x10,0x00,0x1200);
 224:c:\code\arm\armlib/net\ax88796.c **** 	}
 225:c:\code\arm\armlib/net\ax88796.c **** 
 226:c:\code\arm\armlib/net\ax88796.c **** 	ax88796Write(CR,(RD2|STOP));		// stop the NIC, abort DMA, page 0
 227:c:\code\arm\armlib/net\ax88796.c **** 	delay_ms(5);						// make sure nothing is coming in or going out
 228:c:\code\arm\armlib/net\ax88796.c **** 	ax88796Write(DCR,DCR_INIT);    
 229:c:\code\arm\armlib/net\ax88796.c **** 	ax88796Write(RBCR0,0x00);
 230:c:\code\arm\armlib/net\ax88796.c **** 	ax88796Write(RBCR1,0x00);
 231:c:\code\arm\armlib/net\ax88796.c **** 	ax88796Write(IMR,0x00);
 232:c:\code\arm\armlib/net\ax88796.c **** 	ax88796Write(ISR,0xFF);
 233:c:\code\arm\armlib/net\ax88796.c **** 	ax88796Write(RCR,0x20);
 234:c:\code\arm\armlib/net\ax88796.c **** 	ax88796Write(BNRY,RXSTART_INIT);
 235:c:\code\arm\armlib/net\ax88796.c **** 	ax88796Write(PSTART,RXSTART_INIT);
 236:c:\code\arm\armlib/net\ax88796.c **** 	ax88796Write(PSTOP,RXSTOP_INIT);
 237:c:\code\arm\armlib/net\ax88796.c **** 	
 238:c:\code\arm\armlib/net\ax88796.c **** 	// switch to page 1
 239:c:\code\arm\armlib/net\ax88796.c **** 	ax88796Write(CR,(PS0|RD2|STOP));
 240:c:\code\arm\armlib/net\ax88796.c **** 	// write mac address
 241:c:\code\arm\armlib/net\ax88796.c **** 	ax88796Write(PAR0, AX88796_MAC0);
 242:c:\code\arm\armlib/net\ax88796.c **** 	ax88796Write(PAR1, AX88796_MAC1);
 243:c:\code\arm\armlib/net\ax88796.c **** 	ax88796Write(PAR2, AX88796_MAC2);
 244:c:\code\arm\armlib/net\ax88796.c **** 	ax88796Write(PAR3, AX88796_MAC3);
 245:c:\code\arm\armlib/net\ax88796.c **** 	ax88796Write(PAR4, AX88796_MAC4);
 246:c:\code\arm\armlib/net\ax88796.c **** 	ax88796Write(PAR5, AX88796_MAC5);
 247:c:\code\arm\armlib/net\ax88796.c **** 	// set start point
 248:c:\code\arm\armlib/net\ax88796.c **** 	ax88796Write(CURR,RXSTART_INIT+1);
 249:c:\code\arm\armlib/net\ax88796.c **** 
 250:c:\code\arm\armlib/net\ax88796.c **** 	ax88796Write(CR,(RD2|START));
 251:c:\code\arm\armlib/net\ax88796.c **** 	ax88796Write(RCR,RCR_INIT);
 252:c:\code\arm\armlib/net\ax88796.c **** 
 253:c:\code\arm\armlib/net\ax88796.c **** 	if(ax88796Read(GPI) & I_SPD)		// check PHY speed setting
 254:c:\code\arm\armlib/net\ax88796.c **** 		tcrFduFlag = FDU;				// if 100base, do full duplex
 255:c:\code\arm\armlib/net\ax88796.c **** 	else
 256:c:\code\arm\armlib/net\ax88796.c **** 		tcrFduFlag = 0;					// if 10base, do half duplex
 257:c:\code\arm\armlib/net\ax88796.c **** 		
 258:c:\code\arm\armlib/net\ax88796.c **** 	ax88796Write(TCR,(tcrFduFlag|TCR_INIT));
 259:c:\code\arm\armlib/net\ax88796.c **** 
 260:c:\code\arm\armlib/net\ax88796.c **** 	ax88796Write(GPOC,MPSEL);			// select media interface
 261:c:\code\arm\armlib/net\ax88796.c ****   
 262:c:\code\arm\armlib/net\ax88796.c **** 	ax88796Write(TPSR,TXSTART_INIT);
 263:c:\code\arm\armlib/net\ax88796.c **** 
 264:c:\code\arm\armlib/net\ax88796.c **** 	ax88796Write(CR,(RD2|STOP));
 265:c:\code\arm\armlib/net\ax88796.c **** 	ax88796Write(DCR,DCR_INIT);
 266:c:\code\arm\armlib/net\ax88796.c **** 	ax88796Write(CR,(RD2|START));
 267:c:\code\arm\armlib/net\ax88796.c **** 	ax88796Write(ISR,0xFF);
ARM GAS  C:\DOCUME~1\pstang\LOCALS~1\Temp/cc80aaaa.s 			page 7


 268:c:\code\arm\armlib/net\ax88796.c **** 	ax88796Write(IMR,IMR_INIT);
 269:c:\code\arm\armlib/net\ax88796.c **** 	ax88796Write(TCR,(tcrFduFlag|TCR_INIT));
 270:c:\code\arm\armlib/net\ax88796.c **** 
 271:c:\code\arm\armlib/net\ax88796.c **** 	//test
 272:c:\code\arm\armlib/net\ax88796.c **** /*
 273:c:\code\arm\armlib/net\ax88796.c **** 	while(1)
 274:c:\code\arm\armlib/net\ax88796.c **** 	{
 275:c:\code\arm\armlib/net\ax88796.c **** 		vt100SetCursorPos(18,0);
 276:c:\code\arm\armlib/net\ax88796.c **** 		ax88796RegDump();
 277:c:\code\arm\armlib/net\ax88796.c **** 	}
 278:c:\code\arm\armlib/net\ax88796.c **** */
 279:c:\code\arm\armlib/net\ax88796.c **** }
 280:c:\code\arm\armlib/net\ax88796.c **** 
 281:c:\code\arm\armlib/net\ax88796.c **** 
 282:c:\code\arm\armlib/net\ax88796.c **** void ax88796BeginPacketSend(unsigned int packetLength)
 283:c:\code\arm\armlib/net\ax88796.c **** {
  72              	 0, pretend = 0, frame = 0
  73              		@ frame_needed = 0, uses_anonymous_args = 0
  74              	.LVL3:
  75              		str	lr, [sp, #-4]!
  76 0030 04E02DE5 	.LCFI0:
  77              		.loc 1 285 0
 284:c:\code\arm\armlib/net\ax88796.c **** 	unsigned int sendPacketLength;
 285:c:\code\arm\armlib/net\ax88796.c **** 	sendPacketLength = (packetLength>=ETHERNET_MIN_PACKET_LENGTH)?
  78              	0, #60
  79 0034 3C0050E3 		movcs	lr, r0
  80 0038 00E0A021 		movcc	lr, #60
  81 003c 3CE0A033 	.LVL4:
  82              	.LBB476:
  83              	.LBB477:
  84              		.loc 1 144 0
  85              		mov	r3, #34
  86 0040 2230A0E3 		mov	r2, #-2147483648
  87 0044 0221A0E3 		add	r2, r2, #512
  88 0048 022C82E2 		strb	r3, [r2, #0]
  89 004c 0030C2E5 		mov	ip, #-2147483648
  90 0050 02C1A0E3 		add	r1, ip, #512
  91 0054 021C8CE2 	.L8:
  92              	.LBE477:
  93              	.LBE476:
  94              	.LBB478:
  95              	.LBB479:
  96              		.loc 1 172 0
  97              		ldrb	r3, [r1, #0]	@ zero_extendqisi2
  98 0058 0030D1E5 	.LBE479:
  99              	.LBE478:
 100              		.loc 1 292 0
 286:c:\code\arm\armlib/net\ax88796.c **** 						(packetLength):(ETHERNET_MIN_PACKET_LENGTH);
 287:c:\code\arm\armlib/net\ax88796.c **** 	
 288:c:\code\arm\armlib/net\ax88796.c **** 	//start the NIC
 289:c:\code\arm\armlib/net\ax88796.c **** 	ax88796Write(CR,(RD2|START));
 290:c:\code\arm\armlib/net\ax88796.c **** 	
 291:c:\code\arm\armlib/net\ax88796.c **** 	// still transmitting a packet - wait for it to finish
 292:c:\code\arm\armlib/net\ax88796.c **** 	while( ax88796Read(CR) & TXP );
 101              	L8
 102 005c 042013E2 	.LBB480:
 103 0060 FCFFFF1A 	.LBB481:
ARM GAS  C:\DOCUME~1\pstang\LOCALS~1\Temp/cc80aaaa.s 			page 8


 104              		.loc 1 144 0
 105              		mov	r3, #64
 106              		strb	r3, [r1, #4]
 107 0064 4030A0E3 	.LBE481:
 108 0068 0430C1E5 	.LBE480:
 109              	.LBB482:
 110              	.LBB483:
 111              		strb	r2, [r1, #8]
 112              	.LBE483:
 113 006c 0820C1E5 	.LBE482:
 114              	.LBB484:
 115              	.LBB485:
 116              		strb	r3, [ip, #521]
 117              	.LBE485:
 118 0070 0932CCE5 	.LBE484:
 119              	.LBB486:
 120              	.LBB487:
 121              		sub	r3, r3, #62
 122              		strb	r3, [ip, #519]
 123 0074 3E3043E2 		and	r3, r0, #255
 124 0078 0732CCE5 	.LBE487:
 125 007c FF3000E2 	.LBE486:
 126              	.LBB488:
 127              	.LBB489:
 128              		strb	r3, [ip, #522]
 129              		mov	r3, r0, lsr #8
 130 0080 0A32CCE5 		and	r3, r3, #255
 131 0084 2034A0E1 	.LBE489:
 132 0088 FF3003E2 	.LBE488:
 133              	.LBB490:
 134              	.LBB491:
 135              		strb	r3, [ip, #523]
 136              		and	r3, lr, #255
 137 008c 0B32CCE5 	.LBE491:
 138 0090 FF300EE2 	.LBE490:
 139              	.LBB492:
 140              	.LBB493:
 141              		strb	r3, [ip, #517]
 142              		mov	r3, lr, lsr #8
 143 0094 0532CCE5 		and	r3, r3, #255
 144 0098 2E34A0E1 	.LBE493:
 145 009c FF3003E2 	.LBE492:
 146              	.LBB494:
 147              	.LBB495:
 148              		strb	r3, [ip, #518]
 149              	.LBE495:
 150 00a0 0632CCE5 	.LBE494:
 151              	.LBB496:
 152              	.LBB497:
 153              		mov	r3, #18
 154              		strb	r3, [r1, #0]
 155 00a4 1230A0E3 	.LBE497:
 156 00a8 0030C1E5 	.LBE496:
 157              		.loc 1 313 0
 158              		ldr	pc, [sp], #4
 293:c:\code\arm\armlib/net\ax88796.c **** 
 294:c:\code\arm\armlib/net\ax88796.c **** 	//load beginning page for transmit buffer
ARM GAS  C:\DOCUME~1\pstang\LOCALS~1\Temp/cc80aaaa.s 			page 9


 295:c:\code\arm\armlib/net\ax88796.c **** 	ax88796Write(TPSR,TXSTART_INIT);
 296:c:\code\arm\armlib/net\ax88796.c **** 	
 297:c:\code\arm\armlib/net\ax88796.c **** 	//set start address for remote DMA operation
 298:c:\code\arm\armlib/net\ax88796.c **** 	ax88796Write(RSAR0,0x00);
 299:c:\code\arm\armlib/net\ax88796.c **** 	ax88796Write(RSAR1,0x40);
 300:c:\code\arm\armlib/net\ax88796.c **** 	
 301:c:\code\arm\armlib/net\ax88796.c **** 	//clear the packet stored interrupt
 302:c:\code\arm\armlib/net\ax88796.c **** 	ax88796Write(ISR, PTX);
 303:c:\code\arm\armlib/net\ax88796.c **** 
 304:c:\code\arm\armlib/net\ax88796.c **** 	//load data byte count for remote DMA
 305:c:\code\arm\armlib/net\ax88796.c **** 	ax88796Write(RBCR0, packetLength);
 306:c:\code\arm\armlib/net\ax88796.c **** 	ax88796Write(RBCR1, packetLength>>8);
 307:c:\code\arm\armlib/net\ax88796.c **** 
 308:c:\code\arm\armlib/net\ax88796.c **** 	ax88796Write(TBCR0, sendPacketLength);
 309:c:\code\arm\armlib/net\ax88796.c **** 	ax88796Write(TBCR1, sendPacketLength>>8);
 310:c:\code\arm\armlib/net\ax88796.c **** 	
 311:c:\code\arm\armlib/net\ax88796.c **** 	//do remote write operation
 312:c:\code\arm\armlib/net\ax88796.c **** 	ax88796Write(CR,(RD1|START));
 313:c:\code\arm\armlib/net\ax88796.c **** }
 159              	tSend
 160 00ac 04F09DE4 		.align	2
 161              		.global	ax88796SendPacketData
 162              		.type	ax88796SendPacketData, %function
 163              	ax88796SendPacketData:
 164              	.LFB13:
 165              		.loc 1 317 0
 166              		@ args = 0, pretend = 0, frame = 0
 167              		@ frame_needed = 0, uses_anonymous_args = 0
 314:c:\code\arm\armlib/net\ax88796.c **** 
 315:c:\code\arm\armlib/net\ax88796.c **** 
 316:c:\code\arm\armlib/net\ax88796.c **** void ax88796SendPacketData(unsigned char *localBuffer, unsigned int length)
 317:c:\code\arm\armlib/net\ax88796.c **** {
 168              	egister save eliminated.
 169              	.LVL5:
 170              		@ lr needed for prologue
 171              		.loc 1 320 0
 172              		cmp	r1, #0
 173              		bxeq	lr
 318:c:\code\arm\armlib/net\ax88796.c **** 	unsigned int i;
 319:c:\code\arm\armlib/net\ax88796.c **** 	
 320:c:\code\arm\armlib/net\ax88796.c **** 	for(i=0;i<length;i++)
 174              	2, #0
 175 00b0 000051E3 	.LVL6:
 176 00b4 1EFF2F01 		mov	r3, #-2147483648
 177 00b8 0020A0E3 		add	ip, r3, #512
 178              	.L16:
 179 00bc 0231A0E3 		.loc 1 321 0
 180 00c0 02CC83E2 		ldrb	r3, [r0, r2]	@ zero_extendqisi2
 181              	.LVL7:
 321:c:\code\arm\armlib/net\ax88796.c **** 		ax88796Write(RDMAPORT, localBuffer[i]);
 182              	
 183 00c4 0230D0E7 	.LBB499:
 184              		.loc 1 144 0
 185              		strb	r3, [ip, #16]
 186              	.LBE499:
 187              	.LBE498:
 188 00c8 1030CCE5 		.loc 1 320 0
ARM GAS  C:\DOCUME~1\pstang\LOCALS~1\Temp/cc80aaaa.s 			page 10


 189              		add	r2, r2, #1
 190              		cmp	r1, r2
 191              		bne	.L16
 192 00cc 012082E2 		bx	lr
 193 00d0 020051E1 	.LFE13:
 194 00d4 FAFFFF1A 		.size	ax88796SendPacketData, .-ax88796SendPacketData
 195 00d8 1EFF2FE1 		.align	2
 196              		.global	ax88796EndPacketSend
 197              		.type	ax88796EndPacketSend, %function
 198              	ax88796EndPacketSend:
 199              	.LFB14:
 200              		.loc 1 326 0
 201              		@ args = 0, pretend = 0, frame = 0
 202              		@ frame_needed = 0, uses_anonymous_args = 0
 322:c:\code\arm\armlib/net\ax88796.c **** }
 323:c:\code\arm\armlib/net\ax88796.c **** 
 324:c:\code\arm\armlib/net\ax88796.c **** 
 325:c:\code\arm\armlib/net\ax88796.c **** void ax88796EndPacketSend(void)
 326:c:\code\arm\armlib/net\ax88796.c **** {
 203              	e eliminated.
 204              		@ lr needed for prologue
 205              	.LBB500:
 206              	.LBB501:
 207              		.loc 1 144 0
 208              		mov	r1, #-2147483648
 209              		add	r2, r1, #512
 210              		mov	r3, #36
 211 00dc 0211A0E3 		strb	r3, [r2, #0]
 212 00e0 022C81E2 	.LBE501:
 213 00e4 2430A0E3 	.LBE500:
 214 00e8 0030C2E5 	.LBB502:
 215              	.LBB503:
 216              		add	r3, r3, #28
 217              		strb	r3, [r1, #519]
 218              	.LBE503:
 219 00ec 1C3083E2 	.LBE502:
 220 00f0 0732C1E5 		.loc 1 332 0
 221              		bx	lr
 222              	.LFE14:
 327:c:\code\arm\armlib/net\ax88796.c **** 	//send the contents of the transmit buffer onto the network
 328:c:\code\arm\armlib/net\ax88796.c **** 	ax88796Write(CR,(RD2|TXP));
 329:c:\code\arm\armlib/net\ax88796.c **** 	
 330:c:\code\arm\armlib/net\ax88796.c **** 	// clear the remote DMA interrupt
 331:c:\code\arm\armlib/net\ax88796.c **** 	ax88796Write(ISR, RDC);
 332:c:\code\arm\armlib/net\ax88796.c **** }
 223              	ketSend, .-ax88796EndPacketSend
 224 00f4 1EFF2FE1 		.align	2
 225              		.global	nicSend
 226              		.type	nicSend, %function
 227              	nicSend:
 228              	.LFB3:
 229              		.loc 1 42 0
 230              		@ args = 0, pretend = 0, frame = 0
 231              		@ frame_needed = 0, uses_anonymous_args = 0
 232              	.LVL8:
 233              		stmfd	sp!, {r4, r5, lr}
 234              	.LCFI1:
ARM GAS  C:\DOCUME~1\pstang\LOCALS~1\Temp/cc80aaaa.s 			page 11


 235              		mov	r5, r0
 236 00f8 30402DE9 		mov	r4, r1
 237              		.loc 1 43 0
 238 00fc 0050A0E1 		bl	ax88796BeginPacketSend
 239 0100 0140A0E1 	.LVL9:
 240              		.loc 1 44 0
 241 0104 FEFFFFEB 		mov	r0, r4
 242              		mov	r1, r5
 243              		bl	ax88796SendPacketData
 244 0108 0400A0E1 		.loc 1 45 0
 245 010c 0510A0E1 		bl	ax88796EndPacketSend
 246 0110 FEFFFFEB 		.loc 1 46 0
 247              		ldmfd	sp!, {r4, r5, pc}
 248 0114 FEFFFFEB 	.LFE3:
 249              		.size	nicSend, .-nicSend
 250 0118 3080BDE8 		.align	2
 251              		.global	ax88796RetreivePacketData
 252              		.type	ax88796RetreivePacketData, %function
 253              	ax88796RetreivePacketData:
 254              	.LFB16:
 255              		.loc 1 415 0
 256              		@ args = 0, pretend = 0, frame = 0
 257              		@ frame_needed = 0, uses_anonymous_args = 0
 333:c:\code\arm\armlib/net\ax88796.c **** 
 334:c:\code\arm\armlib/net\ax88796.c **** 
 335:c:\code\arm\armlib/net\ax88796.c **** unsigned int ax88796BeginPacketRetreive(void)
 336:c:\code\arm\armlib/net\ax88796.c **** {
 337:c:\code\arm\armlib/net\ax88796.c **** 	unsigned char writePagePtr;
 338:c:\code\arm\armlib/net\ax88796.c **** 	unsigned char readPagePtr;
 339:c:\code\arm\armlib/net\ax88796.c **** 	unsigned char bnryPagePtr;
 340:c:\code\arm\armlib/net\ax88796.c **** 	unsigned char i;
 341:c:\code\arm\armlib/net\ax88796.c **** 	
 342:c:\code\arm\armlib/net\ax88796.c **** 	unsigned char pageheader[4];
 343:c:\code\arm\armlib/net\ax88796.c **** 	unsigned int rxlen;
 344:c:\code\arm\armlib/net\ax88796.c **** 	
 345:c:\code\arm\armlib/net\ax88796.c **** 	// check for and handle an overflow
 346:c:\code\arm\armlib/net\ax88796.c **** 	ax88796ProcessInterrupt();
 347:c:\code\arm\armlib/net\ax88796.c **** 	
 348:c:\code\arm\armlib/net\ax88796.c **** 	// read CURR from page 1
 349:c:\code\arm\armlib/net\ax88796.c **** 	ax88796Write(CR,(PS0|RD2|START));
 350:c:\code\arm\armlib/net\ax88796.c **** 	writePagePtr = ax88796Read(CURR);
 351:c:\code\arm\armlib/net\ax88796.c **** 	// read the boundary register from page 0
 352:c:\code\arm\armlib/net\ax88796.c **** 	ax88796Write(CR,(RD2|START));
 353:c:\code\arm\armlib/net\ax88796.c **** 	bnryPagePtr = ax88796Read(BNRY);
 354:c:\code\arm\armlib/net\ax88796.c **** 
 355:c:\code\arm\armlib/net\ax88796.c **** 	// first packet is at page bnryPtr+1
 356:c:\code\arm\armlib/net\ax88796.c **** 	readPagePtr = bnryPagePtr+1;
 357:c:\code\arm\armlib/net\ax88796.c **** 	if(readPagePtr >= RXSTOP_INIT) readPagePtr = RXSTART_INIT;
 358:c:\code\arm\armlib/net\ax88796.c **** 	
 359:c:\code\arm\armlib/net\ax88796.c **** 	// return if there is no packet in the buffer
 360:c:\code\arm\armlib/net\ax88796.c **** 	if( readPagePtr == writePagePtr )
 361:c:\code\arm\armlib/net\ax88796.c **** 	{
 362:c:\code\arm\armlib/net\ax88796.c **** 		return 0;
 363:c:\code\arm\armlib/net\ax88796.c **** 	}
 364:c:\code\arm\armlib/net\ax88796.c **** 	
 365:c:\code\arm\armlib/net\ax88796.c **** 	// clear the packet received interrupt flag
 366:c:\code\arm\armlib/net\ax88796.c **** 	ax88796Write(ISR, PRX);
ARM GAS  C:\DOCUME~1\pstang\LOCALS~1\Temp/cc80aaaa.s 			page 12


 367:c:\code\arm\armlib/net\ax88796.c **** 	
 368:c:\code\arm\armlib/net\ax88796.c **** 	// if the boundary pointer is invalid,
 369:c:\code\arm\armlib/net\ax88796.c **** 	// reset the contents of the buffer and exit
 370:c:\code\arm\armlib/net\ax88796.c **** 	if( (bnryPagePtr < RXSTART_INIT) || (bnryPagePtr >= RXSTOP_INIT) )
 371:c:\code\arm\armlib/net\ax88796.c **** 	{
 372:c:\code\arm\armlib/net\ax88796.c **** 		ax88796Write(BNRY, RXSTART_INIT);
 373:c:\code\arm\armlib/net\ax88796.c **** 		ax88796Write(CR, (PS0|RD2|START));
 374:c:\code\arm\armlib/net\ax88796.c **** 		ax88796Write(CURR, RXSTART_INIT+1);
 375:c:\code\arm\armlib/net\ax88796.c **** 		ax88796Write(CR, (RD2|START));
 376:c:\code\arm\armlib/net\ax88796.c **** 		
 377:c:\code\arm\armlib/net\ax88796.c **** //		rprintf("B");
 378:c:\code\arm\armlib/net\ax88796.c **** 		return 0;
 379:c:\code\arm\armlib/net\ax88796.c **** 	}
 380:c:\code\arm\armlib/net\ax88796.c **** 
 381:c:\code\arm\armlib/net\ax88796.c **** 	// initiate DMA to transfer the RTL8019 packet header
 382:c:\code\arm\armlib/net\ax88796.c **** 	ax88796Write(RBCR0, 4);
 383:c:\code\arm\armlib/net\ax88796.c **** 	ax88796Write(RBCR1, 0);
 384:c:\code\arm\armlib/net\ax88796.c **** 	ax88796Write(RSAR0, 0);
 385:c:\code\arm\armlib/net\ax88796.c **** 	ax88796Write(RSAR1, readPagePtr);
 386:c:\code\arm\armlib/net\ax88796.c **** 	ax88796Write(CR, (RD0|START));
 387:c:\code\arm\armlib/net\ax88796.c **** 	for(i=0;i<4;i++)
 388:c:\code\arm\armlib/net\ax88796.c **** 		pageheader[i] = ax88796Read(RDMAPORT);
 389:c:\code\arm\armlib/net\ax88796.c **** 
 390:c:\code\arm\armlib/net\ax88796.c **** 	// end the DMA operation
 391:c:\code\arm\armlib/net\ax88796.c ****     ax88796Write(CR, (RD2|START));
 392:c:\code\arm\armlib/net\ax88796.c ****     for(i = 0; i <= 20; i++)
 393:c:\code\arm\armlib/net\ax88796.c ****         if(ax88796Read(ISR) & RDC)
 394:c:\code\arm\armlib/net\ax88796.c ****             break;
 395:c:\code\arm\armlib/net\ax88796.c ****     ax88796Write(ISR, RDC);
 396:c:\code\arm\armlib/net\ax88796.c **** 	
 397:c:\code\arm\armlib/net\ax88796.c **** 	rxlen = (pageheader[PKTHEADER_PKTLENH]<<8) + pageheader[PKTHEADER_PKTLENL];
 398:c:\code\arm\armlib/net\ax88796.c **** 	NextPage = pageheader[PKTHEADER_NEXTPAGE];
 399:c:\code\arm\armlib/net\ax88796.c **** 	
 400:c:\code\arm\armlib/net\ax88796.c **** 	CurrentRetreiveAddress = (readPagePtr<<8) + 4;
 401:c:\code\arm\armlib/net\ax88796.c **** 	
 402:c:\code\arm\armlib/net\ax88796.c **** 	// if the NextPage pointer is invalid, the packet is not ready yet - exit
 403:c:\code\arm\armlib/net\ax88796.c **** 	if( (NextPage >= RXSTOP_INIT) || (NextPage < RXSTART_INIT) )
 404:c:\code\arm\armlib/net\ax88796.c **** 	{
 405:c:\code\arm\armlib/net\ax88796.c **** //		rprintf("N");
 406:c:\code\arm\armlib/net\ax88796.c **** //		rprintfu08(nextPage);
 407:c:\code\arm\armlib/net\ax88796.c **** 		return 0;
 408:c:\code\arm\armlib/net\ax88796.c **** 	}
 409:c:\code\arm\armlib/net\ax88796.c **** 
 410:c:\code\arm\armlib/net\ax88796.c ****     return rxlen-4;
 411:c:\code\arm\armlib/net\ax88796.c **** }
 412:c:\code\arm\armlib/net\ax88796.c **** 
 413:c:\code\arm\armlib/net\ax88796.c **** 
 414:c:\code\arm\armlib/net\ax88796.c **** void ax88796RetreivePacketData(unsigned char * localBuffer, unsigned int length)
 415:c:\code\arm\armlib/net\ax88796.c **** {
 258              	
 259              		mov	ip, r1
 260              		.loc 1 415 0
 261              		and	r3, r1, #255
 262 011c 04E02DE5 	.LBB504:
 263              	.LBB505:
 264 0120 01C0A0E1 		.loc 1 144 0
 265              		mov	r2, #-2147483648
ARM GAS  C:\DOCUME~1\pstang\LOCALS~1\Temp/cc80aaaa.s 			page 13


 266 0124 FF3001E2 		add	r1, r2, #512
 267              	.LVL11:
 268              		strb	r3, [r2, #522]
 269              		mov	r3, ip, lsr #8
 270 0128 0221A0E3 		and	r3, r3, #255
 271 012c 021C82E2 	.LBE505:
 272              	.LBE504:
 273 0130 0A32C2E5 	.LBB506:
 274 0134 2C34A0E1 	.LBB507:
 275 0138 FF3003E2 		strb	r3, [r2, #523]
 276              	.LBE507:
 277              	.LBE506:
 278              		.loc 1 421 0
 279              		ldr	r3, .L35
 280 013c 0B32C2E5 		ldr	lr, [r3, #0]
 281              		and	r3, lr, #255
 282              	.LBB508:
 416:c:\code\arm\armlib/net\ax88796.c **** 	unsigned int i;
 417:c:\code\arm\armlib/net\ax88796.c **** 	
 418:c:\code\arm\armlib/net\ax88796.c **** 	// initiate DMA to transfer the data
 419:c:\code\arm\armlib/net\ax88796.c **** 	ax88796Write(RBCR0, (unsigned char)length);
 420:c:\code\arm\armlib/net\ax88796.c **** 	ax88796Write(RBCR1, (unsigned char)(length>>8));
 421:c:\code\arm\armlib/net\ax88796.c **** 	ax88796Write(RSAR0, (unsigned char)CurrentRetreiveAddress);
 283              	strb	r3, [r1, #8]
 284 0140 94309FE5 		mov	r3, lr, lsr #8
 285 0144 00E093E5 		and	r3, r3, #255
 286 0148 FF300EE2 	.LBE509:
 287              	.LBE508:
 288              	.LBB510:
 289              	.LBB511:
 290 014c 0830C1E5 		strb	r3, [r2, #521]
 291 0150 2E34A0E1 	.LBE511:
 292 0154 FF3003E2 	.LBE510:
 293              	.LBB512:
 294              	.LBB513:
 295              		mov	r3, #10
 296              		strb	r3, [r1, #0]
 297 0158 0932C2E5 	.LBE513:
 298              	.LBE512:
 299              		.loc 1 424 0
 300              		cmp	ip, #0
 301              		beq	.L24
 302 015c 0A30A0E3 	.LVL12:
 303 0160 0030C1E5 		add	r2, r2, #-2147483648
 304              	.L26:
 305              	.LBB514:
 422:c:\code\arm\armlib/net\ax88796.c **** 	ax88796Write(RSAR1, (unsigned char)(CurrentRetreiveAddress>>8));
 423:c:\code\arm\armlib/net\ax88796.c **** 	ax88796Write(CR, (RD0|START));
 424:c:\code\arm\armlib/net\ax88796.c **** 	for(i=0;i<length;i++)
 306              		ldrb	r3, [r1, #16]	@ zero_extendqisi2
 307 0164 00005CE3 	.LBE515:
 308 0168 0500000A 	.LBE514:
 309              		.loc 1 425 0
 310 016c 022182E2 		strb	r3, [r2, r0]
 311              		.loc 1 424 0
 312              		add	r2, r2, #1
 313              		cmp	ip, r2
ARM GAS  C:\DOCUME~1\pstang\LOCALS~1\Temp/cc80aaaa.s 			page 14


 314              		bne	.L26
 315 0170 1030D1E5 	.L24:
 316              	.LBB516:
 317              	.LBB517:
 425:c:\code\arm\armlib/net\ax88796.c **** 		localBuffer[i] = ax88796Read(RDMAPORT);
 318              	0
 319 0174 0030C2E7 		mov	r2, #34
 320              	.LVL13:
 321 0178 012082E2 		mov	r3, #-2147483648
 322 017c 02005CE1 		add	r3, r3, #512
 323 0180 FAFFFF1A 		strb	r2, [r3, #0]
 324              	.LVL14:
 325              		sub	r2, r2, #34
 326              		mov	r1, #-2147483648
 327              	.L27:
 328 0184 2220A0E3 	.LBE517:
 329              	.LBE516:
 330 0188 0231A0E3 	.LBB518:
 331 018c 023C83E2 	.LBB519:
 332 0190 0020C3E5 		.loc 1 172 0
 333              		ldrb	r3, [r1, #519]	@ zero_extendqisi2
 334 0194 222042E2 	.LBE519:
 335 0198 0211A0E3 	.LBE518:
 336              		.loc 1 430 0
 337              		tst	r3, #64
 338              		bne	.L28
 339              		.loc 1 429 0
 340              		add	r2, r2, #1
 341              		cmp	r2, #21
 342 019c 0732D1E5 		bne	.L27
 343              	.L28:
 344              	.LBB520:
 426:c:\code\arm\armlib/net\ax88796.c **** 
 427:c:\code\arm\armlib/net\ax88796.c **** 	// end the DMA operation
 428:c:\code\arm\armlib/net\ax88796.c **** 	ax88796Write(CR, (RD2|START));
 429:c:\code\arm\armlib/net\ax88796.c **** 	for(i = 0; i <= 20; i++)
 430:c:\code\arm\armlib/net\ax88796.c **** 		if(ax88796Read(ISR) & RDC)
 345              		r2, #64
 346 01a0 400013E3 	.LVL15:
 347 01a4 0200001A 		mov	r3, #-2147483648
 348              		strb	r2, [r3, #519]
 349 01a8 012082E2 	.LBE521:
 350 01ac 150052E3 	.LBE520:
 351 01b0 F9FFFF1A 		.loc 1 434 0
 352              		add	r1, ip, lr
 353              		ldr	r2, .L35
 354              		str	r1, [r2, #0]
 355              		.loc 1 435 0
 356 01b4 4020A0E3 		cmp	r1, #24576
 357              		.loc 1 436 0
 358 01b8 0231A0E3 		subcs	r3, r1, #6656
 359 01bc 0722C3E5 		strcs	r3, [r2, #0]
 360              		ldr	pc, [sp], #4
 361              	.L36:
 431:c:\code\arm\armlib/net\ax88796.c **** 			break;
 432:c:\code\arm\armlib/net\ax88796.c **** 	ax88796Write(ISR, RDC);
 433:c:\code\arm\armlib/net\ax88796.c ****     
ARM GAS  C:\DOCUME~1\pstang\LOCALS~1\Temp/cc80aaaa.s 			page 15


 434:c:\code\arm\armlib/net\ax88796.c **** 	CurrentRetreiveAddress += length;
 362              	.word	CurrentRetreiveAddress
 363 01c0 0E108CE0 	.LFE16:
 364 01c4 10209FE5 		.size	ax88796RetreivePacketData, .-ax88796RetreivePacketData
 365 01c8 001082E5 		.align	2
 435:c:\code\arm\armlib/net\ax88796.c **** 	if( CurrentRetreiveAddress >= 0x6000 )
 366              	obal	ax88796EndPacketRetreive
 367 01cc 060A51E3 		.type	ax88796EndPacketRetreive, %function
 436:c:\code\arm\armlib/net\ax88796.c ****     	CurrentRetreiveAddress -= (0x6000-0x4600) ;
 368              	88796EndPacketRetreive:
 369 01d0 1A3C4122 	.LFB17:
 370 01d4 00308225 		.loc 1 441 0
 371 01d8 04F09DE4 		@ args = 0, pretend = 0, frame = 0
 372              		@ frame_needed = 0, uses_anonymous_args = 0
 373              		@ link register save eliminated.
 374              		@ lr needed for prologue
 375 01dc 04000000 	.LBB522:
 376              	.LBB523:
 377              		.loc 1 144 0
 378              		mov	r2, #34
 379              		mov	r3, #-2147483648
 380              		add	r3, r3, #512
 381              		strb	r2, [r3, #0]
 382              	.LVL16:
 437:c:\code\arm\armlib/net\ax88796.c **** }
 438:c:\code\arm\armlib/net\ax88796.c **** 
 439:c:\code\arm\armlib/net\ax88796.c **** 
 440:c:\code\arm\armlib/net\ax88796.c **** void ax88796EndPacketRetreive(void)
 441:c:\code\arm\armlib/net\ax88796.c **** {
 383              	4
 384              		mov	r1, #-2147483648
 385              	.L38:
 386              	.LBE523:
 387              	.LBE522:
 388              	.LBB524:
 389              	.LBB525:
 390              		.loc 1 172 0
 391 01e0 2220A0E3 		ldrb	r3, [r1, #519]	@ zero_extendqisi2
 392 01e4 0231A0E3 	.LBE525:
 393 01e8 023C83E2 	.LBE524:
 394 01ec 0020C3E5 		.loc 1 448 0
 395              		tst	r3, #64
 396 01f0 222042E2 		bne	.L39
 397 01f4 0211A0E3 		.loc 1 447 0
 398              		add	r3, r2, #1
 399              		and	r2, r3, #255
 400              		cmp	r2, #21
 401              		bne	.L38
 402              	.L39:
 403              	.LBB526:
 404 01f8 0732D1E5 	.LBB527:
 405              		.loc 1 144 0
 406              		mov	r2, #64
 442:c:\code\arm\armlib/net\ax88796.c **** 	unsigned char i;
 443:c:\code\arm\armlib/net\ax88796.c **** 	unsigned char bnryPagePtr;
 444:c:\code\arm\armlib/net\ax88796.c **** 
 445:c:\code\arm\armlib/net\ax88796.c **** 	// end the DMA operation
ARM GAS  C:\DOCUME~1\pstang\LOCALS~1\Temp/cc80aaaa.s 			page 16


 446:c:\code\arm\armlib/net\ax88796.c ****     ax88796Write(CR, (RD2|START));
 447:c:\code\arm\armlib/net\ax88796.c ****     for(i = 0; i <= 20; i++)
 448:c:\code\arm\armlib/net\ax88796.c ****         if(ax88796Read(ISR) & RDC)
 407              	83648
 408 01fc 400013E3 		strb	r2, [r3, #519]
 409 0200 0300001A 	.LBE527:
 410              	.LBE526:
 411 0204 013082E2 		.loc 1 454 0
 412 0208 FF2003E2 		ldr	r3, .L45
 413 020c 150052E3 		ldrb	r3, [r3, #0]	@ zero_extendqisi2
 414 0210 F8FFFF1A 		sub	r3, r3, #1
 415              		and	r3, r3, #255
 416              	.LVL18:
 417              		.loc 1 455 0
 418              		cmp	r3, #69
 419 0214 4020A0E3 		movls	r3, #95
 420              	.LVL19:
 421 0218 0231A0E3 	.LBB528:
 422 021c 0722C3E5 	.LBB529:
 423              		.loc 1 144 0
 424              		mov	r2, #-2147483648
 449:c:\code\arm\armlib/net\ax88796.c ****             break;
 450:c:\code\arm\armlib/net\ax88796.c ****     ax88796Write(ISR, RDC);
 451:c:\code\arm\armlib/net\ax88796.c **** 
 452:c:\code\arm\armlib/net\ax88796.c **** 	// set the boundary register to point
 453:c:\code\arm\armlib/net\ax88796.c **** 	// to the start of the next packet-1
 454:c:\code\arm\armlib/net\ax88796.c ****     bnryPagePtr = NextPage-1;
 425              	5]
 426 0220 1C309FE5 	.LBE529:
 427 0224 0030D3E5 	.LBE528:
 428 0228 013043E2 		.loc 1 458 0
 429 022c FF3003E2 		bx	lr
 430              	.L46:
 455:c:\code\arm\armlib/net\ax88796.c **** 	if(bnryPagePtr < RXSTART_INIT) bnryPagePtr = RXSTOP_INIT-1;
 431              	n	2
 432 0230 450053E3 	.L45:
 433 0234 5F30A093 		.word	NextPage
 434              	.LFE17:
 435              		.size	ax88796EndPacketRetreive, .-ax88796EndPacketRetreive
 436              		.align	2
 437              		.global	ax88796WriteMii
 438 0238 0221A0E3 		.type	ax88796WriteMii, %function
 439 023c 0332C2E5 	ax88796WriteMii:
 440              	.LFB20:
 441              		.loc 1 551 0
 456:c:\code\arm\armlib/net\ax88796.c **** 
 457:c:\code\arm\armlib/net\ax88796.c **** 	ax88796Write(BNRY, bnryPagePtr);
 458:c:\code\arm\armlib/net\ax88796.c **** }
 442              	, pretend = 0, frame = 0
 443 0240 1EFF2FE1 		@ frame_needed = 0, uses_anonymous_args = 0
 444              	.LVL20:
 445              		stmfd	sp!, {r4, lr}
 446              	.LCFI3:
 447 0244 00000000 		mov	r4, r2
 448              		and	r0, r0, #255
 449              		and	r1, r1, #255
 450              	.LBB530:
ARM GAS  C:\DOCUME~1\pstang\LOCALS~1\Temp/cc80aaaa.s 			page 17


 451              	.LBB531:
 452              		.loc 1 172 0
 453              		mov	r2, #-2147483648
 454              	.LVL21:
 459:c:\code\arm\armlib/net\ax88796.c **** 
 460:c:\code\arm\armlib/net\ax88796.c **** 
 461:c:\code\arm\armlib/net\ax88796.c **** void ax88796ProcessInterrupt(void)
 462:c:\code\arm\armlib/net\ax88796.c **** {
 463:c:\code\arm\armlib/net\ax88796.c **** 	unsigned char intr = ax88796Read(ISR);
 464:c:\code\arm\armlib/net\ax88796.c **** 	
 465:c:\code\arm\armlib/net\ax88796.c **** 	// check for receive overflow
 466:c:\code\arm\armlib/net\ax88796.c **** 	if( intr & OVW )
 467:c:\code\arm\armlib/net\ax88796.c **** 		ax88796ReceiveOverflowRecover();
 468:c:\code\arm\armlib/net\ax88796.c **** }
 469:c:\code\arm\armlib/net\ax88796.c **** 
 470:c:\code\arm\armlib/net\ax88796.c **** 
 471:c:\code\arm\armlib/net\ax88796.c **** void ax88796ReceiveOverflowRecover(void)
 472:c:\code\arm\armlib/net\ax88796.c **** {
 473:c:\code\arm\armlib/net\ax88796.c **** 	// receive buffer overflow handling procedure
 474:c:\code\arm\armlib/net\ax88796.c **** 	// as specified in the AX88796 datasheet
 475:c:\code\arm\armlib/net\ax88796.c **** 
 476:c:\code\arm\armlib/net\ax88796.c **** 	unsigned char cmdReg;
 477:c:\code\arm\armlib/net\ax88796.c **** 	unsigned char resend=0;
 478:c:\code\arm\armlib/net\ax88796.c **** 
 479:c:\code\arm\armlib/net\ax88796.c **** 	// check if we were transmitting something
 480:c:\code\arm\armlib/net\ax88796.c **** 	cmdReg = ax88796Read(CR);
 481:c:\code\arm\armlib/net\ax88796.c **** 	// stop the interface
 482:c:\code\arm\armlib/net\ax88796.c **** 	ax88796Write(CR, (RD2|STOP));
 483:c:\code\arm\armlib/net\ax88796.c **** 	// wait for timeout
 484:c:\code\arm\armlib/net\ax88796.c **** 	delay_ms(2);
 485:c:\code\arm\armlib/net\ax88796.c **** 	// clear remote byte count registers
 486:c:\code\arm\armlib/net\ax88796.c **** 	ax88796Write(RBCR0, 0x00);
 487:c:\code\arm\armlib/net\ax88796.c **** 	ax88796Write(RBCR1, 0x00);
 488:c:\code\arm\armlib/net\ax88796.c **** 	
 489:c:\code\arm\armlib/net\ax88796.c **** 	// if we were transmitting something
 490:c:\code\arm\armlib/net\ax88796.c **** 	if(cmdReg & TXP)
 491:c:\code\arm\armlib/net\ax88796.c **** 	{
 492:c:\code\arm\armlib/net\ax88796.c **** 		// check if the transmit completed
 493:c:\code\arm\armlib/net\ax88796.c **** 		cmdReg = ax88796Read(ISR);
 494:c:\code\arm\armlib/net\ax88796.c **** 		if((cmdReg & PTX) || (cmdReg & TXE))
 495:c:\code\arm\armlib/net\ax88796.c **** 			resend = 0;		// transmit completed
 496:c:\code\arm\armlib/net\ax88796.c **** 	    else
 497:c:\code\arm\armlib/net\ax88796.c **** 			resend = 1;		// transmit was interrupted, must resend
 498:c:\code\arm\armlib/net\ax88796.c **** 	}
 499:c:\code\arm\armlib/net\ax88796.c **** 	// switch to loopback mode
 500:c:\code\arm\armlib/net\ax88796.c **** 	ax88796Write(TCR, LB0);
 501:c:\code\arm\armlib/net\ax88796.c **** 	// start the interface
 502:c:\code\arm\armlib/net\ax88796.c **** 	ax88796Write(CR, (RD2|START));
 503:c:\code\arm\armlib/net\ax88796.c **** 	// set boundary
 504:c:\code\arm\armlib/net\ax88796.c **** 	ax88796Write(BNRY, RXSTART_INIT);
 505:c:\code\arm\armlib/net\ax88796.c **** 	// go to page 1
 506:c:\code\arm\armlib/net\ax88796.c **** 	ax88796Write(CR, (PS0|RD2|START));
 507:c:\code\arm\armlib/net\ax88796.c **** 	// set current page register
 508:c:\code\arm\armlib/net\ax88796.c **** 	ax88796Write(CPR, RXSTART_INIT+1);
 509:c:\code\arm\armlib/net\ax88796.c **** 	// go to page 0
 510:c:\code\arm\armlib/net\ax88796.c **** 	ax88796Write(CR, (RD2|START));
 511:c:\code\arm\armlib/net\ax88796.c **** 	// clear the overflow int
ARM GAS  C:\DOCUME~1\pstang\LOCALS~1\Temp/cc80aaaa.s 			page 18


 512:c:\code\arm\armlib/net\ax88796.c **** 	ax88796Write(ISR, OVW);
 513:c:\code\arm\armlib/net\ax88796.c **** 	// switch to normal (non-loopback mode)
 514:c:\code\arm\armlib/net\ax88796.c **** 	ax88796Write(TCR, TCR_INIT);
 515:c:\code\arm\armlib/net\ax88796.c **** 
 516:c:\code\arm\armlib/net\ax88796.c **** 	// if previous transmit was interrupted, then resend
 517:c:\code\arm\armlib/net\ax88796.c **** 	if(resend)
 518:c:\code\arm\armlib/net\ax88796.c **** 		ax88796Write(CR, (RD2|TXP|START));
 519:c:\code\arm\armlib/net\ax88796.c **** 
 520:c:\code\arm\armlib/net\ax88796.c **** 	// recovery completed
 521:c:\code\arm\armlib/net\ax88796.c **** }
 522:c:\code\arm\armlib/net\ax88796.c **** 
 523:c:\code\arm\armlib/net\ax88796.c **** 
 524:c:\code\arm\armlib/net\ax88796.c **** #define set_mdc		ax88796Write(MEMR,ax88796Read(MEMR)|0x01);
 525:c:\code\arm\armlib/net\ax88796.c **** #define clr_mdc		ax88796Write(MEMR,ax88796Read(MEMR)&0xFE);
 526:c:\code\arm\armlib/net\ax88796.c **** 
 527:c:\code\arm\armlib/net\ax88796.c **** #define mii_clk		set_mdc; clr_mdc;				  
 528:c:\code\arm\armlib/net\ax88796.c **** 					
 529:c:\code\arm\armlib/net\ax88796.c **** #define set_mdir	ax88796Write(MEMR,ax88796Read(MEMR)|0x02);
 530:c:\code\arm\armlib/net\ax88796.c **** #define clr_mdir	ax88796Write(MEMR,ax88796Read(MEMR)&0xFD);
 531:c:\code\arm\armlib/net\ax88796.c **** 					
 532:c:\code\arm\armlib/net\ax88796.c **** #define set_mdo		ax88796Write(MEMR,ax88796Read(MEMR)|0x08)
 533:c:\code\arm\armlib/net\ax88796.c **** #define clr_mdo		ax88796Write(MEMR,ax88796Read(MEMR)&0xF7)
 534:c:\code\arm\armlib/net\ax88796.c **** 
 535:c:\code\arm\armlib/net\ax88796.c **** #define mii_write	clr_mdo; mii_clk;	\
 536:c:\code\arm\armlib/net\ax88796.c **** 					set_mdo; mii_clk;	\
 537:c:\code\arm\armlib/net\ax88796.c **** 					clr_mdo; mii_clk;	\
 538:c:\code\arm\armlib/net\ax88796.c **** 					set_mdo; mii_clk;
 539:c:\code\arm\armlib/net\ax88796.c **** 
 540:c:\code\arm\armlib/net\ax88796.c **** #define mii_read	clr_mdo; mii_clk;	\
 541:c:\code\arm\armlib/net\ax88796.c **** 					set_mdo; mii_clk;	\
 542:c:\code\arm\armlib/net\ax88796.c **** 					set_mdo; mii_clk;	\
 543:c:\code\arm\armlib/net\ax88796.c **** 					clr_mdo; mii_clk;
 544:c:\code\arm\armlib/net\ax88796.c **** 
 545:c:\code\arm\armlib/net\ax88796.c **** #define mii_r_ta    mii_clk; mii_clk;
 546:c:\code\arm\armlib/net\ax88796.c **** 
 547:c:\code\arm\armlib/net\ax88796.c **** #define mii_w_ta    set_mdo; mii_clk;	\
 548:c:\code\arm\armlib/net\ax88796.c **** 					clr_mdo; mii_clk;
 549:c:\code\arm\armlib/net\ax88796.c **** 			
 550:c:\code\arm\armlib/net\ax88796.c **** void ax88796WriteMii(unsigned char phyad,unsigned char regad,unsigned int mii_data)
 551:c:\code\arm\armlib/net\ax88796.c **** {
 455              	#512
 456              		ldrb	r3, [r2, #20]	@ zero_extendqisi2
 457              		and	r3, r3, #253
 458              	.LBE531:
 459 0248 10402DE9 	.LBE530:
 460              	.LBB532:
 461 024c 0240A0E1 	.LBB533:
 462 0250 FF0000E2 		.loc 1 144 0
 463 0254 FF1001E2 		strb	r3, [r2, #20]
 464              	.LBE533:
 465              	.LBE532:
 466              	.LBB534:
 467 0258 0221A0E3 	.LBB535:
 468              		.loc 1 172 0
 469 025c 022C82E2 		ldrb	r3, [r2, #20]	@ zero_extendqisi2
 470 0260 1430D2E5 		and	r3, r3, #247
 471 0264 FD3003E2 	.LBE535:
ARM GAS  C:\DOCUME~1\pstang\LOCALS~1\Temp/cc80aaaa.s 			page 19


 472              	.LBE534:
 473              	.LBB536:
 474              	.LBB537:
 475              		.loc 1 144 0
 476              		strb	r3, [r2, #20]
 477 0268 1430C2E5 	.LBE537:
 478              	.LBE536:
 479              	.LBB538:
 480              	.LBB539:
 481              		.loc 1 172 0
 482              		ldrb	r3, [r2, #20]	@ zero_extendqisi2
 483 026c 1430D2E5 		orr	r3, r3, #1
 484 0270 F73003E2 	.LBE539:
 485              	.LBE538:
 486              	.LBB540:
 487              	.LBB541:
 488              		.loc 1 144 0
 489              		strb	r3, [r2, #20]
 490 0274 1430C2E5 	.LBE541:
 491              	.LBE540:
 492              	.LBB542:
 493              	.LBB543:
 494              		.loc 1 172 0
 495              		ldrb	r3, [r2, #20]	@ zero_extendqisi2
 496 0278 1430D2E5 		and	r3, r3, #254
 497 027c 013083E3 	.LBE543:
 498              	.LBE542:
 499              	.LBB544:
 500              	.LBB545:
 501              		.loc 1 144 0
 502              		strb	r3, [r2, #20]
 503 0280 1430C2E5 	.LBE545:
 504              	.LBE544:
 505              	.LBB546:
 506              	.LBB547:
 507              		.loc 1 172 0
 508              		ldrb	r3, [r2, #20]	@ zero_extendqisi2
 509 0284 1430D2E5 		orr	r3, r3, #8
 510 0288 FE3003E2 	.LBE547:
 511              	.LBE546:
 512              	.LBB548:
 513              	.LBB549:
 514              		.loc 1 144 0
 515              		strb	r3, [r2, #20]
 516 028c 1430C2E5 	.LBE549:
 517              	.LBE548:
 518              	.LBB550:
 519              	.LBB551:
 520              		.loc 1 172 0
 521              		ldrb	r3, [r2, #20]	@ zero_extendqisi2
 522 0290 1430D2E5 		orr	r3, r3, #1
 523 0294 083083E3 	.LBE551:
 524              	.LBE550:
 525              	.LBB552:
 526              	.LBB553:
 527              		.loc 1 144 0
 528              		strb	r3, [r2, #20]
ARM GAS  C:\DOCUME~1\pstang\LOCALS~1\Temp/cc80aaaa.s 			page 20


 529 0298 1430C2E5 	.LBE553:
 530              	.LBE552:
 531              	.LBB554:
 532              	.LBB555:
 533              		.loc 1 172 0
 534              		ldrb	r3, [r2, #20]	@ zero_extendqisi2
 535 029c 1430D2E5 		and	r3, r3, #254
 536 02a0 013083E3 	.LBE555:
 537              	.LBE554:
 538              	.LBB556:
 539              	.LBB557:
 540              		.loc 1 144 0
 541              		strb	r3, [r2, #20]
 542 02a4 1430C2E5 	.LBE557:
 543              	.LBE556:
 544              	.LBB558:
 545              	.LBB559:
 546              		.loc 1 172 0
 547              		ldrb	r3, [r2, #20]	@ zero_extendqisi2
 548 02a8 1430D2E5 		and	r3, r3, #247
 549 02ac FE3003E2 	.LBE559:
 550              	.LBE558:
 551              	.LBB560:
 552              	.LBB561:
 553              		.loc 1 144 0
 554              		strb	r3, [r2, #20]
 555 02b0 1430C2E5 	.LBE561:
 556              	.LBE560:
 557              	.LBB562:
 558              	.LBB563:
 559              		.loc 1 172 0
 560              		ldrb	r3, [r2, #20]	@ zero_extendqisi2
 561 02b4 1430D2E5 		orr	r3, r3, #1
 562 02b8 F73003E2 	.LBE563:
 563              	.LBE562:
 564              	.LBB564:
 565              	.LBB565:
 566              		.loc 1 144 0
 567              		strb	r3, [r2, #20]
 568 02bc 1430C2E5 	.LBE565:
 569              	.LBE564:
 570              	.LBB566:
 571              	.LBB567:
 572              		.loc 1 172 0
 573              		ldrb	r3, [r2, #20]	@ zero_extendqisi2
 574 02c0 1430D2E5 		and	r3, r3, #254
 575 02c4 013083E3 	.LBE567:
 576              	.LBE566:
 577              	.LBB568:
 578              	.LBB569:
 579              		.loc 1 144 0
 580              		strb	r3, [r2, #20]
 581 02c8 1430C2E5 	.LBE569:
 582              	.LBE568:
 583              	.LBB570:
 584              	.LBB571:
 585              		.loc 1 172 0
ARM GAS  C:\DOCUME~1\pstang\LOCALS~1\Temp/cc80aaaa.s 			page 21


 586              		ldrb	r3, [r2, #20]	@ zero_extendqisi2
 587 02cc 1430D2E5 		orr	r3, r3, #8
 588 02d0 FE3003E2 	.LBE571:
 589              	.LBE570:
 590              	.LBB572:
 591              	.LBB573:
 592              		.loc 1 144 0
 593              		strb	r3, [r2, #20]
 594 02d4 1430C2E5 	.LBE573:
 595              	.LBE572:
 596              	.LBB574:
 597              	.LBB575:
 598              		.loc 1 172 0
 599              		ldrb	r3, [r2, #20]	@ zero_extendqisi2
 600 02d8 1430D2E5 		orr	r3, r3, #1
 601 02dc 083083E3 	.LBE575:
 602              	.LBE574:
 603              	.LBB576:
 604              	.LBB577:
 605              		.loc 1 144 0
 606              		strb	r3, [r2, #20]
 607 02e0 1430C2E5 	.LBE577:
 608              	.LBE576:
 609              	.LBB578:
 610              	.LBB579:
 611              		.loc 1 172 0
 612              		ldrb	r3, [r2, #20]	@ zero_extendqisi2
 613 02e4 1430D2E5 		and	r3, r3, #254
 614 02e8 013083E3 	.LBE579:
 615              	.LBE578:
 616              	.LBB580:
 617              	.LBB581:
 618              		.loc 1 144 0
 619              		strb	r3, [r2, #20]
 620 02ec 1430C2E5 		mov	lr, #16
 621              	.LVL22:
 622              		mov	ip, #0
 623              	.LVL23:
 624              	.L48:
 625              	.LBE581:
 626 02f0 1430D2E5 	.LBE580:
 627 02f4 FE3003E2 		.loc 1 561 0
 628              		tst	lr, r0
 629              	.LBB582:
 630              	.LBB583:
 631              		.loc 1 172 0
 632              		ldrneb	r3, [r2, #20]	@ zero_extendqisi2
 633 02f8 1430C2E5 		orrne	r3, r3, #8
 634 02fc 10E0A0E3 	.LBE583:
 635              	.LBE582:
 636 0300 00C0A0E3 	.LBB584:
 637              	.LBB585:
 638              		.loc 1 144 0
 639              		strneb	r3, [r2, #20]
 640              	.LBE585:
 552:c:\code\arm\armlib/net\ax88796.c **** 	unsigned char mask8;
 553:c:\code\arm\armlib/net\ax88796.c **** 	unsigned int  i,mask16;
ARM GAS  C:\DOCUME~1\pstang\LOCALS~1\Temp/cc80aaaa.s 			page 22


 554:c:\code\arm\armlib/net\ax88796.c **** 
 555:c:\code\arm\armlib/net\ax88796.c **** 	clr_mdir;
 556:c:\code\arm\armlib/net\ax88796.c **** 	mii_write;
 557:c:\code\arm\armlib/net\ax88796.c ****  
 558:c:\code\arm\armlib/net\ax88796.c **** 	mask8 = 0x10;
 559:c:\code\arm\armlib/net\ax88796.c **** 	for(i=0;i<5;++i)
 560:c:\code\arm\armlib/net\ax88796.c **** 	{
 561:c:\code\arm\armlib/net\ax88796.c ****   	   	if(mask8 & phyad)
 641              	E588:
 642 0304 00001EE1 	.LBB590:
 643              	.LBB591:
 644              		.loc 1 172 0
 645              		ldrb	r3, [r2, #20]	@ zero_extendqisi2
 646 0308 1430D215 		orr	r3, r3, #1
 647 030c 08308313 	.LBE591:
 648              	.LBE590:
 649              	.LBB592:
 650              	.LBB593:
 651              		.loc 1 144 0
 652              		strb	r3, [r2, #20]
 653 0310 1430C215 	.LBE593:
 654              	.LBE592:
 655              	.LBB594:
 656              	.LBB595:
 657              		.loc 1 172 0
 658              		ldrb	r3, [r2, #20]	@ zero_extendqisi2
 659 0314 1430D205 		and	r3, r3, #254
 660 0318 F7300302 	.LBE595:
 661              	.LBE594:
 662              	.LBB596:
 663              	.LBB597:
 664              		.loc 1 144 0
 665              		strb	r3, [r2, #20]
 666 031c 1430C205 	.LBE597:
 667              	.LBE596:
 668              		.loc 1 559 0
 669              		add	ip, ip, #1
 670              		cmp	ip, #5
 671              		.loc 1 566 0
 672 0320 1430D2E5 		movne	lr, lr, lsr #1
 673 0324 013083E3 		bne	.L48
 674              	.L52:
 675              		mov	ip, #16
 676              	.LVL24:
 677              		mov	r0, #0
 678              	.LVL25:
 679 0328 1430C2E5 		mov	r3, #-2147483648
 680              		add	r2, r3, #512
 681              	.L54:
 682              		.loc 1 571 0
 683              		tst	ip, r1
 684              	.LBB598:
 685 032c 1430D2E5 	.LBB599:
 686 0330 FE3003E2 		.loc 1 172 0
 687              		ldrneb	r3, [r2, #20]	@ zero_extendqisi2
 688              		orrne	r3, r3, #8
 689              	.LBE599:
ARM GAS  C:\DOCUME~1\pstang\LOCALS~1\Temp/cc80aaaa.s 			page 23


 690              	.LBE598:
 691              	.LBB600:
 692 0334 1430C2E5 	.LBB601:
 693              		.loc 1 144 0
 694              		strneb	r3, [r2, #20]
 695              	.LBE601:
 696 0338 01C08CE2 	.LBE600:
 697 033c 05005CE3 	.LBB602:
 562:c:\code\arm\armlib/net\ax88796.c **** 			set_mdo;
 563:c:\code\arm\armlib/net\ax88796.c **** 		else
 564:c:\code\arm\armlib/net\ax88796.c **** 			clr_mdo;
 565:c:\code\arm\armlib/net\ax88796.c **** 		mii_clk;
 566:c:\code\arm\armlib/net\ax88796.c **** 		mask8 >>= 1;	 
 698              	dqisi2
 699 0340 AEE0A011 		andeq	r3, r3, #247
 700 0344 EEFFFF1A 	.LBE603:
 701              	.LBE602:
 702 0348 10C0A0E3 	.LBB604:
 703              	.LBB605:
 704 034c 0000A0E3 		.loc 1 144 0
 705              		streqb	r3, [r2, #20]
 706 0350 0231A0E3 	.LBE605:
 707 0354 022C83E2 	.LBE604:
 708              	.LBB606:
 567:c:\code\arm\armlib/net\ax88796.c **** 	}   
 568:c:\code\arm\armlib/net\ax88796.c **** 	mask8 = 0x10;
 569:c:\code\arm\armlib/net\ax88796.c **** 	for(i=0;i<5;++i)
 570:c:\code\arm\armlib/net\ax88796.c **** 	{
 571:c:\code\arm\armlib/net\ax88796.c ****   		if(mask8 & regad)
 709              	loc 1 172 0
 710 0358 01001CE1 		ldrb	r3, [r2, #20]	@ zero_extendqisi2
 711              		orr	r3, r3, #1
 712              	.LBE607:
 713              	.LBE606:
 714 035c 1430D215 	.LBB608:
 715 0360 08308313 	.LBB609:
 716              		.loc 1 144 0
 717              		strb	r3, [r2, #20]
 718              	.LBE609:
 719              	.LBE608:
 720              	.LBB610:
 721 0364 1430C215 	.LBB611:
 722              		.loc 1 172 0
 723              		ldrb	r3, [r2, #20]	@ zero_extendqisi2
 724              		and	r3, r3, #254
 725              	.LBE611:
 726              	.LBE610:
 727 0368 1430D205 	.LBB612:
 728 036c F7300302 	.LBB613:
 729              		.loc 1 144 0
 730              		strb	r3, [r2, #20]
 731              	.LBE613:
 732              	.LBE612:
 733              		.loc 1 569 0
 734 0370 1430C205 		add	r0, r0, #1
 735              		cmp	r0, #5
 736              		.loc 1 576 0
ARM GAS  C:\DOCUME~1\pstang\LOCALS~1\Temp/cc80aaaa.s 			page 24


 737              		movne	ip, ip, lsr #1
 738              		bne	.L54
 739              	.L58:
 740 0374 1430D2E5 	.LBB614:
 741 0378 013083E3 	.LBB615:
 742              		.loc 1 172 0
 743              		mov	r2, #-2147483648
 744              		add	r2, r2, #512
 745              		ldrb	r3, [r2, #20]	@ zero_extendqisi2
 746              		orr	r3, r3, #8
 747 037c 1430C2E5 	.LBE615:
 748              	.LBE614:
 749              	.LBB616:
 750              	.LBB617:
 751              		.loc 1 144 0
 752              		strb	r3, [r2, #20]
 753 0380 1430D2E5 	.LBE617:
 754 0384 FE3003E2 	.LBE616:
 755              	.LBB618:
 756              	.LBB619:
 757              		.loc 1 172 0
 758              		ldrb	r3, [r2, #20]	@ zero_extendqisi2
 759              		orr	r3, r3, #1
 760 0388 1430C2E5 	.LBE619:
 761              	.LBE618:
 762              	.LBB620:
 763              	.LBB621:
 764 038c 010080E2 		.loc 1 144 0
 765 0390 050050E3 		strb	r3, [r2, #20]
 572:c:\code\arm\armlib/net\ax88796.c **** 			set_mdo;
 573:c:\code\arm\armlib/net\ax88796.c **** 		else
 574:c:\code\arm\armlib/net\ax88796.c **** 			clr_mdo;
 575:c:\code\arm\armlib/net\ax88796.c **** 		mii_clk;
 576:c:\code\arm\armlib/net\ax88796.c **** 		mask8 >>= 1;	 
 766              	3, [r2, #20]	@ zero_extendqisi2
 767 0394 ACC0A011 		and	r3, r3, #254
 768 0398 EEFFFF1A 	.LBE623:
 769              	.LBE622:
 770              	.LBB624:
 771              	.LBB625:
 772              		.loc 1 144 0
 773 039c 0221A0E3 		strb	r3, [r2, #20]
 774 03a0 022C82E2 	.LBE625:
 775 03a4 1430D2E5 	.LBE624:
 776 03a8 083083E3 	.LBB626:
 777              	.LBB627:
 778              		.loc 1 172 0
 779              		ldrb	r3, [r2, #20]	@ zero_extendqisi2
 780              		and	r3, r3, #247
 781              	.LBE627:
 782 03ac 1430C2E5 	.LBE626:
 783              	.LBB628:
 784              	.LBB629:
 785              		.loc 1 144 0
 786              		strb	r3, [r2, #20]
 787              	.LBE629:
 788 03b0 1430D2E5 	.LBE628:
ARM GAS  C:\DOCUME~1\pstang\LOCALS~1\Temp/cc80aaaa.s 			page 25


 789 03b4 013083E3 	.LBB630:
 790              	.LBB631:
 791              		.loc 1 172 0
 792              		ldrb	r3, [r2, #20]	@ zero_extendqisi2
 793              		orr	r3, r3, #1
 794              	.LBE631:
 795 03b8 1430C2E5 	.LBE630:
 796              	.LBB632:
 797              	.LBB633:
 798              		.loc 1 144 0
 799              		strb	r3, [r2, #20]
 800              	.LBE633:
 801 03bc 1430D2E5 	.LBE632:
 802 03c0 FE3003E2 	.LBB634:
 803              	.LBB635:
 804              		.loc 1 172 0
 805              		ldrb	r3, [r2, #20]	@ zero_extendqisi2
 806              		and	r3, r3, #254
 807              	.LBE635:
 808 03c4 1430C2E5 	.LBE634:
 809              	.LBB636:
 810              	.LBB637:
 811              		.loc 1 144 0
 812              		strb	r3, [r2, #20]
 813              		mov	r1, #0
 814 03c8 1430D2E5 	.LVL26:
 815 03cc F73003E2 		mov	r0, #32768
 816              	.LVL27:
 817              	.L60:
 818              	.LBE637:
 819              	.LBE636:
 820              		.loc 1 583 0
 821 03d0 1430C2E5 		tst	r4, r0
 822              	.LBB638:
 823              	.LBB639:
 824              		.loc 1 172 0
 825              		ldrneb	r3, [r2, #20]	@ zero_extendqisi2
 826              		orrne	r3, r3, #8
 827 03d4 1430D2E5 	.LBE639:
 828 03d8 013083E3 	.LBE638:
 829              	.LBB640:
 830              	.LBB641:
 831              		.loc 1 144 0
 832              		strneb	r3, [r2, #20]
 833              	.LBE641:
 834 03dc 1430C2E5 	.LBE640:
 835              	.LBB642:
 836              	.LBB643:
 837              		.loc 1 172 0
 838              		ldreqb	r3, [r2, #20]	@ zero_extendqisi2
 839              		andeq	r3, r3, #247
 840 03e0 1430D2E5 	.LBE643:
 841 03e4 FE3003E2 	.LBE642:
 842              	.LBB644:
 843              	.LBB645:
 844              		.loc 1 144 0
 845              		streqb	r3, [r2, #20]
ARM GAS  C:\DOCUME~1\pstang\LOCALS~1\Temp/cc80aaaa.s 			page 26


 846              	.LBE645:
 847 03e8 1430C2E5 	.LBE644:
 848 03ec 0010A0E3 	.LBB646:
 849              	.LBB647:
 850 03f0 0209A0E3 		.loc 1 172 0
 851              		ldrb	r3, [r2, #20]	@ zero_extendqisi2
 852              		orr	r3, r3, #1
 853              	.LBE647:
 854              	.LBE646:
 577:c:\code\arm\armlib/net\ax88796.c **** 	}    					
 578:c:\code\arm\armlib/net\ax88796.c **** 	mii_w_ta;
 579:c:\code\arm\armlib/net\ax88796.c ****  
 580:c:\code\arm\armlib/net\ax88796.c **** 	mask16 = 0x8000;
 581:c:\code\arm\armlib/net\ax88796.c **** 	for(i=0;i<16;++i)
 582:c:\code\arm\armlib/net\ax88796.c **** 	{
 583:c:\code\arm\armlib/net\ax88796.c **** 		if(mask16 & mii_data)
 855              	.loc 1 172 0
 856 03f4 000014E1 		ldrb	r3, [r2, #20]	@ zero_extendqisi2
 857              		and	r3, r3, #254
 858              	.LBE651:
 859              	.LBE650:
 860 03f8 1430D215 	.LBB652:
 861 03fc 08308313 	.LBB653:
 862              		.loc 1 144 0
 863              		strb	r3, [r2, #20]
 864              	.LBE653:
 865              	.LBE652:
 866              		.loc 1 581 0
 867 0400 1430C215 		add	r1, r1, #1
 868              		cmp	r1, #16
 869              		ldmeqfd	sp!, {r4, pc}
 870              		.loc 1 588 0
 871              		mov	r0, r0, lsr #1
 872              		b	.L60
 873 0404 1430D205 	.LFE20:
 874 0408 F7300302 		.size	ax88796WriteMii, .-ax88796WriteMii
 875              		.align	2
 876              		.global	ax88796ReadMii
 877              		.type	ax88796ReadMii, %function
 878              	ax88796ReadMii:
 879              	.LFB21:
 880 040c 1430C205 		.loc 1 593 0
 881              		@ args = 0, pretend = 0, frame = 0
 882              		@ frame_needed = 0, uses_anonymous_args = 0
 883              	.LVL28:
 884              		str	lr, [sp, #-4]!
 885              	.LCFI4:
 886 0410 1430D2E5 		and	r0, r0, #255
 887 0414 013083E3 		and	r1, r1, #255
 888              	.LBB654:
 889              	.LBB655:
 890              		.loc 1 172 0
 891              		mov	r2, #-2147483648
 892              		add	r2, r2, #512
 893 0418 1430C2E5 		ldrb	r3, [r2, #20]	@ zero_extendqisi2
 894              		and	r3, r3, #253
 895              	.LBE655:
ARM GAS  C:\DOCUME~1\pstang\LOCALS~1\Temp/cc80aaaa.s 			page 27


 896              	.LBE654:
 897              	.LBB656:
 898              	.LBB657:
 899 041c 1430D2E5 		.loc 1 144 0
 900 0420 FE3003E2 		strb	r3, [r2, #20]
 901              	.LBE657:
 902              	.LBE656:
 903              	.LBB658:
 904              	.LBB659:
 905              		.loc 1 172 0
 906 0424 1430C2E5 		ldrb	r3, [r2, #20]	@ zero_extendqisi2
 907              		and	r3, r3, #247
 908              	.LBE659:
 909              	.LBE658:
 910 0428 011081E2 	.LBB660:
 911 042c 100051E3 	.LBB661:
 912 0430 1080BD08 		.loc 1 144 0
 584:c:\code\arm\armlib/net\ax88796.c **** 			set_mdo;
 585:c:\code\arm\armlib/net\ax88796.c **** 		else
 586:c:\code\arm\armlib/net\ax88796.c **** 			clr_mdo;
 587:c:\code\arm\armlib/net\ax88796.c **** 		mii_clk;	 
 588:c:\code\arm\armlib/net\ax88796.c **** 		mask16 >>= 1;	 
 913              	loc 1 172 0
 914 0434 A000A0E1 		ldrb	r3, [r2, #20]	@ zero_extendqisi2
 915 0438 EDFFFFEA 		orr	r3, r3, #1
 916              	.LBE663:
 917              	.LBE662:
 918              	.LBB664:
 919              	.LBB665:
 920              		.loc 1 144 0
 921              		strb	r3, [r2, #20]
 922              	.LBE665:
 589:c:\code\arm\armlib/net\ax88796.c **** 	}   			
 590:c:\code\arm\armlib/net\ax88796.c **** }
 591:c:\code\arm\armlib/net\ax88796.c ****  
 592:c:\code\arm\armlib/net\ax88796.c **** unsigned int ax88796ReadMii(unsigned char phyad,unsigned char regad)
 593:c:\code\arm\armlib/net\ax88796.c **** {
 923              	LBB666:
 924              	.LBB667:
 925              		.loc 1 172 0
 926              		ldrb	r3, [r2, #20]	@ zero_extendqisi2
 927 043c 04E02DE5 		and	r3, r3, #254
 928              	.LBE667:
 929 0440 FF0000E2 	.LBE666:
 930 0444 FF1001E2 	.LBB668:
 931              	.LBB669:
 932              		.loc 1 144 0
 933              		strb	r3, [r2, #20]
 934 0448 0221A0E3 	.LBE669:
 935 044c 022C82E2 	.LBE668:
 936 0450 1430D2E5 	.LBB670:
 937 0454 FD3003E2 	.LBB671:
 938              		.loc 1 172 0
 939              		ldrb	r3, [r2, #20]	@ zero_extendqisi2
 940              		orr	r3, r3, #8
 941              	.LBE671:
 942              	.LBE670:
ARM GAS  C:\DOCUME~1\pstang\LOCALS~1\Temp/cc80aaaa.s 			page 28


 943 0458 1430C2E5 	.LBB672:
 944              	.LBB673:
 945              		.loc 1 144 0
 946              		strb	r3, [r2, #20]
 947              	.LBE673:
 948              	.LBE672:
 949 045c 1430D2E5 	.LBB674:
 950 0460 F73003E2 	.LBB675:
 951              		.loc 1 172 0
 952              		ldrb	r3, [r2, #20]	@ zero_extendqisi2
 953              		orr	r3, r3, #1
 954              	.LBE675:
 955              	.LBE674:
 956 0464 1430C2E5 	.LBB676:
 957              	.LBB677:
 958              		.loc 1 144 0
 959              		strb	r3, [r2, #20]
 960              	.LBE677:
 961              	.LBE676:
 962 0468 1430D2E5 	.LBB678:
 963 046c 013083E3 	.LBB679:
 964              		.loc 1 172 0
 965              		ldrb	r3, [r2, #20]	@ zero_extendqisi2
 966              		and	r3, r3, #254
 967              	.LBE679:
 968              	.LBE678:
 969 0470 1430C2E5 	.LBB680:
 970              	.LBB681:
 971              		.loc 1 144 0
 972              		strb	r3, [r2, #20]
 973              	.LBE681:
 974              	.LBE680:
 975 0474 1430D2E5 	.LBB682:
 976 0478 FE3003E2 	.LBB683:
 977              		.loc 1 172 0
 978              		ldrb	r3, [r2, #20]	@ zero_extendqisi2
 979              		orr	r3, r3, #8
 980              	.LBE683:
 981              	.LBE682:
 982 047c 1430C2E5 	.LBB684:
 983              	.LBB685:
 984              		.loc 1 144 0
 985              		strb	r3, [r2, #20]
 986              	.LBE685:
 987              	.LBE684:
 988 0480 1430D2E5 	.LBB686:
 989 0484 083083E3 	.LBB687:
 990              		.loc 1 172 0
 991              		ldrb	r3, [r2, #20]	@ zero_extendqisi2
 992              		orr	r3, r3, #1
 993              	.LBE687:
 994              	.LBE686:
 995 0488 1430C2E5 	.LBB688:
 996              	.LBB689:
 997              		.loc 1 144 0
 998              		strb	r3, [r2, #20]
 999              	.LBE689:
ARM GAS  C:\DOCUME~1\pstang\LOCALS~1\Temp/cc80aaaa.s 			page 29


 1000              	.LBE688:
 1001 048c 1430D2E5 	.LBB690:
 1002 0490 013083E3 	.LBB691:
 1003              		.loc 1 172 0
 1004              		ldrb	r3, [r2, #20]	@ zero_extendqisi2
 1005              		and	r3, r3, #254
 1006              	.LBE691:
 1007              	.LBE690:
 1008 0494 1430C2E5 	.LBB692:
 1009              	.LBB693:
 1010              		.loc 1 144 0
 1011              		strb	r3, [r2, #20]
 1012              	.LBE693:
 1013              	.LBE692:
 1014 0498 1430D2E5 	.LBB694:
 1015 049c FE3003E2 	.LBB695:
 1016              		.loc 1 172 0
 1017              		ldrb	r3, [r2, #20]	@ zero_extendqisi2
 1018              		and	r3, r3, #247
 1019              	.LBE695:
 1020              	.LBE694:
 1021 04a0 1430C2E5 	.LBB696:
 1022              	.LBB697:
 1023              		.loc 1 144 0
 1024              		strb	r3, [r2, #20]
 1025              	.LBE697:
 1026              	.LBE696:
 1027 04a4 1430D2E5 	.LBB698:
 1028 04a8 083083E3 	.LBB699:
 1029              		.loc 1 172 0
 1030              		ldrb	r3, [r2, #20]	@ zero_extendqisi2
 1031              		orr	r3, r3, #1
 1032              	.LBE699:
 1033              	.LBE698:
 1034 04ac 1430C2E5 	.LBB700:
 1035              	.LBB701:
 1036              		.loc 1 144 0
 1037              		strb	r3, [r2, #20]
 1038              	.LBE701:
 1039              	.LBE700:
 1040 04b0 1430D2E5 	.LBB702:
 1041 04b4 013083E3 	.LBB703:
 1042              		.loc 1 172 0
 1043              		ldrb	r3, [r2, #20]	@ zero_extendqisi2
 1044              		and	r3, r3, #254
 1045              	.LBE703:
 1046              	.LBE702:
 1047 04b8 1430C2E5 	.LBB704:
 1048              	.LBB705:
 1049              		.loc 1 144 0
 1050              		strb	r3, [r2, #20]
 1051              		mov	lr, #16
 1052              	.LVL29:
 1053 04bc 1430D2E5 		mov	ip, #0
 1054 04c0 FE3003E2 	.LVL30:
 1055              	.L68:
 1056              	.LBE705:
ARM GAS  C:\DOCUME~1\pstang\LOCALS~1\Temp/cc80aaaa.s 			page 30


 1057              	.LBE704:
 1058              		.loc 1 603 0
 1059              		tst	lr, r0
 1060 04c4 1430C2E5 	.LBB706:
 1061              	.LBB707:
 1062              		.loc 1 172 0
 1063              		ldrneb	r3, [r2, #20]	@ zero_extendqisi2
 1064              		orrne	r3, r3, #8
 1065              	.LBE707:
 1066 04c8 1430D2E5 	.LBE706:
 1067 04cc F73003E2 	.LBB708:
 1068              	.LBB709:
 1069              		.loc 1 144 0
 1070              		strneb	r3, [r2, #20]
 1071              	.LBE709:
 1072              	.LBE708:
 1073 04d0 1430C2E5 	.LBB710:
 1074              	.LBB711:
 1075              		.loc 1 172 0
 1076              		ldreqb	r3, [r2, #20]	@ zero_extendqisi2
 1077              		andeq	r3, r3, #247
 1078              	.LBE711:
 1079 04d4 1430D2E5 	.LBE710:
 1080 04d8 013083E3 	.LBB712:
 1081              	.LBB713:
 1082              		.loc 1 144 0
 1083              		streqb	r3, [r2, #20]
 1084              	.LBE713:
 1085              	.LBE712:
 1086 04dc 1430C2E5 	.LBB714:
 1087              	.LBB715:
 1088              		.loc 1 172 0
 1089              		ldrb	r3, [r2, #20]	@ zero_extendqisi2
 1090              		orr	r3, r3, #1
 1091              	.LBE715:
 1092 04e0 1430D2E5 	.LBE714:
 1093 04e4 FE3003E2 	.LBB716:
 1094              	.LBB717:
 1095              		.loc 1 144 0
 1096              		strb	r3, [r2, #20]
 1097              	.LBE717:
 1098              	.LBE716:
 1099 04e8 1430C2E5 	.LBB718:
 1100 04ec 10E0A0E3 	.LBB719:
 1101              		.loc 1 172 0
 1102 04f0 00C0A0E3 		ldrb	r3, [r2, #20]	@ zero_extendqisi2
 1103              		and	r3, r3, #254
 1104              	.LBE719:
 1105              	.LBE718:
 1106              	.LBB720:
 594:c:\code\arm\armlib/net\ax88796.c **** 	unsigned char mask8,i;
 595:c:\code\arm\armlib/net\ax88796.c **** 	unsigned int  mask16,result16;
 596:c:\code\arm\armlib/net\ax88796.c ****  
 597:c:\code\arm\armlib/net\ax88796.c **** 	clr_mdir;
 598:c:\code\arm\armlib/net\ax88796.c **** 	mii_read;
 599:c:\code\arm\armlib/net\ax88796.c **** 
 600:c:\code\arm\armlib/net\ax88796.c **** 	mask8 = 0x10;
ARM GAS  C:\DOCUME~1\pstang\LOCALS~1\Temp/cc80aaaa.s 			page 31


 601:c:\code\arm\armlib/net\ax88796.c **** 	for(i=0;i<5;++i)
 602:c:\code\arm\armlib/net\ax88796.c **** 	{
 603:c:\code\arm\armlib/net\ax88796.c **** 		if(mask8 & phyad)
 1107              	6
 1108 04f4 00001EE1 	.LVL31:
 1109              		mov	r0, #0
 1110              	.LVL32:
 1111              		mov	r3, #-2147483648
 1112 04f8 1430D215 		add	r2, r3, #512
 1113 04fc 08308313 	.L74:
 1114              		.loc 1 613 0
 1115              		tst	r1, ip
 1116              	.LBB722:
 1117              	.LBB723:
 1118              		.loc 1 172 0
 1119 0500 1430C215 		ldrneb	r3, [r2, #20]	@ zero_extendqisi2
 1120              		orrne	r3, r3, #8
 1121              	.LBE723:
 1122              	.LBE722:
 1123              	.LBB724:
 1124              	.LBB725:
 1125 0504 1430D205 		.loc 1 144 0
 1126 0508 F7300302 		strneb	r3, [r2, #20]
 1127              	.LBE725:
 1128              	.LBE724:
 1129              	.LBB726:
 1130              	.LBB727:
 1131              		.loc 1 172 0
 1132 050c 1430C205 		ldreqb	r3, [r2, #20]	@ zero_extendqisi2
 1133              		andeq	r3, r3, #247
 1134              	.LBE727:
 1135              	.LBE726:
 1136              	.LBB728:
 1137              	.LBB729:
 1138 0510 1430D2E5 		.loc 1 144 0
 1139 0514 013083E3 		streqb	r3, [r2, #20]
 1140              	.LBE729:
 1141              	.LBE728:
 1142              	.LBB730:
 1143              	.LBB731:
 1144              		.loc 1 172 0
 1145 0518 1430C2E5 		ldrb	r3, [r2, #20]	@ zero_extendqisi2
 1146              		orr	r3, r3, #1
 1147              	.LBE731:
 1148              	.LBE730:
 1149              	.LBB732:
 1150              	.LBB733:
 1151 051c 1430D2E5 		.loc 1 144 0
 1152 0520 FE3003E2 		strb	r3, [r2, #20]
 1153              	.LBE733:
 1154              	.LBE732:
 1155              	.LBB734:
 1156              	.LBB735:
 1157              		.loc 1 172 0
 1158 0524 1430C2E5 		ldrb	r3, [r2, #20]	@ zero_extendqisi2
 1159              		and	r3, r3, #254
 1160              	.LBE735:
ARM GAS  C:\DOCUME~1\pstang\LOCALS~1\Temp/cc80aaaa.s 			page 32


 1161              	.LBE734:
 1162 0528 01308CE2 	.LBB736:
 1163 052c FFC003E2 	.LBB737:
 1164 0530 05005CE3 		.loc 1 144 0
 604:c:\code\arm\armlib/net\ax88796.c **** 			set_mdo;
 605:c:\code\arm\armlib/net\ax88796.c **** 		else
 606:c:\code\arm\armlib/net\ax88796.c **** 			clr_mdo;
 607:c:\code\arm\armlib/net\ax88796.c **** 		mii_clk;	 
 608:c:\code\arm\armlib/net\ax88796.c **** 		mask8 >>= 1;
 1165              	3, r0, #1
 1166 0534 AEE0A011 		and	r0, r3, #255
 1167 0538 EDFFFF1A 		cmp	r0, #5
 1168              		.loc 1 618 0
 1169 053c 10C0A0E3 		movne	ip, ip, lsr #1
 1170              		bne	.L74
 1171 0540 0000A0E3 	.L78:
 1172              	.LBB738:
 1173 0544 0231A0E3 	.LBB739:
 1174 0548 022C83E2 		.loc 1 172 0
 1175              		mov	r2, #-2147483648
 609:c:\code\arm\armlib/net\ax88796.c **** 	}
 610:c:\code\arm\armlib/net\ax88796.c **** 	mask8 = 0x10;
 611:c:\code\arm\armlib/net\ax88796.c **** 	for(i=0;i<5;++i)
 612:c:\code\arm\armlib/net\ax88796.c **** 	{
 613:c:\code\arm\armlib/net\ax88796.c **** 		if(mask8 & regad)
 1176              	, #512
 1177 054c 0C0011E1 		ldrb	r3, [r2, #20]	@ zero_extendqisi2
 1178              		orr	r3, r3, #2
 1179              	.LBE739:
 1180              	.LBE738:
 1181 0550 1430D215 	.LBB740:
 1182 0554 08308313 	.LBB741:
 1183              		.loc 1 144 0
 1184              		strb	r3, [r2, #20]
 1185              	.LBE741:
 1186              	.LBE740:
 1187              	.LBB742:
 1188 0558 1430C215 	.LBB743:
 1189              		.loc 1 172 0
 1190              		ldrb	r3, [r2, #20]	@ zero_extendqisi2
 1191              		orr	r3, r3, #1
 1192              	.LBE743:
 1193              	.LBE742:
 1194 055c 1430D205 	.LBB744:
 1195 0560 F7300302 	.LBB745:
 1196              		.loc 1 144 0
 1197              		strb	r3, [r2, #20]
 1198              	.LBE745:
 1199              	.LBE744:
 1200              	.LBB746:
 1201 0564 1430C205 	.LBB747:
 1202              		.loc 1 172 0
 1203              		ldrb	r3, [r2, #20]	@ zero_extendqisi2
 1204              		and	r3, r3, #254
 1205              	.LBE747:
 1206              	.LBE746:
 1207 0568 1430D2E5 	.LBB748:
ARM GAS  C:\DOCUME~1\pstang\LOCALS~1\Temp/cc80aaaa.s 			page 33


 1208 056c 013083E3 	.LBB749:
 1209              		.loc 1 144 0
 1210              		strb	r3, [r2, #20]
 1211              	.LBE749:
 1212              	.LBE748:
 1213              	.LBB750:
 1214 0570 1430C2E5 	.LBB751:
 1215              		.loc 1 172 0
 1216              		ldrb	r3, [r2, #20]	@ zero_extendqisi2
 1217              		orr	r3, r3, #1
 1218              	.LBE751:
 1219              	.LBE750:
 1220 0574 1430D2E5 	.LBB752:
 1221 0578 FE3003E2 	.LBB753:
 1222              		.loc 1 144 0
 1223              		strb	r3, [r2, #20]
 1224              	.LBE753:
 1225              	.LBE752:
 1226              	.LBB754:
 1227 057c 1430C2E5 	.LBB755:
 1228              		.loc 1 172 0
 1229              		ldrb	r3, [r2, #20]	@ zero_extendqisi2
 1230              		and	r3, r3, #254
 1231 0580 013080E2 	.LBE755:
 1232 0584 FF0003E2 	.LBE754:
 1233 0588 050050E3 	.LBB756:
 614:c:\code\arm\armlib/net\ax88796.c **** 			set_mdo;
 615:c:\code\arm\armlib/net\ax88796.c **** 		else
 616:c:\code\arm\armlib/net\ax88796.c **** 			clr_mdo;
 617:c:\code\arm\armlib/net\ax88796.c **** 		mii_clk;
 618:c:\code\arm\armlib/net\ax88796.c **** 		mask8 >>= 1;
 1234              	
 1235 058c ACC0A011 	.LVL33:
 1236 0590 EDFFFF1A 		mov	r0, #0
 1237              	.LVL34:
 1238              		mov	r1, r0
 1239              	.LVL35:
 1240              		mov	r3, #-2147483648
 1241 0594 0221A0E3 		add	lr, r3, #512
 1242 0598 022C82E2 	.LVL36:
 1243 059c 1430D2E5 	.L80:
 1244 05a0 023083E3 	.LBE757:
 1245              	.LBE756:
 1246              	.LBB758:
 1247              	.LBB759:
 1248              		.loc 1 172 0
 1249              		ldrb	r3, [lr, #20]	@ zero_extendqisi2
 1250 05a4 1430C2E5 	.LBE759:
 1251              	.LBE758:
 1252              		.loc 1 628 0
 1253              		tst	r3, #4
 1254              		.loc 1 630 0
 1255              		orrne	r0, r0, ip
 1256 05a8 1430D2E5 		.loc 1 628 0
 1257 05ac 013083E3 		bne	.L83
 1258              		.loc 1 634 0
 1259              		nop
ARM GAS  C:\DOCUME~1\pstang\LOCALS~1\Temp/cc80aaaa.s 			page 34


 1260              	.L83:
 1261              	.LBB760:
 1262              	.LBB761:
 1263 05b0 1430C2E5 		.loc 1 172 0
 1264              		mov	r2, #-2147483648
 1265              		add	r2, r2, #512
 1266              		ldrb	r3, [r2, #20]	@ zero_extendqisi2
 1267              		orr	r3, r3, #1
 1268              	.LBE761:
 1269 05b4 1430D2E5 	.LBE760:
 1270 05b8 FE3003E2 	.LBB762:
 1271              	.LBB763:
 1272              		.loc 1 144 0
 1273              		strb	r3, [r2, #20]
 1274              	.LBE763:
 1275              	.LBE762:
 1276 05bc 1430C2E5 	.LBB764:
 1277              	.LBB765:
 1278              		.loc 1 172 0
 1279              		ldrb	r3, [r2, #20]	@ zero_extendqisi2
 1280              		and	r3, r3, #254
 1281              	.LBE765:
 1282 05c0 1430D2E5 	.LBE764:
 1283 05c4 013083E3 	.LBB766:
 1284              	.LBB767:
 1285              		.loc 1 144 0
 1286              		strb	r3, [r2, #20]
 1287              	.LBE767:
 1288              	.LBE766:
 1289 05c8 1430C2E5 		.loc 1 626 0
 1290              		add	r3, r1, #1
 1291              		and	r1, r3, #255
 1292              		cmp	r1, #16
 1293              		ldreq	pc, [sp], #4
 1294              		.loc 1 638 0
 1295 05cc 1430D2E5 		mov	ip, ip, lsr #1
 1296 05d0 FE3003E2 		b	.L80
 1297              	.LFE21:
 1298              		.size	ax88796ReadMii, .-ax88796ReadMii
 1299              		.section	.rodata.str1.4,"aMS",%progbits,1
 1300              		.align	2
 1301              	.LC0:
 1302 05d4 1430C2E5 		.ascii	"----- AX88796 PHY INFO -----\015\012\000"
 1303 05d8 02C9A0E3 		.align	2
 1304              	.LC1:
 1305 05dc 0000A0E3 		.ascii	"MR 0 (Control)      = 0x\000"
 1306              		.align	2
 1307 05e0 0010A0E1 	.LC2:
 1308              		.ascii	"MR 1 (Status)       = 0x\000"
 1309 05e4 0231A0E3 		.align	2
 1310 05e8 02EC83E2 	.LC3:
 1311              		.ascii	"MR 2 (PHY ID1)      = 0x\000"
 1312              		.align	2
 1313              	.LC4:
 1314              		.ascii	"MR 3 (PHY ID2)      = 0x\000"
 1315              		.align	2
 1316              	.LC5:
ARM GAS  C:\DOCUME~1\pstang\LOCALS~1\Temp/cc80aaaa.s 			page 35


 1317              		.ascii	"MR 4 (AutoNeg Adv)  = 0x\000"
 1318 05ec 1430DEE5 		.align	2
 1319              	.LC6:
 1320              		.ascii	"MR 5 (AutoNeg Abil) = 0x\000"
 619:c:\code\arm\armlib/net\ax88796.c **** 	}
 620:c:\code\arm\armlib/net\ax88796.c ****    			
 621:c:\code\arm\armlib/net\ax88796.c **** 	set_mdir;
 622:c:\code\arm\armlib/net\ax88796.c **** 	mii_r_ta;
 623:c:\code\arm\armlib/net\ax88796.c ****  
 624:c:\code\arm\armlib/net\ax88796.c **** 	mask16 = 0x8000;
 625:c:\code\arm\armlib/net\ax88796.c **** 	result16 = 0x0000;
 626:c:\code\arm\armlib/net\ax88796.c **** 	for(i=0;i<16;++i)
 627:c:\code\arm\armlib/net\ax88796.c **** 	{
 628:c:\code\arm\armlib/net\ax88796.c **** 		if(ax88796Read(MEMR) & 0x04)
 1321              	NextPg Tx)    = 0x\000"
 1322 05f0 040013E3 		.align	2
 629:c:\code\arm\armlib/net\ax88796.c **** 		{
 630:c:\code\arm\armlib/net\ax88796.c **** 			result16 |= mask16;
 1323              	C9:
 1324 05f4 0C008011 		.ascii	"MR16 (PCS Ctrl)     = 0x\000"
 1325              		.align	2
 1326 05f8 0000001A 	.LC10:
 631:c:\code\arm\armlib/net\ax88796.c **** 		}
 632:c:\code\arm\armlib/net\ax88796.c **** 		else
 633:c:\code\arm\armlib/net\ax88796.c **** 		{
 634:c:\code\arm\armlib/net\ax88796.c **** 			asm volatile ("nop");
 1327              	cii	"MR17 (AutoNeg RegA) = 0x\000"
 1328 05fc 0000A0E1 		.align	2
 1329              	.LC11:
 1330              		.ascii	"MR18 (AutoNeg RegB) = 0x\000"
 1331              		.align	2
 1332              	.LC12:
 1333 0600 0221A0E3 		.ascii	"MR19 (Analog Test)  = 0x\000"
 1334 0604 022C82E2 		.align	2
 1335 0608 1430D2E5 	.LC13:
 1336 060c 013083E3 		.ascii	"MR21 (RXERR count)  = 0x\000"
 1337              		.align	2
 1338              	.LC14:
 1339              		.ascii	"MR28 (Status Reg)   = 0x\000"
 1340              		.align	2
 1341              	.LC15:
 1342 0610 1430C2E5 		.ascii	"MR29 (100Mbs Ctrl)  = 0x\000"
 1343              		.align	2
 1344              	.LC16:
 1345              		.ascii	"MR30 (10Mbs Ctrl)   = 0x\000"
 1346              		.align	2
 1347              	.LC17:
 1348 0614 1430D2E5 		.ascii	"MR31 (Quick Status) = 0x\000"
 1349 0618 FE3003E2 		.text
 1350              		.align	2
 1351              		.global	ax88796PhyDump
 1352              		.type	ax88796PhyDump, %function
 1353              	ax88796PhyDump:
 1354              	.LFB23:
 1355 061c 1430C2E5 		.loc 1 707 0
 1356              		@ args = 0, pretend = 0, frame = 0
 1357              		@ frame_needed = 0, uses_anonymous_args = 0
ARM GAS  C:\DOCUME~1\pstang\LOCALS~1\Temp/cc80aaaa.s 			page 36


 1358              		str	lr, [sp, #-4]!
 1359 0620 013081E2 	.LCFI5:
 1360 0624 FF1003E2 		.loc 1 708 0
 1361 0628 100051E3 		ldr	r0, .L89
 1362 062c 04F09D04 		bl	rprintfStr
 635:c:\code\arm\armlib/net\ax88796.c **** 			//break;
 636:c:\code\arm\armlib/net\ax88796.c **** 		}
 637:c:\code\arm\armlib/net\ax88796.c **** 		mii_clk;
 638:c:\code\arm\armlib/net\ax88796.c **** 		mask16 >>= 1;
 1363              	rintfStr
 1364 0630 ACC0A0E1 		mov	r0, #16
 1365 0634 ECFFFFEA 		mov	r1, #0
 1366              		bl	ax88796ReadMii
 1367              		mov	r0, r0, asl #16
 1368              		mov	r0, r0, lsr #16
 1369              		bl	rprintfu16
 1370              		bl	rprintfCRLF
 1371 0000 2D2D2D2D 		.loc 1 710 0
 1371      2D204158 
 1371      38383739 
 1371      36205048 
 1371      5920494E 
 1372 001f 00       		ldr	r0, .L89+8
 1373              		bl	rprintfStr
 1374 0020 4D522030 		mov	r0, #16
 1374      2028436F 
 1374      6E74726F 
 1374      6C292020 
 1374      20202020 
 1375 0039 000000   		mov	r1, #1
 1376              		bl	ax88796ReadMii
 1377 003c 4D522031 		mov	r0, r0, asl #16
 1377      20285374 
 1377      61747573 
 1377      29202020 
 1377      20202020 
 1378 0055 000000   		mov	r0, r0, lsr #16
 1379              		bl	rprintfu16
 1380 0058 4D522032 		bl	rprintfCRLF
 1380      20285048 
 1380      59204944 
 1380      31292020 
 1380      20202020 
 1381 0071 000000   		.loc 1 711 0
 1382              		ldr	r0, .L89+12
 1383 0074 4D522033 		bl	rprintfStr
 1383      20285048 
 1383      59204944 
 1383      32292020 
 1383      20202020 
 1384 008d 000000   		mov	r0, #16
 1385              		mov	r1, #2
 1386 0090 4D522034 		bl	ax88796ReadMii
 1386      20284175 
 1386      746F4E65 
 1386      67204164 
 1386      76292020 
ARM GAS  C:\DOCUME~1\pstang\LOCALS~1\Temp/cc80aaaa.s 			page 37


 1387 00a9 000000   		mov	r0, r0, asl #16
 1388              		mov	r0, r0, lsr #16
 1389 00ac 4D522035 		bl	rprintfu16
 1389      20284175 
 1389      746F4E65 
 1389      67204162 
 1389      696C2920 
 1390 00c5 000000   		bl	rprintfCRLF
 1391              		.loc 1 712 0
 1392 00c8 4D522036 		ldr	r0, .L89+16
 1392      20284175 
 1392      746F4E65 
 1392      67204578 
 1392      70292020 
 1393 00e1 000000   		bl	rprintfStr
 1394              		mov	r0, #16
 1395 00e4 4D522037 		mov	r1, #3
 1395      20284E65 
 1395      78745067 
 1395      20547829 
 1395      20202020 
 1396 00fd 000000   		bl	ax88796ReadMii
 1397              		mov	r0, r0, asl #16
 1398 0100 4D523136 		mov	r0, r0, lsr #16
 1398      20285043 
 1398      53204374 
 1398      726C2920 
 1398      20202020 
 1399 0119 000000   		bl	rprintfu16
 1400              		bl	rprintfCRLF
 1401 011c 4D523137 		.loc 1 713 0
 1401      20284175 
 1401      746F4E65 
 1401      67205265 
 1401      67412920 
 1402 0135 000000   		ldr	r0, .L89+20
 1403              		bl	rprintfStr
 1404 0138 4D523138 		mov	r0, #16
 1404      20284175 
 1404      746F4E65 
 1404      67205265 
 1404      67422920 
 1405 0151 000000   		mov	r1, #4
 1406              		bl	ax88796ReadMii
 1407 0154 4D523139 		mov	r0, r0, asl #16
 1407      2028416E 
 1407      616C6F67 
 1407      20546573 
 1407      74292020 
 1408 016d 000000   		mov	r0, r0, lsr #16
 1409              		bl	rprintfu16
 1410 0170 4D523231 		bl	rprintfCRLF
 1410      20285258 
 1410      45525220 
 1410      636F756E 
 1410      74292020 
 1411 0189 000000   		.loc 1 714 0
ARM GAS  C:\DOCUME~1\pstang\LOCALS~1\Temp/cc80aaaa.s 			page 38


 1412              		ldr	r0, .L89+24
 1413 018c 4D523238 		bl	rprintfStr
 1413      20285374 
 1413      61747573 
 1413      20526567 
 1413      29202020 
 1414 01a5 000000   		mov	r0, #16
 1415              		mov	r1, #5
 1416 01a8 4D523239 		bl	ax88796ReadMii
 1416      20283130 
 1416      304D6273 
 1416      20437472 
 1416      6C292020 
 1417 01c1 000000   		mov	r0, r0, asl #16
 1418              		mov	r0, r0, lsr #16
 1419 01c4 4D523330 		bl	rprintfu16
 1419      20283130 
 1419      4D627320 
 1419      4374726C 
 1419      29202020 
 1420 01dd 000000   		bl	rprintfCRLF
 1421              		.loc 1 715 0
 1422 01e0 4D523331 		ldr	r0, .L89+28
 1422      20285175 
 1422      69636B20 
 1422      53746174 
 1422      75732920 
 1423              		bl	rprintfStr
 1424              		mov	r0, #16
 1425              		mov	r1, #6
 1426              		bl	ax88796ReadMii
 1427              		mov	r0, r0, asl #16
 1428              		mov	r0, r0, lsr #16
 639:c:\code\arm\armlib/net\ax88796.c **** 	}
 640:c:\code\arm\armlib/net\ax88796.c **** 	return result16;
 641:c:\code\arm\armlib/net\ax88796.c **** }
 642:c:\code\arm\armlib/net\ax88796.c **** 
 643:c:\code\arm\armlib/net\ax88796.c **** 
 644:c:\code\arm\armlib/net\ax88796.c **** void ax88796RegDump(void)
 645:c:\code\arm\armlib/net\ax88796.c **** {
 646:c:\code\arm\armlib/net\ax88796.c **** 	unsigned char result;
 647:c:\code\arm\armlib/net\ax88796.c **** 	result = ax88796Read(TR);
 648:c:\code\arm\armlib/net\ax88796.c **** 	
 649:c:\code\arm\armlib/net\ax88796.c **** 	rprintf("Media State: ");
 650:c:\code\arm\armlib/net\ax88796.c **** 	if(!(result & AUTOD))
 651:c:\code\arm\armlib/net\ax88796.c ****    		rprintf("Autonegotiation\r\n");
 652:c:\code\arm\armlib/net\ax88796.c **** 	else if(result & RST_B)
 653:c:\code\arm\armlib/net\ax88796.c ****    		rprintf("PHY in Reset   \r\n");
 654:c:\code\arm\armlib/net\ax88796.c **** 	else if(!(result & RST_10B))
 655:c:\code\arm\armlib/net\ax88796.c **** 		rprintf("10BASE-T       \r\n");
 656:c:\code\arm\armlib/net\ax88796.c **** 	else if(!(result & RST_TXB))
 657:c:\code\arm\armlib/net\ax88796.c **** 		rprintf("100BASE-T      \r\n");
 658:c:\code\arm\armlib/net\ax88796.c **** 				
 659:c:\code\arm\armlib/net\ax88796.c **** 	//rprintf("TR regsiter      : %x\r\n",result);
 660:c:\code\arm\armlib/net\ax88796.c **** 	//result = read_mii(0x10,0);
 661:c:\code\arm\armlib/net\ax88796.c **** 	//rprintf("MII regsiter 0x10: %x\r\n",result);
 662:c:\code\arm\armlib/net\ax88796.c **** 
ARM GAS  C:\DOCUME~1\pstang\LOCALS~1\Temp/cc80aaaa.s 			page 39


 663:c:\code\arm\armlib/net\ax88796.c **** 	rprintfProgStrM("Page0: CR  BNRY PSR PST ISR TSR RSR MMR TR  GPI\r\n");
 664:c:\code\arm\armlib/net\ax88796.c **** 	rprintfProgStrM("       ");
 665:c:\code\arm\armlib/net\ax88796.c **** 	rprintfu08(ax88796Read(CR));
 666:c:\code\arm\armlib/net\ax88796.c **** 	rprintfProgStrM("  ");
 667:c:\code\arm\armlib/net\ax88796.c **** 	rprintfu08(ax88796Read(BNRY));
 668:c:\code\arm\armlib/net\ax88796.c **** 	rprintfProgStrM("   ");
 669:c:\code\arm\armlib/net\ax88796.c **** 	rprintfu08(ax88796Read(PSTART));
 670:c:\code\arm\armlib/net\ax88796.c **** 	rprintfProgStrM("  ");
 671:c:\code\arm\armlib/net\ax88796.c **** 	rprintfu08(ax88796Read(PSTOP));
 672:c:\code\arm\armlib/net\ax88796.c **** 	rprintfProgStrM("  ");
 673:c:\code\arm\armlib/net\ax88796.c **** 	rprintfu08(ax88796Read(ISR));
 674:c:\code\arm\armlib/net\ax88796.c **** 	rprintfProgStrM("  ");
 675:c:\code\arm\armlib/net\ax88796.c **** 	rprintfu08(ax88796Read(TSR));
 676:c:\code\arm\armlib/net\ax88796.c **** 	rprintfProgStrM("  ");
 677:c:\code\arm\armlib/net\ax88796.c **** 	rprintfu08(ax88796Read(RSR));
 678:c:\code\arm\armlib/net\ax88796.c **** 	rprintfProgStrM("  ");
 679:c:\code\arm\armlib/net\ax88796.c **** 	rprintfu08(ax88796Read(MEMR));
 680:c:\code\arm\armlib/net\ax88796.c **** 	rprintfProgStrM("  ");
 681:c:\code\arm\armlib/net\ax88796.c **** 	rprintfu08(ax88796Read(TR));
 682:c:\code\arm\armlib/net\ax88796.c **** 	rprintfProgStrM("  ");
 683:c:\code\arm\armlib/net\ax88796.c **** 	rprintfu08(ax88796Read(GPI));
 684:c:\code\arm\armlib/net\ax88796.c **** 	rprintfCRLF();
 685:c:\code\arm\armlib/net\ax88796.c **** 
 686:c:\code\arm\armlib/net\ax88796.c **** 	ax88796Write(CR,ax88796Read(CR)|PS0);
 687:c:\code\arm\armlib/net\ax88796.c **** 
 688:c:\code\arm\armlib/net\ax88796.c **** 	rprintf("Page1: CR  PAR    CPR\r\n");
 689:c:\code\arm\armlib/net\ax88796.c **** 	rprintfProgStrM("       ");
 690:c:\code\arm\armlib/net\ax88796.c **** 	rprintfu08(ax88796Read(CR));
 691:c:\code\arm\armlib/net\ax88796.c **** 	rprintfProgStrM("  ");
 692:c:\code\arm\armlib/net\ax88796.c **** 	rprintfChar(ax88796Read(PAR0));
 693:c:\code\arm\armlib/net\ax88796.c **** 	rprintfChar(ax88796Read(PAR1));
 694:c:\code\arm\armlib/net\ax88796.c **** 	rprintfChar(ax88796Read(PAR2));
 695:c:\code\arm\armlib/net\ax88796.c **** 	rprintfChar(ax88796Read(PAR3));
 696:c:\code\arm\armlib/net\ax88796.c **** 	rprintfChar(ax88796Read(PAR4));
 697:c:\code\arm\armlib/net\ax88796.c **** 	rprintfChar(ax88796Read(PAR5));
 698:c:\code\arm\armlib/net\ax88796.c **** 	rprintfProgStrM(" ");
 699:c:\code\arm\armlib/net\ax88796.c **** 	rprintfu08(ax88796Read(CPR));
 700:c:\code\arm\armlib/net\ax88796.c **** 	
 701:c:\code\arm\armlib/net\ax88796.c **** 	ax88796Write(CR,ax88796Read(CR)&~PS0);
 702:c:\code\arm\armlib/net\ax88796.c **** 
 703:c:\code\arm\armlib/net\ax88796.c **** 	delay_ms(25);
 704:c:\code\arm\armlib/net\ax88796.c **** }
 705:c:\code\arm\armlib/net\ax88796.c **** 
 706:c:\code\arm\armlib/net\ax88796.c **** void ax88796PhyDump(void)
 707:c:\code\arm\armlib/net\ax88796.c **** {
 1429              	rprintfStr
 1430              		mov	r0, #16
 1431              		mov	r1, #7
 1432 0638 04E02DE5 		bl	ax88796ReadMii
 1433              		mov	r0, r0, asl #16
 708:c:\code\arm\armlib/net\ax88796.c **** 	rprintfProgStrM("----- AX88796 PHY INFO -----\r\n");
 1434              	r0, r0, lsr #16
 1435 063c 68029FE5 		bl	rprintfu16
 1436 0640 FEFFFFEB 		bl	rprintfCRLF
 709:c:\code\arm\armlib/net\ax88796.c **** 	rprintfProgStrM("MR 0 (Control)      = 0x"); rprintfu16( ax88796ReadMii(0x10, 0) ); rprintfCRLF();
 1437              	oc 1 717 0
 1438 0644 64029FE5 		ldr	r0, .L89+36
ARM GAS  C:\DOCUME~1\pstang\LOCALS~1\Temp/cc80aaaa.s 			page 40


 1439 0648 FEFFFFEB 		bl	rprintfStr
 1440 064c 1000A0E3 		mov	r0, #16
 1441 0650 0010A0E3 		mov	r1, r0
 1442 0654 FEFFFFEB 		bl	ax88796ReadMii
 1443 0658 0008A0E1 		mov	r0, r0, asl #16
 1444 065c 2008A0E1 		mov	r0, r0, lsr #16
 1445 0660 FEFFFFEB 		bl	rprintfu16
 1446 0664 FEFFFFEB 		bl	rprintfCRLF
 710:c:\code\arm\armlib/net\ax88796.c **** 	rprintfProgStrM("MR 1 (Status)       = 0x"); rprintfu16( ax88796ReadMii(0x10, 1) ); rprintfCRLF();
 1447              	8 0
 1448 0668 44029FE5 		ldr	r0, .L89+40
 1449 066c FEFFFFEB 		bl	rprintfStr
 1450 0670 1000A0E3 		mov	r0, #16
 1451 0674 0110A0E3 		mov	r1, #17
 1452 0678 FEFFFFEB 		bl	ax88796ReadMii
 1453 067c 0008A0E1 		mov	r0, r0, asl #16
 1454 0680 2008A0E1 		mov	r0, r0, lsr #16
 1455 0684 FEFFFFEB 		bl	rprintfu16
 1456 0688 FEFFFFEB 		bl	rprintfCRLF
 711:c:\code\arm\armlib/net\ax88796.c **** 	rprintfProgStrM("MR 2 (PHY ID1)      = 0x"); rprintfu16( ax88796ReadMii(0x10, 2) ); rprintfCRLF();
 1457              	9 0
 1458 068c 24029FE5 		ldr	r0, .L89+44
 1459 0690 FEFFFFEB 		bl	rprintfStr
 1460 0694 1000A0E3 		mov	r0, #16
 1461 0698 0210A0E3 		mov	r1, #18
 1462 069c FEFFFFEB 		bl	ax88796ReadMii
 1463 06a0 0008A0E1 		mov	r0, r0, asl #16
 1464 06a4 2008A0E1 		mov	r0, r0, lsr #16
 1465 06a8 FEFFFFEB 		bl	rprintfu16
 1466 06ac FEFFFFEB 		bl	rprintfCRLF
 712:c:\code\arm\armlib/net\ax88796.c **** 	rprintfProgStrM("MR 3 (PHY ID2)      = 0x"); rprintfu16( ax88796ReadMii(0x10, 3) ); rprintfCRLF();
 1467              	0 0
 1468 06b0 04029FE5 		ldr	r0, .L89+48
 1469 06b4 FEFFFFEB 		bl	rprintfStr
 1470 06b8 1000A0E3 		mov	r0, #16
 1471 06bc 0310A0E3 		mov	r1, #19
 1472 06c0 FEFFFFEB 		bl	ax88796ReadMii
 1473 06c4 0008A0E1 		mov	r0, r0, asl #16
 1474 06c8 2008A0E1 		mov	r0, r0, lsr #16
 1475 06cc FEFFFFEB 		bl	rprintfu16
 1476 06d0 FEFFFFEB 		bl	rprintfCRLF
 713:c:\code\arm\armlib/net\ax88796.c **** 	rprintfProgStrM("MR 4 (AutoNeg Adv)  = 0x"); rprintfu16( ax88796ReadMii(0x10, 4) ); rprintfCRLF();
 1477              	1 0
 1478 06d4 E4019FE5 		ldr	r0, .L89+52
 1479 06d8 FEFFFFEB 		bl	rprintfStr
 1480 06dc 1000A0E3 		mov	r0, #16
 1481 06e0 0410A0E3 		mov	r1, #21
 1482 06e4 FEFFFFEB 		bl	ax88796ReadMii
 1483 06e8 0008A0E1 		mov	r0, r0, asl #16
 1484 06ec 2008A0E1 		mov	r0, r0, lsr #16
 1485 06f0 FEFFFFEB 		bl	rprintfu16
 1486 06f4 FEFFFFEB 		bl	rprintfCRLF
 714:c:\code\arm\armlib/net\ax88796.c **** 	rprintfProgStrM("MR 5 (AutoNeg Abil) = 0x"); rprintfu16( ax88796ReadMii(0x10, 5) ); rprintfCRLF();
 1487              	2 0
 1488 06f8 C4019FE5 		ldr	r0, .L89+56
 1489 06fc FEFFFFEB 		bl	rprintfStr
 1490 0700 1000A0E3 		mov	r0, #16
ARM GAS  C:\DOCUME~1\pstang\LOCALS~1\Temp/cc80aaaa.s 			page 41


 1491 0704 0510A0E3 		mov	r1, #28
 1492 0708 FEFFFFEB 		bl	ax88796ReadMii
 1493 070c 0008A0E1 		mov	r0, r0, asl #16
 1494 0710 2008A0E1 		mov	r0, r0, lsr #16
 1495 0714 FEFFFFEB 		bl	rprintfu16
 1496 0718 FEFFFFEB 		bl	rprintfCRLF
 715:c:\code\arm\armlib/net\ax88796.c **** 	rprintfProgStrM("MR 6 (AutoNeg Exp)  = 0x"); rprintfu16( ax88796ReadMii(0x10, 6) ); rprintfCRLF();
 1497              	3 0
 1498 071c A4019FE5 		ldr	r0, .L89+60
 1499 0720 FEFFFFEB 		bl	rprintfStr
 1500 0724 1000A0E3 		mov	r0, #16
 1501 0728 0610A0E3 		mov	r1, #29
 1502 072c FEFFFFEB 		bl	ax88796ReadMii
 1503 0730 0008A0E1 		mov	r0, r0, asl #16
 1504 0734 2008A0E1 		mov	r0, r0, lsr #16
 1505 0738 FEFFFFEB 		bl	rprintfu16
 1506 073c FEFFFFEB 		bl	rprintfCRLF
 716:c:\code\arm\armlib/net\ax88796.c **** 	rprintfProgStrM("MR 7 (NextPg Tx)    = 0x"); rprintfu16( ax88796ReadMii(0x10, 7) ); rprintfCRLF();
 1507              	4 0
 1508 0740 84019FE5 		ldr	r0, .L89+64
 1509 0744 FEFFFFEB 		bl	rprintfStr
 1510 0748 1000A0E3 		mov	r0, #16
 1511 074c 0710A0E3 		mov	r1, #30
 1512 0750 FEFFFFEB 		bl	ax88796ReadMii
 1513 0754 0008A0E1 		mov	r0, r0, asl #16
 1514 0758 2008A0E1 		mov	r0, r0, lsr #16
 1515 075c FEFFFFEB 		bl	rprintfu16
 1516 0760 FEFFFFEB 		bl	rprintfCRLF
 717:c:\code\arm\armlib/net\ax88796.c **** 	rprintfProgStrM("MR16 (PCS Ctrl)     = 0x"); rprintfu16( ax88796ReadMii(0x10,16) ); rprintfCRLF();
 1517              	5 0
 1518 0764 64019FE5 		ldr	r0, .L89+68
 1519 0768 FEFFFFEB 		bl	rprintfStr
 1520 076c 1000A0E3 		mov	r0, #16
 1521 0770 0010A0E1 		mov	r1, #31
 1522 0774 FEFFFFEB 		bl	ax88796ReadMii
 1523 0778 0008A0E1 		mov	r0, r0, asl #16
 1524 077c 2008A0E1 		mov	r0, r0, lsr #16
 1525 0780 FEFFFFEB 		bl	rprintfu16
 1526 0784 FEFFFFEB 		bl	rprintfCRLF
 718:c:\code\arm\armlib/net\ax88796.c **** 	rprintfProgStrM("MR17 (AutoNeg RegA) = 0x"); rprintfu16( ax88796ReadMii(0x10,17) ); rprintfCRLF();
 1527              	6 0
 1528 0788 44019FE5 		ldr	pc, [sp], #4
 1529 078c FEFFFFEB 	.L90:
 1530 0790 1000A0E3 		.align	2
 1531 0794 1110A0E3 	.L89:
 1532 0798 FEFFFFEB 		.word	.LC0
 1533 079c 0008A0E1 		.word	.LC1
 1534 07a0 2008A0E1 		.word	.LC2
 1535 07a4 FEFFFFEB 		.word	.LC3
 1536 07a8 FEFFFFEB 		.word	.LC4
 719:c:\code\arm\armlib/net\ax88796.c **** 	rprintfProgStrM("MR18 (AutoNeg RegB) = 0x"); rprintfu16( ax88796ReadMii(0x10,18) ); rprintfCRLF();
 1537              	5
 1538 07ac 24019FE5 		.word	.LC6
 1539 07b0 FEFFFFEB 		.word	.LC7
 1540 07b4 1000A0E3 		.word	.LC8
 1541 07b8 1210A0E3 		.word	.LC9
 1542 07bc FEFFFFEB 		.word	.LC10
ARM GAS  C:\DOCUME~1\pstang\LOCALS~1\Temp/cc80aaaa.s 			page 42


 1543 07c0 0008A0E1 		.word	.LC11
 1544 07c4 2008A0E1 		.word	.LC12
 1545 07c8 FEFFFFEB 		.word	.LC13
 1546 07cc FEFFFFEB 		.word	.LC14
 720:c:\code\arm\armlib/net\ax88796.c **** 	rprintfProgStrM("MR19 (Analog Test)  = 0x"); rprintfu16( ax88796ReadMii(0x10,19) ); rprintfCRLF();
 1547              	15
 1548 07d0 04019FE5 		.word	.LC16
 1549 07d4 FEFFFFEB 		.word	.LC17
 1550 07d8 1000A0E3 	.LFE23:
 1551 07dc 1310A0E3 		.size	ax88796PhyDump, .-ax88796PhyDump
 1552 07e0 FEFFFFEB 		.section	.rodata.str1.4
 1553 07e4 0008A0E1 		.align	2
 1554 07e8 2008A0E1 	.LC18:
 1555 07ec FEFFFFEB 		.ascii	"Media State: \000"
 1556 07f0 FEFFFFEB 		.align	2
 721:c:\code\arm\armlib/net\ax88796.c **** 	rprintfProgStrM("MR21 (RXERR count)  = 0x"); rprintfu16( ax88796ReadMii(0x10,21) ); rprintfCRLF();
 1557              	scii	"Autonegotiation\015\012\000"
 1558 07f4 E4009FE5 		.align	2
 1559 07f8 FEFFFFEB 	.LC20:
 1560 07fc 1000A0E3 		.ascii	"PHY in Reset   \015\012\000"
 1561 0800 1510A0E3 		.align	2
 1562 0804 FEFFFFEB 	.LC21:
 1563 0808 0008A0E1 		.ascii	"10BASE-T       \015\012\000"
 1564 080c 2008A0E1 		.align	2
 1565 0810 FEFFFFEB 	.LC22:
 1566 0814 FEFFFFEB 		.ascii	"100BASE-T      \015\012\000"
 722:c:\code\arm\armlib/net\ax88796.c **** 	rprintfProgStrM("MR28 (Status Reg)   = 0x"); rprintfu16( ax88796ReadMii(0x10,28) ); rprintfCRLF();
 1567              	.LC23:
 1568 0818 C4009FE5 		.ascii	"Page0: CR  BNRY PSR PST ISR TSR RSR MMR TR  GPI\015"
 1569 081c FEFFFFEB 		.ascii	"\012\000"
 1570 0820 1000A0E3 		.align	2
 1571 0824 1C10A0E3 	.LC24:
 1572 0828 FEFFFFEB 		.ascii	"       \000"
 1573 082c 0008A0E1 		.align	2
 1574 0830 2008A0E1 	.LC25:
 1575 0834 FEFFFFEB 		.ascii	"  \000"
 1576 0838 FEFFFFEB 		.align	2
 723:c:\code\arm\armlib/net\ax88796.c **** 	rprintfProgStrM("MR29 (100Mbs Ctrl)  = 0x"); rprintfu16( ax88796ReadMii(0x10,29) ); rprintfCRLF();
 1577              	scii	"   \000"
 1578 083c A4009FE5 		.align	2
 1579 0840 FEFFFFEB 	.LC27:
 1580 0844 1000A0E3 		.ascii	"Page1: CR  PAR    CPR\015\012\000"
 1581 0848 1D10A0E3 		.align	2
 1582 084c FEFFFFEB 	.LC28:
 1583 0850 0008A0E1 		.ascii	" \000"
 1584 0854 2008A0E1 		.text
 1585 0858 FEFFFFEB 		.align	2
 1586 085c FEFFFFEB 		.global	ax88796RegDump
 724:c:\code\arm\armlib/net\ax88796.c **** 	rprintfProgStrM("MR30 (10Mbs Ctrl)   = 0x"); rprintfu16( ax88796ReadMii(0x10,30) ); rprintfCRLF();
 1587              	8796RegDump, %function
 1588 0860 84009FE5 	ax88796RegDump:
 1589 0864 FEFFFFEB 	.LFB22:
 1590 0868 1000A0E3 		.loc 1 645 0
 1591 086c 1E10A0E3 		@ args = 0, pretend = 0, frame = 0
 1592 0870 FEFFFFEB 		@ frame_needed = 0, uses_anonymous_args = 0
 1593 0874 0008A0E1 		stmfd	sp!, {r4, r5, r6, r7, lr}
 1594 0878 2008A0E1 	.LCFI6:
ARM GAS  C:\DOCUME~1\pstang\LOCALS~1\Temp/cc80aaaa.s 			page 43


 1595 087c FEFFFFEB 	.LBB768:
 1596 0880 FEFFFFEB 	.LBB769:
 725:c:\code\arm\armlib/net\ax88796.c **** 	rprintfProgStrM("MR31 (Quick Status) = 0x"); rprintfu16( ax88796ReadMii(0x10,31) ); rprintfCRLF();
 1597              	2 0
 1598 0884 64009FE5 		mov	r3, #-2147483648
 1599 0888 FEFFFFEB 		ldrb	r4, [r3, #533]	@ zero_extendqisi2
 1600 088c 1000A0E3 	.LBE769:
 1601 0890 1F10A0E3 	.LBE768:
 1602 0894 FEFFFFEB 		.loc 1 649 0
 1603 0898 0008A0E1 		mov	r0, #0
 1604 089c 2008A0E1 		ldr	r1, .L101
 1605 08a0 FEFFFFEB 		bl	rprintf1RamRom
 1606 08a4 FEFFFFEB 		.loc 1 650 0
 726:c:\code\arm\armlib/net\ax88796.c **** }
 1607              	4, #255
 1608 08a8 04F09DE4 		ands	r0, r4, #1
 1609              		bne	.L92
 1610              		.loc 1 651 0
 1611              		ldr	r1, .L101+4
 1612 08ac 00000000 		bl	rprintf1RamRom
 1613 08b0 20000000 		b	.L94
 1614 08b4 3C000000 	.L92:
 1615 08b8 58000000 		.loc 1 652 0
 1616 08bc 74000000 		tst	r3, #2
 1617 08c0 90000000 		beq	.L95
 1618 08c4 AC000000 		.loc 1 653 0
 1619 08c8 C8000000 		mov	r0, #0
 1620 08cc E4000000 		ldr	r1, .L101+8
 1621 08d0 00010000 		bl	rprintf1RamRom
 1622 08d4 1C010000 		b	.L94
 1623 08d8 38010000 	.L95:
 1624 08dc 54010000 		.loc 1 654 0
 1625 08e0 70010000 		ands	r0, r3, #4
 1626 08e4 8C010000 		bne	.L97
 1627 08e8 A8010000 		.loc 1 655 0
 1628 08ec C4010000 		ldr	r1, .L101+12
 1629 08f0 E0010000 		bl	rprintf1RamRom
 1630              		b	.L94
 1631              	.L97:
 1632              		.loc 1 656 0
 1633 01f9 000000   		ands	r0, r3, #8
 1634              		.loc 1 657 0
 1635 01fc 4D656469 		ldreq	r1, .L101+16
 1635      61205374 
 1635      6174653A 
 1635      2000
 1636 020a 0000     		bleq	rprintf1RamRom
 1637              	.L94:
 1638 020c 4175746F 		.loc 1 663 0
 1638      6E65676F 
 1638      74696174 
 1638      696F6E0D 
 1638      0A00
 1639 021e 0000     		ldr	r0, .L101+20
 1640              		bl	rprintfStr
 1641 0220 50485920 		.loc 1 664 0
 1641      696E2052 
ARM GAS  C:\DOCUME~1\pstang\LOCALS~1\Temp/cc80aaaa.s 			page 44


 1641      65736574 
 1641      2020200D 
 1641      0A00
 1642 0232 0000     		ldr	r7, .L101+24
 1643              		mov	r0, r7
 1644 0234 31304241 		bl	rprintfStr
 1644      53452D54 
 1644      20202020 
 1644      2020200D 
 1644      0A00
 1645 0246 0000     	.LBB770:
 1646              	.LBB771:
 1647 0248 31303042 		.loc 1 172 0
 1647      4153452D 
 1647      54202020 
 1647      2020200D 
 1647      0A00
 1648 025a 0000     		mov	r5, #-2147483648
 1649              		add	r6, r5, #512
 1650 025c 50616765 		ldrb	r0, [r6, #0]	@ zero_extendqisi2
 1650      303A2043 
 1650      52202042 
 1650      4E525920 
 1650      50535220 
 1651 028c 0A00     	.LBE771:
 1652 028e 0000     	.LBE770:
 1653              		.loc 1 665 0
 1654 0290 20202020 		bl	rprintfu08
 1654      20202000 
 1655              		.loc 1 666 0
 1656              		ldr	r4, .L101+28
 1657 0298 202000   		mov	r0, r4
 1658 029b 00       		bl	rprintfStr
 1659              	.LBB772:
 1660 029c 20202000 	.LBB773:
 1661              		.loc 1 172 0
 1662              		ldrb	r0, [r5, #515]	@ zero_extendqisi2
 1663 02a0 50616765 	.LBE773:
 1663      313A2043 
 1663      52202050 
 1663      41522020 
 1663      20204350 
 1664              	.LBE772:
 1665              		.loc 1 667 0
 1666 02b8 2000     		bl	rprintfu08
 1667 02ba 0000     		.loc 1 668 0
 1668              		ldr	r0, .L101+32
 1669              		bl	rprintfStr
 1670              	.LBB774:
 1671              	.LBB775:
 1672              		.loc 1 172 0
 1673              		ldrb	r0, [r5, #513]	@ zero_extendqisi2
 1674              	.LBE775:
 1675              	.LBE774:
 1676 08f4 F0402DE9 		.loc 1 669 0
 1677              		bl	rprintfu08
 1678              		.loc 1 670 0
ARM GAS  C:\DOCUME~1\pstang\LOCALS~1\Temp/cc80aaaa.s 			page 45


 1679              		mov	r0, r4
 1680              		bl	rprintfStr
 1681 08f8 0231A0E3 	.LBB776:
 1682 08fc 1542D3E5 	.LBB777:
 1683              		.loc 1 172 0
 1684              		ldrb	r0, [r5, #514]	@ zero_extendqisi2
 1685              	.LBE777:
 1686 0900 0000A0E3 	.LBE776:
 1687 0904 94119FE5 		.loc 1 671 0
 1688 0908 FEFFFFEB 		bl	rprintfu08
 1689              		.loc 1 672 0
 1690 090c FF3004E2 		mov	r0, r4
 1691 0910 010014E2 		bl	rprintfStr
 1692 0914 0200001A 	.LBB778:
 1693              	.LBB779:
 1694 0918 84119FE5 		.loc 1 172 0
 1695 091c FEFFFFEB 		ldrb	r0, [r5, #519]	@ zero_extendqisi2
 1696 0920 0D0000EA 	.LBE779:
 1697              	.LBE778:
 1698              		.loc 1 673 0
 1699 0924 020013E3 		bl	rprintfu08
 1700 0928 0300000A 		.loc 1 674 0
 1701              		mov	r0, r4
 1702 092c 0000A0E3 		bl	rprintfStr
 1703 0930 70119FE5 	.LBB780:
 1704 0934 FEFFFFEB 	.LBB781:
 1705 0938 070000EA 		.loc 1 172 0
 1706              		ldrb	r0, [r6, #4]	@ zero_extendqisi2
 1707              	.LBE781:
 1708 093c 040013E2 	.LBE780:
 1709 0940 0200001A 		.loc 1 675 0
 1710              		bl	rprintfu08
 1711 0944 60119FE5 		.loc 1 676 0
 1712 0948 FEFFFFEB 		mov	r0, r4
 1713 094c 020000EA 		bl	rprintfStr
 1714              	.LBB782:
 1715              	.LBB783:
 1716 0950 080013E2 		.loc 1 172 0
 1717              		ldrb	r0, [r6, #12]	@ zero_extendqisi2
 1718 0954 54119F05 	.LBE783:
 1719 0958 FEFFFF0B 	.LBE782:
 1720              		.loc 1 677 0
 1721              		bl	rprintfu08
 1722 095c 50019FE5 		.loc 1 678 0
 1723 0960 FEFFFFEB 		mov	r0, r4
 1724              		bl	rprintfStr
 1725 0964 4C719FE5 	.LBB784:
 1726 0968 0700A0E1 	.LBB785:
 1727 096c FEFFFFEB 		.loc 1 172 0
 1728              		ldrb	r0, [r6, #20]	@ zero_extendqisi2
 1729              	.LBE785:
 1730              	.LBE784:
 1731 0970 0251A0E3 		.loc 1 679 0
 1732 0974 026C85E2 		bl	rprintfu08
 1733 0978 0000D6E5 		.loc 1 680 0
 1734              		mov	r0, r4
 1735              		bl	rprintfStr
ARM GAS  C:\DOCUME~1\pstang\LOCALS~1\Temp/cc80aaaa.s 			page 46


 1736              	.LBB786:
 1737 097c FEFFFFEB 	.LBB787:
 1738              		.loc 1 172 0
 1739 0980 34419FE5 		ldrb	r0, [r5, #533]	@ zero_extendqisi2
 1740 0984 0400A0E1 	.LBE787:
 1741 0988 FEFFFFEB 	.LBE786:
 1742              		.loc 1 681 0
 1743              		bl	rprintfu08
 1744              		.loc 1 682 0
 1745 098c 0302D5E5 		mov	r0, r4
 1746              		bl	rprintfStr
 1747              	.LBB788:
 1748              	.LBB789:
 1749 0990 FEFFFFEB 		.loc 1 172 0
 1750              		ldrb	r0, [r5, #535]	@ zero_extendqisi2
 1751 0994 24019FE5 	.LBE789:
 1752 0998 FEFFFFEB 	.LBE788:
 1753              		.loc 1 683 0
 1754              		bl	rprintfu08
 1755              		.loc 1 684 0
 1756 099c 0102D5E5 		bl	rprintfCRLF
 1757              	.LBB790:
 1758              	.LBB791:
 1759              		.loc 1 172 0
 1760 09a0 FEFFFFEB 		ldrb	r3, [r6, #0]	@ zero_extendqisi2
 1761              		orr	r3, r3, #64
 1762 09a4 0400A0E1 	.LBE791:
 1763 09a8 FEFFFFEB 	.LBE790:
 1764              	.LBB792:
 1765              	.LBB793:
 1766              		.loc 1 144 0
 1767 09ac 0202D5E5 		strb	r3, [r6, #0]
 1768              	.LBE793:
 1769              	.LBE792:
 1770              		.loc 1 688 0
 1771 09b0 FEFFFFEB 		mov	r0, #0
 1772              		ldr	r1, .L101+36
 1773 09b4 0400A0E1 		bl	rprintf1RamRom
 1774 09b8 FEFFFFEB 		.loc 1 689 0
 1775              		mov	r0, r7
 1776              		bl	rprintfStr
 1777              	.LBB794:
 1778 09bc 0702D5E5 	.LBB795:
 1779              		.loc 1 172 0
 1780              		ldrb	r0, [r6, #0]	@ zero_extendqisi2
 1781              	.LBE795:
 1782 09c0 FEFFFFEB 	.LBE794:
 1783              		.loc 1 690 0
 1784 09c4 0400A0E1 		bl	rprintfu08
 1785 09c8 FEFFFFEB 		.loc 1 691 0
 1786              		mov	r0, r4
 1787              		bl	rprintfStr
 1788              	.LBB796:
 1789 09cc 0400D6E5 	.LBB797:
 1790              		.loc 1 172 0
 1791              		ldrb	r0, [r5, #513]	@ zero_extendqisi2
 1792              	.LBE797:
ARM GAS  C:\DOCUME~1\pstang\LOCALS~1\Temp/cc80aaaa.s 			page 47


 1793 09d0 FEFFFFEB 	.LBE796:
 1794              		.loc 1 692 0
 1795 09d4 0400A0E1 		bl	rprintfChar
 1796 09d8 FEFFFFEB 	.LBB798:
 1797              	.LBB799:
 1798              		.loc 1 172 0
 1799              		ldrb	r0, [r5, #514]	@ zero_extendqisi2
 1800 09dc 0C00D6E5 	.LBE799:
 1801              	.LBE798:
 1802              		.loc 1 693 0
 1803              		bl	rprintfChar
 1804 09e0 FEFFFFEB 	.LBB800:
 1805              	.LBB801:
 1806 09e4 0400A0E1 		.loc 1 172 0
 1807 09e8 FEFFFFEB 		ldrb	r0, [r5, #515]	@ zero_extendqisi2
 1808              	.LBE801:
 1809              	.LBE800:
 1810              		.loc 1 694 0
 1811 09ec 1400D6E5 		bl	rprintfChar
 1812              	.LBB802:
 1813              	.LBB803:
 1814              		.loc 1 172 0
 1815 09f0 FEFFFFEB 		ldrb	r0, [r6, #4]	@ zero_extendqisi2
 1816              	.LBE803:
 1817 09f4 0400A0E1 	.LBE802:
 1818 09f8 FEFFFFEB 		.loc 1 695 0
 1819              		bl	rprintfChar
 1820              	.LBB804:
 1821              	.LBB805:
 1822 09fc 1502D5E5 		.loc 1 172 0
 1823              		ldrb	r0, [r5, #517]	@ zero_extendqisi2
 1824              	.LBE805:
 1825              	.LBE804:
 1826 0a00 FEFFFFEB 		.loc 1 696 0
 1827              		bl	rprintfChar
 1828 0a04 0400A0E1 	.LBB806:
 1829 0a08 FEFFFFEB 	.LBB807:
 1830              		.loc 1 172 0
 1831              		ldrb	r0, [r5, #518]	@ zero_extendqisi2
 1832              	.LBE807:
 1833 0a0c 1702D5E5 	.LBE806:
 1834              		.loc 1 697 0
 1835              		bl	rprintfChar
 1836              		.loc 1 698 0
 1837 0a10 FEFFFFEB 		ldr	r0, .L101+40
 1838              		bl	rprintfStr
 1839 0a14 FEFFFFEB 	.LBB808:
 1840              	.LBB809:
 1841              		.loc 1 172 0
 1842              		ldrb	r0, [r5, #519]	@ zero_extendqisi2
 1843 0a18 0030D6E5 	.LBE809:
 1844 0a1c 403083E3 	.LBE808:
 1845              		.loc 1 699 0
 1846              		bl	rprintfu08
 1847              	.LBB810:
 1848              	.LBB811:
 1849              		.loc 1 172 0
ARM GAS  C:\DOCUME~1\pstang\LOCALS~1\Temp/cc80aaaa.s 			page 48


 1850 0a20 0030C6E5 		ldrb	r3, [r6, #0]	@ zero_extendqisi2
 1851              		and	r3, r3, #191
 1852              	.LBE811:
 1853              	.LBE810:
 1854 0a24 0000A0E3 	.LBB812:
 1855 0a28 94109FE5 	.LBB813:
 1856 0a2c FEFFFFEB 		.loc 1 144 0
 1857              		strb	r3, [r6, #0]
 1858 0a30 0700A0E1 	.LBE813:
 1859 0a34 FEFFFFEB 	.LBE812:
 1860              		.loc 1 703 0
 1861              		mov	r0, #25
 1862              		bl	timerPause
 1863 0a38 0000D6E5 		.loc 1 704 0
 1864              		ldmfd	sp!, {r4, r5, r6, r7, pc}
 1865              	.L102:
 1866              		.align	2
 1867 0a3c FEFFFFEB 	.L101:
 1868              		.word	.LC18
 1869 0a40 0400A0E1 		.word	.LC19
 1870 0a44 FEFFFFEB 		.word	.LC20
 1871              		.word	.LC21
 1872              		.word	.LC22
 1873              		.word	.LC23
 1874 0a48 0102D5E5 		.word	.LC24
 1875              		.word	.LC25
 1876              		.word	.LC26
 1877              		.word	.LC27
 1878 0a4c FEFFFFEB 		.word	.LC28
 1879              	.LFE22:
 1880              		.size	ax88796RegDump, .-ax88796RegDump
 1881              		.align	2
 1882 0a50 0202D5E5 		.global	nicRegDump
 1883              		.type	nicRegDump, %function
 1884              	nicRegDump:
 1885              	.LFB7:
 1886 0a54 FEFFFFEB 		.loc 1 107 0
 1887              		@ args = 0, pretend = 0, frame = 0
 1888              		@ frame_needed = 0, uses_anonymous_args = 0
 1889              		str	lr, [sp, #-4]!
 1890 0a58 0302D5E5 	.LCFI7:
 1891              		.loc 1 108 0
 1892              		bl	ax88796RegDump
 1893              		.loc 1 109 0
 1894 0a5c FEFFFFEB 		ldr	pc, [sp], #4
 1895              	.LFE7:
 1896              		.size	nicRegDump, .-nicRegDump
 1897              		.align	2
 1898 0a60 0400D6E5 		.global	ax88796ReceiveOverflowRecover
 1899              		.type	ax88796ReceiveOverflowRecover, %function
 1900              	ax88796ReceiveOverflowRecover:
 1901              	.LFB19:
 1902 0a64 FEFFFFEB 		.loc 1 472 0
 1903              		@ args = 0, pretend = 0, frame = 0
 1904              		@ frame_needed = 0, uses_anonymous_args = 0
 1905              		stmfd	sp!, {r4, r5, lr}
 1906 0a68 0502D5E5 	.LCFI8:
ARM GAS  C:\DOCUME~1\pstang\LOCALS~1\Temp/cc80aaaa.s 			page 49


 1907              	.LBB814:
 1908              	.LBB815:
 1909              		.loc 1 172 0
 1910 0a6c FEFFFFEB 		mov	r5, #-2147483648
 1911              		add	r2, r5, #512
 1912              		ldrb	r4, [r2, #0]	@ zero_extendqisi2
 1913              	.LBE815:
 1914 0a70 0602D5E5 	.LBE814:
 1915              	.LBB816:
 1916              	.LBB817:
 1917              		.loc 1 144 0
 1918 0a74 FEFFFFEB 		mov	r3, #33
 1919              		strb	r3, [r2, #0]
 1920 0a78 48009FE5 	.LBE817:
 1921 0a7c FEFFFFEB 	.LBE816:
 1922              		.loc 1 484 0
 1923              		mov	r0, #2
 1924              		bl	timerPause
 1925 0a80 0702D5E5 	.LBB818:
 1926              	.LBB819:
 1927              		.loc 1 144 0
 1928              		mov	r3, #0
 1929 0a84 FEFFFFEB 		strb	r3, [r5, #522]
 1930              	.LBE819:
 1931              	.LBE818:
 1932              	.LBB820:
 1933 0a88 0030D6E5 	.LBB821:
 1934 0a8c BF3003E2 		strb	r3, [r5, #523]
 1935              	.LBE821:
 1936              	.LBE820:
 1937              		.loc 1 490 0
 1938              		tst	r4, #4
 1939              		beq	.L106
 1940 0a90 0030C6E5 	.LBB822:
 1941              	.LBB823:
 1942              		.loc 1 172 0
 1943              		ldrb	r3, [r5, #519]	@ zero_extendqisi2
 1944 0a94 1900A0E3 	.LBE823:
 1945 0a98 FEFFFFEB 	.LBE822:
 1946              		.loc 1 494 0
 1947 0a9c F080BDE8 		tst	r3, #6
 1948              		beq	.L108
 1949              	.L106:
 1950              	.LBB824:
 1951 0aa0 FC010000 	.LBB825:
 1952 0aa4 0C020000 		.loc 1 144 0
 1953 0aa8 20020000 		mov	r2, #-2147483648
 1954 0aac 34020000 		add	r1, r2, #512
 1955 0ab0 48020000 		mov	r3, #2
 1956 0ab4 5C020000 		strb	r3, [r2, #525]
 1957 0ab8 90020000 	.LBE825:
 1958 0abc 98020000 	.LBE824:
 1959 0ac0 9C020000 	.LBB826:
 1960 0ac4 A0020000 	.LBB827:
 1961 0ac8 B8020000 		mov	r0, #34
 1962              		strb	r0, [r1, #0]
 1963              	.LBE827:
ARM GAS  C:\DOCUME~1\pstang\LOCALS~1\Temp/cc80aaaa.s 			page 50


 1964              	.LBE826:
 1965              	.LBB828:
 1966              	.LBB829:
 1967              		add	r3, r3, #68
 1968              		strb	r3, [r2, #515]
 1969              	.LBE829:
 1970              	.LBE828:
 1971              	.LBB830:
 1972 0acc 04E02DE5 	.LBB831:
 1973              		add	r3, r3, #28
 1974              		strb	r3, [r1, #0]
 1975 0ad0 FEFFFFEB 	.LBE831:
 1976              	.LBE830:
 1977 0ad4 04F09DE4 	.LBB832:
 1978              	.LBB833:
 1979              		sub	r3, r3, #27
 1980              		strb	r3, [r2, #519]
 1981              	.LBE833:
 1982              	.LBE832:
 1983              	.LBB834:
 1984              	.LBB835:
 1985              		strb	r0, [r1, #0]
 1986              	.LBE835:
 1987              	.LBE834:
 1988 0ad8 30402DE9 	.LBB836:
 1989              	.LBB837:
 1990              		sub	r3, r3, #55
 1991              		strb	r3, [r2, #519]
 1992              	.LBE837:
 1993 0adc 0251A0E3 	.LBE836:
 1994 0ae0 022C85E2 	.LBB838:
 1995 0ae4 0040D2E5 	.LBB839:
 1996              		sub	r3, r3, #16
 1997              		strb	r3, [r2, #525]
 1998              		ldmfd	sp!, {r4, r5, pc}
 1999              	.L108:
 2000              	.LBE839:
 2001 0ae8 2130A0E3 	.LBE838:
 2002 0aec 0030C2E5 	.LBB840:
 2003              	.LBB841:
 2004              		mov	r2, #-2147483648
 2005              		add	r1, r2, #512
 2006 0af0 0200A0E3 		mov	r3, #2
 2007 0af4 FEFFFFEB 		strb	r3, [r2, #525]
 2008              	.LBE841:
 2009              	.LBE840:
 2010              	.LBB842:
 2011 0af8 0030A0E3 	.LBB843:
 2012 0afc 0A32C5E5 		mov	r0, #34
 2013              		strb	r0, [r1, #0]
 2014              	.LBE843:
 2015              	.LBE842:
 2016              	.LBB844:
 2017 0b00 0B32C5E5 	.LBB845:
 2018              		add	r3, r3, #68
 2019              		strb	r3, [r2, #515]
 2020              	.LBE845:
ARM GAS  C:\DOCUME~1\pstang\LOCALS~1\Temp/cc80aaaa.s 			page 51


 2021 0b04 040014E3 	.LBE844:
 2022 0b08 0200000A 	.LBB846:
 2023              	.LBB847:
 2024              		add	r3, r3, #28
 2025              		strb	r3, [r1, #0]
 2026 0b0c 0732D5E5 	.LBE847:
 2027              	.LBE846:
 2028              	.LBB848:
 2029              	.LBB849:
 2030 0b10 060013E3 		sub	r3, r3, #27
 2031 0b14 1100000A 		strb	r3, [r2, #519]
 2032              	.LBE849:
 2033              	.LBE848:
 2034              	.LBB850:
 2035              	.LBB851:
 2036 0b18 0221A0E3 		strb	r0, [r1, #0]
 2037 0b1c 021C82E2 	.LBE851:
 2038 0b20 0230A0E3 	.LBE850:
 2039 0b24 0D32C2E5 	.LBB852:
 2040              	.LBB853:
 2041              		sub	r3, r3, #55
 2042              		strb	r3, [r2, #519]
 2043              	.LBE853:
 2044 0b28 2200A0E3 	.LBE852:
 2045 0b2c 0000C1E5 	.LBB854:
 2046              	.LBB855:
 2047              		sub	r3, r3, #16
 2048              		strb	r3, [r2, #525]
 2049              	.LBE855:
 2050 0b30 443083E2 	.LBE854:
 2051 0b34 0332C2E5 	.LBB856:
 2052              	.LBB857:
 2053              		add	r3, r3, #38
 2054              		strb	r3, [r1, #0]
 2055              		ldmfd	sp!, {r4, r5, pc}
 2056 0b38 1C3083E2 	.LBE857:
 2057 0b3c 0030C1E5 	.LBE856:
 2058              	.LFE19:
 2059              		.size	ax88796ReceiveOverflowRecover, .-ax88796ReceiveOverflowRecover
 2060              		.align	2
 2061              		.global	ax88796ProcessInterrupt
 2062 0b40 1B3043E2 		.type	ax88796ProcessInterrupt, %function
 2063 0b44 0732C2E5 	ax88796ProcessInterrupt:
 2064              	.LFB18:
 2065              		.loc 1 462 0
 2066              		@ args = 0, pretend = 0, frame = 0
 2067              		@ frame_needed = 0, uses_anonymous_args = 0
 2068 0b48 0000C1E5 		str	lr, [sp, #-4]!
 2069              	.LCFI9:
 2070              	.LBB858:
 2071              	.LBB859:
 2072              		.loc 1 172 0
 2073 0b4c 373043E2 		mov	r3, #-2147483648
 2074 0b50 0732C2E5 		ldrb	r3, [r3, #519]	@ zero_extendqisi2
 2075              	.LBE859:
 2076              	.LBE858:
 2077              		.loc 1 466 0
ARM GAS  C:\DOCUME~1\pstang\LOCALS~1\Temp/cc80aaaa.s 			page 52


 2078              		tst	r3, #16
 2079 0b54 103043E2 		ldreq	pc, [sp], #4
 2080 0b58 0D32C2E5 		.loc 1 467 0
 2081 0b5c 3080BDE8 		bl	ax88796ReceiveOverflowRecover
 2082              		ldr	pc, [sp], #4
 2083              	.LFE18:
 2084              		.size	ax88796ProcessInterrupt, .-ax88796ProcessInterrupt
 2085              		.align	2
 2086              		.global	ax88796BeginPacketRetreive
 2087 0b60 0221A0E3 		.type	ax88796BeginPacketRetreive, %function
 2088 0b64 021C82E2 	ax88796BeginPacketRetreive:
 2089 0b68 0230A0E3 	.LFB15:
 2090 0b6c 0D32C2E5 		.loc 1 336 0
 2091              		@ args = 0, pretend = 0, frame = 4
 2092              		@ frame_needed = 0, uses_anonymous_args = 0
 2093              		str	lr, [sp, #-4]!
 2094              	.LCFI10:
 2095 0b70 2200A0E3 		sub	sp, sp, #4
 2096 0b74 0000C1E5 	.LCFI11:
 2097              		.loc 1 346 0
 2098              		bl	ax88796ProcessInterrupt
 2099              	.LBB860:
 2100              	.LBB861:
 2101 0b78 443083E2 		.loc 1 144 0
 2102 0b7c 0332C2E5 		mov	r2, #-2147483648
 2103              		add	r1, r2, #512
 2104              		mov	r3, #98
 2105              		strb	r3, [r1, #0]
 2106              	.LBE861:
 2107 0b80 1C3083E2 	.LBE860:
 2108 0b84 0030C1E5 	.LBB862:
 2109              	.LBB863:
 2110              		.loc 1 172 0
 2111              		ldrb	r0, [r2, #519]	@ zero_extendqisi2
 2112              	.LBE863:
 2113 0b88 1B3043E2 	.LBE862:
 2114 0b8c 0732C2E5 	.LBB864:
 2115              	.LBB865:
 2116              		.loc 1 144 0
 2117              		sub	r3, r3, #64
 2118              		strb	r3, [r1, #0]
 2119 0b90 0000C1E5 	.LBE865:
 2120              	.LBE864:
 2121              	.LBB866:
 2122              	.LBB867:
 2123              		.loc 1 172 0
 2124 0b94 373043E2 		ldrb	r3, [r2, #515]	@ zero_extendqisi2
 2125 0b98 0732C2E5 	.LBE867:
 2126              	.LBE866:
 2127              		.loc 1 353 0
 2128              		and	r2, r3, #255
 2129              	.LVL37:
 2130 0b9c 103043E2 		.loc 1 356 0
 2131 0ba0 0D32C2E5 		add	r3, r2, #1
 2132              		and	ip, r3, #255
 2133              	.LVL38:
 2134              		.loc 1 357 0
ARM GAS  C:\DOCUME~1\pstang\LOCALS~1\Temp/cc80aaaa.s 			page 53


 2135              		cmp	ip, #95
 2136 0ba4 263083E2 		movhi	ip, #70
 2137 0ba8 0030C1E5 		.loc 1 360 0
 2138 0bac 3080BDE8 		cmp	r0, ip
 2139              		beq	.L118
 2140              	.LBB868:
 2141              	.LBB869:
 2142              		.loc 1 144 0
 2143              		sub	r1, r1, #512
 2144              		add	r0, r1, #512
 2145              		mov	r3, #1
 2146              		strb	r3, [r1, #519]
 2147              	.LBE869:
 2148              	.LBE868:
 2149              		.loc 1 370 0
 2150              		sub	r3, r2, #70
 2151 0bb0 04E02DE5 		cmp	r3, #25
 2152              		bls	.L120
 2153              	.LBB870:
 2154              	.LBB871:
 2155              		.loc 1 144 0
 2156 0bb4 0231A0E3 		mov	r3, #70
 2157 0bb8 0732D3E5 		strb	r3, [r1, #515]
 2158              	.LBE871:
 2159              	.LBE870:
 2160              	.LBB872:
 2161 0bbc 100013E3 	.LBB873:
 2162 0bc0 04F09D04 		add	r3, r3, #28
 2163              		strb	r3, [r0, #0]
 2164 0bc4 FEFFFFEB 	.LBE873:
 2165 0bc8 04F09DE4 	.LBE872:
 2166              	.LBB874:
 2167              	.LBB875:
 2168              		sub	r3, r3, #27
 2169              		strb	r3, [r1, #519]
 2170              	.LBE875:
 2171              	.LBE874:
 2172              	.LBB876:
 2173              	.LBB877:
 2174              		sub	r3, r3, #37
 2175              		strb	r3, [r0, #0]
 2176 0bcc 04E02DE5 		mov	r0, #0
 2177              		b	.L122
 2178 0bd0 04D04DE2 	.L120:
 2179              	.LBE877:
 2180              	.LBE876:
 2181 0bd4 FEFFFFEB 	.LBB878:
 2182              	.LBB879:
 2183              		mov	r1, #-2147483648
 2184              		add	r2, r1, #512
 2185 0bd8 0221A0E3 	.LVL39:
 2186 0bdc 021C82E2 		mov	r3, #4
 2187 0be0 6230A0E3 		strb	r3, [r1, #522]
 2188 0be4 0030C1E5 	.LBE879:
 2189              	.LBE878:
 2190              	.LBB880:
 2191              	.LBB881:
ARM GAS  C:\DOCUME~1\pstang\LOCALS~1\Temp/cc80aaaa.s 			page 54


 2192              		mov	r0, #0
 2193              		strb	r0, [r1, #523]
 2194 0be8 0702D2E5 	.LBE881:
 2195              	.LBE880:
 2196              	.LBB882:
 2197              	.LBB883:
 2198              		strb	r0, [r2, #8]
 2199              	.LBE883:
 2200 0bec 403043E2 	.LBE882:
 2201 0bf0 0030C1E5 		.loc 1 385 0
 2202              		mov	lr, ip
 2203              	.LVL40:
 2204              		and	r3, ip, #255
 2205              	.LVL41:
 2206              	.LBB884:
 2207 0bf4 0332D2E5 	.LBB885:
 2208              		.loc 1 144 0
 2209              		strb	r3, [r1, #521]
 2210              	.LBE885:
 2211 0bf8 FF2003E2 	.LBE884:
 2212              	.LBB886:
 2213              	.LBB887:
 2214 0bfc 013082E2 		mov	r3, #10
 2215 0c00 FFC003E2 	.LVL42:
 2216              		strb	r3, [r2, #0]
 2217              	.LBE887:
 2218 0c04 5F005CE3 	.LBE886:
 2219 0c08 46C0A083 	.LBB888:
 2220              	.LBB889:
 2221 0c0c 0C0050E1 		.loc 1 172 0
 2222 0c10 3F00000A 		ldrb	r3, [r2, #16]	@ zero_extendqisi2
 2223              	.LBE889:
 2224              	.LBE888:
 2225              		.loc 1 388 0
 2226 0c14 021C41E2 		strb	r3, [sp, #0]
 2227 0c18 020C81E2 	.LBB890:
 2228 0c1c 0130A0E3 	.LBB891:
 2229 0c20 0732C1E5 		.loc 1 172 0
 2230              		ldrb	r3, [r2, #16]	@ zero_extendqisi2
 2231              	.LBE891:
 2232              	.LBE890:
 2233 0c24 463042E2 		.loc 1 388 0
 2234 0c28 190053E3 		strb	r3, [sp, #1]
 2235 0c2c 0900009A 	.LBB892:
 2236              	.LBB893:
 2237              		.loc 1 172 0
 2238              		ldrb	r3, [r2, #16]	@ zero_extendqisi2
 2239 0c30 4630A0E3 	.LBE893:
 2240 0c34 0332C1E5 	.LBE892:
 2241              		.loc 1 388 0
 2242              		strb	r3, [sp, #2]
 2243              	.LBB894:
 2244              	.LBB895:
 2245 0c38 1C3083E2 		.loc 1 172 0
 2246 0c3c 0030C0E5 		ldrb	r3, [r2, #16]	@ zero_extendqisi2
 2247              	.LBE895:
 2248              	.LBE894:
ARM GAS  C:\DOCUME~1\pstang\LOCALS~1\Temp/cc80aaaa.s 			page 55


 2249              		.loc 1 388 0
 2250              		and	ip, r3, #255
 2251 0c40 1B3043E2 		strb	ip, [sp, #3]
 2252 0c44 0732C1E5 	.LBB896:
 2253              	.LBB897:
 2254              		.loc 1 144 0
 2255              		mov	r3, #34
 2256              		strb	r3, [r2, #0]
 2257 0c48 253043E2 		mov	r2, r1
 2258 0c4c 0030C0E5 	.LVL43:
 2259 0c50 0000A0E3 	.L123:
 2260 0c54 2F0000EA 	.LBE897:
 2261              	.LBE896:
 2262              	.LBB898:
 2263              	.LBB899:
 2264              		.loc 1 172 0
 2265              		ldrb	r3, [r2, #519]	@ zero_extendqisi2
 2266 0c58 0211A0E3 	.LBE899:
 2267 0c5c 022C81E2 	.LBE898:
 2268              		.loc 1 393 0
 2269 0c60 0430A0E3 		tst	r3, #64
 2270 0c64 0A32C1E5 		bne	.L124
 2271              		.loc 1 392 0
 2272              		add	r3, r0, #1
 2273              		and	r0, r3, #255
 2274              		cmp	r0, #21
 2275 0c68 0000A0E3 		bne	.L123
 2276 0c6c 0B02C1E5 	.L124:
 2277              	.LBB900:
 2278              	.LBB901:
 2279              		.loc 1 144 0
 2280              		mov	r2, #64
 2281 0c70 0800C2E5 		mov	r3, #-2147483648
 2282              		strb	r2, [r3, #519]
 2283              	.LBE901:
 2284              	.LBE900:
 2285 0c74 0CE0A0E1 		.loc 1 397 0
 2286              		ldrb	r0, [sp, #2]	@ zero_extendqisi2
 2287 0c78 FF300CE2 	.LVL44:
 2288              		.loc 1 398 0
 2289              		ldrb	r1, [sp, #1]	@ zero_extendqisi2
 2290              		ldr	r3, .L129
 2291              		strb	r1, [r3, #0]
 2292 0c7c 0932C1E5 		.loc 1 400 0
 2293              		mov	r3, lr, asl #8
 2294              		add	r3, r3, #4
 2295              		ldr	r2, .L129+4
 2296              		str	r3, [r2, #0]
 2297 0c80 0A30A0E3 		.loc 1 403 0
 2298              		sub	r1, r1, #70
 2299 0c84 0030C2E5 		cmp	r1, #25
 2300              		.loc 1 410 0
 2301              		addls	r3, r0, ip, asl #8
 2302              		subls	r0, r3, #4
 2303              		.loc 1 403 0
 2304              		bls	.L122
 2305 0c88 1030D2E5 	.LVL45:
ARM GAS  C:\DOCUME~1\pstang\LOCALS~1\Temp/cc80aaaa.s 			page 56


 2306              	.L118:
 2307              		.loc 1 410 0
 2308              		mov	r0, #0
 2309 0c8c 0030CDE5 	.L122:
 2310              		.loc 1 411 0
 2311              		add	sp, sp, #4
 2312              		ldmfd	sp!, {pc}
 2313 0c90 1030D2E5 	.L130:
 2314              		.align	2
 2315              	.L129:
 2316              		.word	NextPage
 2317 0c94 0130CDE5 		.word	CurrentRetreiveAddress
 2318              	.LFE15:
 2319              		.size	ax88796BeginPacketRetreive, .-ax88796BeginPacketRetreive
 2320              		.align	2
 2321 0c98 1030D2E5 		.global	nicPoll
 2322              		.type	nicPoll, %function
 2323              	nicPoll:
 2324              	.LFB4:
 2325 0c9c 0230CDE5 		.loc 1 49 0
 2326              		@ args = 0, pretend = 0, frame = 0
 2327              		@ frame_needed = 0, uses_anonymous_args = 0
 2328              	.LVL46:
 2329 0ca0 1030D2E5 		stmfd	sp!, {r4, r5, r6, lr}
 2330              	.LCFI12:
 2331              		mov	r5, r0
 2332              		mov	r6, r1
 2333 0ca4 FFC003E2 		.loc 1 52 0
 2334 0ca8 03C0CDE5 		bl	ax88796BeginPacketRetreive
 2335              	.LVL47:
 2336              		.loc 1 55 0
 2337              		subs	r4, r0, #0
 2338 0cac 2230A0E3 	.LVL48:
 2339 0cb0 0030C2E5 		beq	.L132
 2340 0cb4 0120A0E1 		.loc 1 59 0
 2341              		cmp	r4, r5
 2342              		bls	.L134
 2343              		.loc 1 61 0
 2344              		bl	ax88796EndPacketRetreive
 2345              		mov	r4, #0
 2346              		b	.L132
 2347              	.L134:
 2348 0cb8 0732D2E5 		.loc 1 66 0
 2349              		mov	r0, r6
 2350              		mov	r1, r4
 2351              		bl	ax88796RetreivePacketData
 2352 0cbc 400013E3 		.loc 1 67 0
 2353 0cc0 0300001A 		bl	ax88796EndPacketRetreive
 2354              	.L132:
 2355 0cc4 013080E2 		.loc 1 70 0
 2356 0cc8 FF0003E2 		mov	r0, r4
 2357 0ccc 150050E3 		ldmfd	sp!, {r4, r5, r6, pc}
 2358 0cd0 F8FFFF1A 	.LFE4:
 2359              		.size	nicPoll, .-nicPoll
 2360              		.align	2
 2361              		.global	ax88796Init
 2362              		.type	ax88796Init, %function
ARM GAS  C:\DOCUME~1\pstang\LOCALS~1\Temp/cc80aaaa.s 			page 57


 2363 0cd4 4020A0E3 	ax88796Init:
 2364 0cd8 0231A0E3 	.LFB11:
 2365 0cdc 0722C3E5 		.loc 1 198 0
 2366              		@ args = 0, pretend = 0, frame = 0
 2367              		@ frame_needed = 0, uses_anonymous_args = 0
 2368              		stmfd	sp!, {r4, r5, lr}
 2369 0ce0 0200DDE5 	.LCFI13:
 2370              	.LBB902:
 2371              	.LBB903:
 2372 0ce4 0110DDE5 		.loc 1 172 0
 2373 0ce8 30309FE5 		mov	r4, #-2147483648
 2374 0cec 0010C3E5 		ldrb	r3, [r4, #519]	@ zero_extendqisi2
 2375              		and	r3, r3, #255
 2376 0cf0 0E34A0E1 	.LBE903:
 2377 0cf4 043083E2 	.LBE902:
 2378 0cf8 24209FE5 	.LBB904:
 2379 0cfc 003082E5 	.LBB905:
 2380              		.loc 1 144 0
 2381 0d00 461041E2 		strb	r3, [r4, #519]
 2382 0d04 190051E3 	.LBE905:
 2383              	.LBE904:
 2384 0d08 0C348090 		.loc 1 211 0
 2385 0d0c 04004392 		mov	r0, #50
 2386              		bl	timerPause
 2387 0d10 0000009A 	.LBB906:
 2388              	.LBB907:
 2389              		.loc 1 172 0
 2390              		ldrb	r3, [r4, #543]	@ zero_extendqisi2
 2391 0d14 0000A0E3 		mov	r2, r4
 2392              	.L138:
 2393              	.LBE907:
 2394 0d18 04D08DE2 	.LBE906:
 2395 0d1c 0080BDE8 	.LBB908:
 2396              	.LBB909:
 2397              		ldrb	r3, [r2, #533]	@ zero_extendqisi2
 2398              	.LBE909:
 2399 0d20 00000000 	.LBE908:
 2400 0d24 04000000 		.loc 1 215 0
 2401              		tst	r3, #2
 2402              		bne	.L138
 2403              	.LBB910:
 2404              	.LBB911:
 2405              		.loc 1 172 0
 2406              		ldrb	r3, [r2, #533]	@ zero_extendqisi2
 2407              	.LBE911:
 2408              	.LBE910:
 2409              		.loc 1 219 0
 2410              		ands	r4, r3, #1
 2411              		bne	.L140
 2412 0d28 70402DE9 		.loc 1 221 0
 2413              		mov	r0, #16
 2414 0d2c 0050A0E1 		mov	r1, r4
 2415 0d30 0160A0E1 		mov	r2, #2048
 2416              		bl	ax88796WriteMii
 2417 0d34 FEFFFFEB 		.loc 1 222 0
 2418              		mov	r0, #2496
 2419              		add	r0, r0, #4
ARM GAS  C:\DOCUME~1\pstang\LOCALS~1\Temp/cc80aaaa.s 			page 58


 2420 0d38 004050E2 		bl	timerPause
 2421              		.loc 1 223 0
 2422 0d3c 0800000A 		mov	r0, #16
 2423              		mov	r1, r4
 2424 0d40 050054E1 		mov	r2, #4608
 2425 0d44 0200009A 		bl	ax88796WriteMii
 2426              	.L140:
 2427 0d48 FEFFFFEB 	.LBB912:
 2428 0d4c 0040A0E3 	.LBB913:
 2429 0d50 030000EA 		.loc 1 144 0
 2430              		mov	r4, #-2147483648
 2431              		add	r5, r4, #512
 2432 0d54 0600A0E1 		mov	r3, #33
 2433 0d58 0410A0E1 		strb	r3, [r5, #0]
 2434 0d5c FEFFFFEB 	.LBE913:
 2435              	.LBE912:
 2436 0d60 FEFFFFEB 		.loc 1 227 0
 2437              		mov	r0, #5
 2438              		bl	timerPause
 2439 0d64 0400A0E1 	.LBB914:
 2440 0d68 7080BDE8 	.LBB915:
 2441              		.loc 1 144 0
 2442              		mov	r3, #0
 2443              		strb	r3, [r4, #526]
 2444              	.LBE915:
 2445              	.LBE914:
 2446              	.LBB916:
 2447              	.LBB917:
 2448              		strb	r3, [r4, #522]
 2449              	.LBE917:
 2450              	.LBE916:
 2451 0d6c 30402DE9 	.LBB918:
 2452              	.LBB919:
 2453              		strb	r3, [r4, #523]
 2454              	.LBE919:
 2455              	.LBE918:
 2456 0d70 0241A0E3 	.LBB920:
 2457 0d74 0732D4E5 	.LBB921:
 2458 0d78 FF3003E2 		strb	r3, [r4, #527]
 2459              	.LBE921:
 2460              	.LBE920:
 2461              	.LBB922:
 2462              	.LBB923:
 2463              		sub	r3, r3, #1
 2464 0d7c 0732C4E5 		strb	r3, [r4, #519]
 2465              	.LBE923:
 2466              	.LBE922:
 2467              	.LBB924:
 2468 0d80 3200A0E3 	.LBB925:
 2469 0d84 FEFFFFEB 		add	r3, r3, #33
 2470              		strb	r3, [r5, #12]
 2471              	.LBE925:
 2472              	.LBE924:
 2473 0d88 1F32D4E5 	.LBB926:
 2474 0d8c 0420A0E1 	.LBB927:
 2475              		mov	r2, #70
 2476              		strb	r2, [r4, #515]
ARM GAS  C:\DOCUME~1\pstang\LOCALS~1\Temp/cc80aaaa.s 			page 59


 2477              	.LBE927:
 2478              	.LBE926:
 2479              	.LBB928:
 2480 0d90 1532D2E5 	.LBB929:
 2481              		strb	r2, [r4, #513]
 2482              	.LBE929:
 2483              	.LBE928:
 2484 0d94 020013E3 	.LBB930:
 2485 0d98 FCFFFF1A 	.LBB931:
 2486              		add	r3, r3, #64
 2487              		strb	r3, [r4, #514]
 2488              	.LBE931:
 2489 0d9c 1532D2E5 	.LBE930:
 2490              	.LBB932:
 2491              	.LBB933:
 2492              		add	r3, r3, #1
 2493 0da0 014013E2 		strb	r3, [r5, #0]
 2494 0da4 0A00001A 	.LBE933:
 2495              	.LBE932:
 2496 0da8 1000A0E3 	.LBB934:
 2497 0dac 0410A0E1 	.LBB935:
 2498 0db0 022BA0E3 		sub	r3, r3, #49
 2499 0db4 FEFFFFEB 		strb	r3, [r4, #513]
 2500              	.LBE935:
 2501 0db8 270DA0E3 	.LBE934:
 2502 0dbc 040080E2 	.LBB936:
 2503 0dc0 FEFFFFEB 	.LBB937:
 2504              		strb	r2, [r4, #514]
 2505 0dc4 1000A0E3 	.LBE937:
 2506 0dc8 0410A0E1 	.LBE936:
 2507 0dcc 122CA0E3 	.LBB938:
 2508 0dd0 FEFFFFEB 	.LBB939:
 2509              		strb	r2, [r4, #515]
 2510              	.LBE939:
 2511              	.LBE938:
 2512              	.LBB940:
 2513 0dd4 0241A0E3 	.LBB941:
 2514 0dd8 025C84E2 		add	r3, r3, #25
 2515 0ddc 2130A0E3 		strb	r3, [r5, #4]
 2516 0de0 0030C5E5 	.LBE941:
 2517              	.LBE940:
 2518              	.LBB942:
 2519              	.LBB943:
 2520 0de4 0500A0E3 		sub	r3, r3, #6
 2521 0de8 FEFFFFEB 		strb	r3, [r4, #517]
 2522              	.LBE943:
 2523              	.LBE942:
 2524              	.LBB944:
 2525 0dec 0030A0E3 	.LBB945:
 2526 0df0 0E32C4E5 		add	r3, r3, #2
 2527              		strb	r3, [r4, #518]
 2528              	.LBE945:
 2529              	.LBE944:
 2530              	.LBB946:
 2531 0df4 0A32C4E5 	.LBB947:
 2532              		add	r3, r3, #2
 2533              		strb	r3, [r4, #519]
ARM GAS  C:\DOCUME~1\pstang\LOCALS~1\Temp/cc80aaaa.s 			page 60


 2534              	.LBE947:
 2535              	.LBE946:
 2536 0df8 0B32C4E5 	.LBB948:
 2537              	.LBB949:
 2538              		sub	r3, r3, #37
 2539              		strb	r3, [r5, #0]
 2540              	.LBE949:
 2541 0dfc 0F32C4E5 	.LBE948:
 2542              	.LBB950:
 2543              	.LBB951:
 2544              		add	r3, r3, #34
 2545              		strb	r3, [r5, #12]
 2546 0e00 013043E2 	.LBE951:
 2547 0e04 0732C4E5 	.LBE950:
 2548              	.LBB952:
 2549              	.LBB953:
 2550              		.loc 1 172 0
 2551              		ldrb	r3, [r4, #535]	@ zero_extendqisi2
 2552 0e08 213083E2 	.LBE953:
 2553 0e0c 0C30C5E5 	.LBE952:
 2554              		.loc 1 253 0
 2555              		tst	r3, #4
 2556              		movne	r0, #128
 2557              		moveq	r0, #0
 2558 0e10 4620A0E3 	.LVL49:
 2559 0e14 0322C4E5 	.LBB954:
 2560              	.LBB955:
 2561              		.loc 1 144 0
 2562              		add	r1, r4, #512
 2563              		strb	r0, [r4, #525]
 2564 0e18 0122C4E5 	.LBE955:
 2565              	.LBE954:
 2566              	.LBB956:
 2567              	.LBB957:
 2568              		mov	r3, #16
 2569 0e1c 403083E2 		strb	r3, [r4, #535]
 2570 0e20 0232C4E5 	.LBE957:
 2571              	.LBE956:
 2572              	.LBB958:
 2573              	.LBB959:
 2574              		add	r3, r3, #48
 2575 0e24 013083E2 		strb	r3, [r1, #4]
 2576 0e28 0030C5E5 	.LBE959:
 2577              	.LBE958:
 2578              	.LBB960:
 2579              	.LBB961:
 2580              		sub	r3, r3, #31
 2581 0e2c 313043E2 		strb	r3, [r1, #0]
 2582 0e30 0132C4E5 	.LBE961:
 2583              	.LBE960:
 2584              	.LBB962:
 2585              	.LBB963:
 2586              		sub	r3, r3, #33
 2587 0e34 0222C4E5 		strb	r3, [r4, #526]
 2588              	.LBE963:
 2589              	.LBE962:
 2590              	.LBB964:
ARM GAS  C:\DOCUME~1\pstang\LOCALS~1\Temp/cc80aaaa.s 			page 61


 2591              	.LBB965:
 2592 0e38 0322C4E5 		add	r3, r3, #34
 2593              		strb	r3, [r1, #0]
 2594              	.LBE965:
 2595              	.LBE964:
 2596              	.LBB966:
 2597 0e3c 193083E2 	.LBB967:
 2598 0e40 0430C5E5 		sub	r3, r3, #35
 2599              		strb	r3, [r4, #519]
 2600              	.LBE967:
 2601              	.LBE966:
 2602              	.LBB968:
 2603 0e44 063043E2 	.LBB969:
 2604 0e48 0532C4E5 		add	r3, r3, #18
 2605              		strb	r3, [r4, #527]
 2606              	.LBE969:
 2607              	.LBE968:
 2608              	.LBB970:
 2609 0e4c 023083E2 	.LBB971:
 2610 0e50 0632C4E5 		strb	r0, [r4, #525]
 2611              	.LBE971:
 2612              	.LBE970:
 2613              		.loc 1 279 0
 2614              		ldmfd	sp!, {r4, r5, pc}
 2615 0e54 023083E2 	.LFE11:
 2616 0e58 0732C4E5 		.size	ax88796Init, .-ax88796Init
 2617              		.align	2
 2618              		.global	nicInit
 2619              		.type	nicInit, %function
 2620              	nicInit:
 2621 0e5c 253043E2 	.LFB2:
 2622 0e60 0030C5E5 		.loc 1 37 0
 2623              		@ args = 0, pretend = 0, frame = 0
 2624              		@ frame_needed = 0, uses_anonymous_args = 0
 2625              		str	lr, [sp, #-4]!
 2626              	.LCFI14:
 2627 0e64 223083E2 		.loc 1 38 0
 2628 0e68 0C30C5E5 		bl	ax88796Init
 2629              		.loc 1 39 0
 2630              		ldr	pc, [sp], #4
 2631              	.LFE2:
 2632              		.size	nicInit, .-nicInit
 2633              		.align	2
 2634 0e6c 1732D4E5 		.global	nicSetMacAddress
 2635              		.type	nicSetMacAddress, %function
 2636              	nicSetMacAddress:
 2637              	.LFB6:
 2638 0e70 040013E3 		.loc 1 90 0
 2639 0e74 8000A013 		@ args = 0, pretend = 0, frame = 0
 2640 0e78 0000A003 		@ frame_needed = 0, uses_anonymous_args = 0
 2641              	.LVL50:
 2642              		stmfd	sp!, {r4, lr}
 2643              	.LCFI15:
 2644              	.LBB990:
 2645 0e7c 021C84E2 	.LBB991:
 2646 0e80 0D02C4E5 		.loc 1 172 0
 2647              		mov	r1, #-2147483648
ARM GAS  C:\DOCUME~1\pstang\LOCALS~1\Temp/cc80aaaa.s 			page 62


 2648              		add	lr, r1, #512
 2649              		ldrb	ip, [lr, #0]	@ zero_extendqisi2
 2650              		and	ip, ip, #255
 2651 0e84 1030A0E3 	.LBE991:
 2652 0e88 1732C4E5 	.LBE990:
 2653              		.loc 1 93 0
 2654              		orr	r3, ip, #64
 2655              	.LBB992:
 2656              	.LBB993:
 2657 0e8c 303083E2 		.loc 1 144 0
 2658 0e90 0430C1E5 		strb	r3, [lr, #0]
 2659              	.LBE993:
 2660              	.LBE992:
 2661              		.loc 1 96 0
 2662              		mov	r2, r0
 2663 0e94 1F3043E2 	.LVL51:
 2664 0e98 0030C1E5 		ldrb	r3, [r2], #1	@ zero_extendqisi2
 2665              	.LVL52:
 2666              	.LBB994:
 2667              	.LBB995:
 2668              		.loc 1 144 0
 2669 0e9c 213043E2 		strb	r3, [r1, #513]
 2670 0ea0 0E32C4E5 	.LBE995:
 2671              	.LBE994:
 2672              		.loc 1 97 0
 2673              		add	r4, r2, #1
 2674              	.LVL53:
 2675 0ea4 223083E2 		ldrb	r3, [r0, #1]	@ zero_extendqisi2
 2676 0ea8 0030C1E5 	.LVL54:
 2677              	.LBB996:
 2678              	.LBB997:
 2679              		.loc 1 144 0
 2680              		strb	r3, [r1, #514]
 2681 0eac 233043E2 	.LBE997:
 2682 0eb0 0732C4E5 	.LBE996:
 2683              		.loc 1 98 0
 2684              		add	r0, r4, #1
 2685              	.LVL55:
 2686              		ldrb	r3, [r2, #1]	@ zero_extendqisi2
 2687 0eb4 123083E2 	.LVL56:
 2688 0eb8 0F32C4E5 	.LBB998:
 2689              	.LBB999:
 2690              		.loc 1 144 0
 2691              		strb	r3, [r1, #515]
 2692              	.LBE999:
 2693 0ebc 0D02C4E5 	.LBE998:
 2694              		.loc 1 99 0
 2695              		ldrb	r3, [r4, #1]	@ zero_extendqisi2
 2696              	.LVL57:
 2697 0ec0 3080BDE8 	.LBB1000:
 2698              	.LBB1001:
 2699              		.loc 1 144 0
 2700              		strb	r3, [lr, #4]
 2701              	.LBE1001:
 2702              	.LBE1000:
 2703              		.loc 1 100 0
 2704              		ldrb	r3, [r0, #1]	@ zero_extendqisi2
ARM GAS  C:\DOCUME~1\pstang\LOCALS~1\Temp/cc80aaaa.s 			page 63


 2705              	.LVL58:
 2706              	.LBB1002:
 2707              	.LBB1003:
 2708 0ec4 04E02DE5 		.loc 1 144 0
 2709              		strb	r3, [r1, #517]
 2710              	.LBE1003:
 2711 0ec8 FEFFFFEB 	.LBE1002:
 2712              		.loc 1 101 0
 2713 0ecc 04F09DE4 		ldrb	r3, [r0, #2]	@ zero_extendqisi2
 2714              	.LVL59:
 2715              	.LBB1004:
 2716              	.LBB1005:
 2717              		.loc 1 144 0
 2718              		strb	r3, [r1, #518]
 2719              	.LBE1005:
 2720              	.LBE1004:
 2721              	.LBB1006:
 2722              	.LBB1007:
 2723              		strb	ip, [lr, #0]
 2724              	.LBE1007:
 2725 0ed0 10402DE9 	.LBE1006:
 2726              		.loc 1 104 0
 2727              		ldmfd	sp!, {r4, pc}
 2728              	.LFE6:
 2729              		.size	nicSetMacAddress, .-nicSetMacAddress
 2730 0ed4 0211A0E3 		.align	2
 2731 0ed8 02EC81E2 		.global	nicGetMacAddress
 2732 0edc 00C0DEE5 		.type	nicGetMacAddress, %function
 2733 0ee0 FFC00CE2 	nicGetMacAddress:
 2734              	.LFB5:
 2735              		.loc 1 73 0
 2736              		@ args = 0, pretend = 0, frame = 0
 2737 0ee4 40308CE3 		@ frame_needed = 0, uses_anonymous_args = 0
 2738              	.LVL60:
 2739              		str	lr, [sp, #-4]!
 2740              	.LCFI16:
 2741 0ee8 0030CEE5 	.LBB1026:
 2742              	.LBB1027:
 2743              		.loc 1 172 0
 2744              		mov	r1, #-2147483648
 2745 0eec 0020A0E1 		add	lr, r1, #512
 2746              		ldrb	ip, [lr, #0]	@ zero_extendqisi2
 2747 0ef0 0130D2E4 		and	ip, ip, #255
 2748              	.LBE1027:
 2749              	.LBE1026:
 2750              		.loc 1 76 0
 2751              		orr	r3, ip, #64
 2752 0ef4 0132C1E5 	.LBB1028:
 2753              	.LBB1029:
 2754              		.loc 1 144 0
 2755              		strb	r3, [lr, #0]
 2756 0ef8 014082E2 	.LBE1029:
 2757              	.LBE1028:
 2758 0efc 0130D0E5 	.LBB1030:
 2759              	.LBB1031:
 2760              		.loc 1 172 0
 2761              		ldrb	r3, [r1, #513]	@ zero_extendqisi2
ARM GAS  C:\DOCUME~1\pstang\LOCALS~1\Temp/cc80aaaa.s 			page 64


 2762              	.LBE1031:
 2763 0f00 0232C1E5 	.LBE1030:
 2764              		.loc 1 79 0
 2765              		mov	r2, r0
 2766              	.LVL61:
 2767 0f04 010084E2 		strb	r3, [r2], #1
 2768              	.LBB1032:
 2769 0f08 0130D2E5 	.LBB1033:
 2770              		.loc 1 172 0
 2771              		ldrb	r3, [r1, #514]	@ zero_extendqisi2
 2772              	.LBE1033:
 2773              	.LBE1032:
 2774 0f0c 0332C1E5 		.loc 1 80 0
 2775              		strb	r3, [r0, #1]
 2776              		add	r0, r2, #1
 2777              	.LVL62:
 2778 0f10 0130D4E5 	.LBB1034:
 2779              	.LBB1035:
 2780              		.loc 1 172 0
 2781              		ldrb	r3, [r1, #515]	@ zero_extendqisi2
 2782              	.LBE1035:
 2783 0f14 0430CEE5 	.LBE1034:
 2784              		.loc 1 81 0
 2785              		strb	r3, [r2, #1]
 2786              		add	r2, r0, #1
 2787 0f18 0130D0E5 	.LVL63:
 2788              	.LBB1036:
 2789              	.LBB1037:
 2790              		.loc 1 172 0
 2791              		ldrb	r3, [lr, #4]	@ zero_extendqisi2
 2792 0f1c 0532C1E5 	.LBE1037:
 2793              	.LBE1036:
 2794              		.loc 1 82 0
 2795              		strb	r3, [r0, #1]
 2796 0f20 0230D0E5 	.LBB1038:
 2797              	.LBB1039:
 2798              		.loc 1 172 0
 2799              		ldrb	r3, [r1, #517]	@ zero_extendqisi2
 2800              	.LBE1039:
 2801 0f24 0632C1E5 	.LBE1038:
 2802              		.loc 1 83 0
 2803              		strb	r3, [r2, #1]
 2804              	.LBB1040:
 2805              	.LBB1041:
 2806 0f28 00C0CEE5 		.loc 1 172 0
 2807              		ldrb	r3, [r1, #518]	@ zero_extendqisi2
 2808              	.LBE1041:
 2809              	.LBE1040:
 2810 0f2c 1080BDE8 		.loc 1 84 0
 2811              		strb	r3, [r2, #2]
 2812              	.LBB1042:
 2813              	.LBB1043:
 2814              		.loc 1 144 0
 2815              		strb	ip, [lr, #0]
 2816              	.LBE1043:
 2817              	.LBE1042:
 2818              		.loc 1 87 0
ARM GAS  C:\DOCUME~1\pstang\LOCALS~1\Temp/cc80aaaa.s 			page 65


 2819              		ldr	pc, [sp], #4
 2820              	.LFE5:
 2821              		.size	nicGetMacAddress, .-nicGetMacAddress
 2822 0f30 04E02DE5 		.bss
 2823              	NextPage:
 2824              		.space	1
 2825              		.align	2
 2826              	CurrentRetreiveAddress:
 2827 0f34 0211A0E3 		.space	4
 2828 0f38 02EC81E2 		.section	.debug_frame,"",%progbits
 2829 0f3c 00C0DEE5 	.Lframe0:
 2830 0f40 FFC00CE2 		.4byte	.LECIE0-.LSCIE0
 2831              	.LSCIE0:
 2832              		.4byte	0xffffffff
 2833              		.byte	0x1
 2834 0f44 40308CE3 		.ascii	"\000"
 2835              		.uleb128 0x1
 2836              		.sleb128 -4
 2837              		.byte	0xe
 2838 0f48 0030CEE5 		.byte	0xc
 2839              		.uleb128 0xd
 2840              		.uleb128 0x0
 2841              		.align	2
 2842              	.LECIE0:
 2843              	.LSFDE0:
 2844 0f4c 0132D1E5 		.4byte	.LEFDE0-.LASFDE0
 2845              	.LASFDE0:
 2846              		.4byte	.Lframe0
 2847              		.4byte	.LFB8
 2848 0f50 0020A0E1 		.4byte	.LFE8-.LFB8
 2849              		.align	2
 2850 0f54 0130C2E4 	.LEFDE0:
 2851              	.LSFDE2:
 2852              		.4byte	.LEFDE2-.LASFDE2
 2853              	.LASFDE2:
 2854 0f58 0232D1E5 		.4byte	.Lframe0
 2855              		.4byte	.LFB9
 2856              		.4byte	.LFE9-.LFB9
 2857              		.align	2
 2858 0f5c 0130C0E5 	.LEFDE2:
 2859 0f60 010082E2 	.LSFDE4:
 2860              		.4byte	.LEFDE4-.LASFDE4
 2861              	.LASFDE4:
 2862              		.4byte	.Lframe0
 2863              		.4byte	.LFB10
 2864 0f64 0332D1E5 		.4byte	.LFE10-.LFB10
 2865              		.align	2
 2866              	.LEFDE4:
 2867              	.LSFDE6:
 2868 0f68 0130C2E5 		.4byte	.LEFDE6-.LASFDE6
 2869 0f6c 012080E2 	.LASFDE6:
 2870              		.4byte	.Lframe0
 2871              		.4byte	.LFB12
 2872              		.4byte	.LFE12-.LFB12
 2873              		.byte	0x4
 2874 0f70 0430DEE5 		.4byte	.LCFI0-.LFB12
 2875              		.byte	0xe
ARM GAS  C:\DOCUME~1\pstang\LOCALS~1\Temp/cc80aaaa.s 			page 66


 2876              		.uleb128 0x4
 2877              		.byte	0x8e
 2878 0f74 0130C0E5 		.uleb128 0x1
 2879              		.align	2
 2880              	.LEFDE6:
 2881              	.LSFDE8:
 2882 0f78 0532D1E5 		.4byte	.LEFDE8-.LASFDE8
 2883              	.LASFDE8:
 2884              		.4byte	.Lframe0
 2885              		.4byte	.LFB13
 2886 0f7c 0130C2E5 		.4byte	.LFE13-.LFB13
 2887              		.align	2
 2888              	.LEFDE8:
 2889              	.LSFDE10:
 2890 0f80 0632D1E5 		.4byte	.LEFDE10-.LASFDE10
 2891              	.LASFDE10:
 2892              		.4byte	.Lframe0
 2893              		.4byte	.LFB14
 2894 0f84 0230C2E5 		.4byte	.LFE14-.LFB14
 2895              		.align	2
 2896              	.LEFDE10:
 2897              	.LSFDE12:
 2898 0f88 00C0CEE5 		.4byte	.LEFDE12-.LASFDE12
 2899              	.LASFDE12:
 2900              		.4byte	.Lframe0
 2901              		.4byte	.LFB3
 2902 0f8c 04F09DE4 		.4byte	.LFE3-.LFB3
 2903              		.byte	0x4
 2904              		.4byte	.LCFI1-.LFB3
 2905              		.byte	0xe
 2906              		.uleb128 0xc
 2907 0000 00       		.byte	0x8e
 2908 0001 000000   		.uleb128 0x1
 2909              		.byte	0x85
 2910 0004 00000000 		.uleb128 0x2
 2911              		.byte	0x84
 2912              		.uleb128 0x3
 2913 0000 0C000000 		.align	2
 2914              	.LEFDE12:
 2915 0004 FFFFFFFF 	.LSFDE14:
 2916 0008 01       		.4byte	.LEFDE14-.LASFDE14
 2917 0009 00       	.LASFDE14:
 2918 000a 01       		.4byte	.Lframe0
 2919 000b 7C       		.4byte	.LFB16
 2920 000c 0E       		.4byte	.LFE16-.LFB16
 2921 000d 0C       		.byte	0x4
 2922 000e 0D       		.4byte	.LCFI2-.LFB16
 2923 000f 00       		.byte	0xe
 2924              		.uleb128 0x4
 2925              		.byte	0x8e
 2926              		.uleb128 0x1
 2927 0010 0C000000 		.align	2
 2928              	.LEFDE14:
 2929 0014 00000000 	.LSFDE16:
 2930 0018 00000000 		.4byte	.LEFDE16-.LASFDE16
 2931 001c 04000000 	.LASFDE16:
 2932              		.4byte	.Lframe0
ARM GAS  C:\DOCUME~1\pstang\LOCALS~1\Temp/cc80aaaa.s 			page 67


 2933              		.4byte	.LFB17
 2934              		.4byte	.LFE17-.LFB17
 2935 0020 0C000000 		.align	2
 2936              	.LEFDE16:
 2937 0024 00000000 	.LSFDE18:
 2938 0028 04000000 		.4byte	.LEFDE18-.LASFDE18
 2939 002c 18000000 	.LASFDE18:
 2940              		.4byte	.Lframe0
 2941              		.4byte	.LFB20
 2942              		.4byte	.LFE20-.LFB20
 2943 0030 0C000000 		.byte	0x4
 2944              		.4byte	.LCFI3-.LFB20
 2945 0034 00000000 		.byte	0xe
 2946 0038 1C000000 		.uleb128 0x8
 2947 003c 14000000 		.byte	0x8e
 2948              		.uleb128 0x1
 2949              		.byte	0x84
 2950              		.uleb128 0x2
 2951 0040 14000000 		.align	2
 2952              	.LEFDE18:
 2953 0044 00000000 	.LSFDE20:
 2954 0048 30000000 		.4byte	.LEFDE20-.LASFDE20
 2955 004c 80000000 	.LASFDE20:
 2956 0050 44       		.4byte	.Lframe0
 2957              		.4byte	.LFB21
 2958 0051 0E       		.4byte	.LFE21-.LFB21
 2959 0052 04       		.byte	0x4
 2960 0053 8E       		.4byte	.LCFI4-.LFB21
 2961 0054 01       		.byte	0xe
 2962 0055 000000   		.uleb128 0x4
 2963              		.byte	0x8e
 2964              		.uleb128 0x1
 2965 0058 0C000000 		.align	2
 2966              	.LEFDE20:
 2967 005c 00000000 	.LSFDE22:
 2968 0060 B0000000 		.4byte	.LEFDE22-.LASFDE22
 2969 0064 2C000000 	.LASFDE22:
 2970              		.4byte	.Lframe0
 2971              		.4byte	.LFB23
 2972              		.4byte	.LFE23-.LFB23
 2973 0068 0C000000 		.byte	0x4
 2974              		.4byte	.LCFI5-.LFB23
 2975 006c 00000000 		.byte	0xe
 2976 0070 DC000000 		.uleb128 0x4
 2977 0074 1C000000 		.byte	0x8e
 2978              		.uleb128 0x1
 2979              		.align	2
 2980              	.LEFDE22:
 2981 0078 18000000 	.LSFDE24:
 2982              		.4byte	.LEFDE24-.LASFDE24
 2983 007c 00000000 	.LASFDE24:
 2984 0080 F8000000 		.4byte	.Lframe0
 2985 0084 24000000 		.4byte	.LFB22
 2986 0088 44       		.4byte	.LFE22-.LFB22
 2987              		.byte	0x4
 2988 0089 0E       		.4byte	.LCFI6-.LFB22
 2989 008a 0C       		.byte	0xe
ARM GAS  C:\DOCUME~1\pstang\LOCALS~1\Temp/cc80aaaa.s 			page 68


 2990 008b 8E       		.uleb128 0x14
 2991 008c 01       		.byte	0x8e
 2992 008d 85       		.uleb128 0x1
 2993 008e 02       		.byte	0x87
 2994 008f 84       		.uleb128 0x2
 2995 0090 03       		.byte	0x86
 2996 0091 000000   		.uleb128 0x3
 2997              		.byte	0x85
 2998              		.uleb128 0x4
 2999 0094 14000000 		.byte	0x84
 3000              		.uleb128 0x5
 3001 0098 00000000 		.align	2
 3002 009c 1C010000 	.LEFDE24:
 3003 00a0 C4000000 	.LSFDE26:
 3004 00a4 44       		.4byte	.LEFDE26-.LASFDE26
 3005              	.LASFDE26:
 3006 00a5 0E       		.4byte	.Lframe0
 3007 00a6 04       		.4byte	.LFB7
 3008 00a7 8E       		.4byte	.LFE7-.LFB7
 3009 00a8 01       		.byte	0x4
 3010 00a9 000000   		.4byte	.LCFI7-.LFB7
 3011              		.byte	0xe
 3012              		.uleb128 0x4
 3013 00ac 0C000000 		.byte	0x8e
 3014              		.uleb128 0x1
 3015 00b0 00000000 		.align	2
 3016 00b4 E0010000 	.LEFDE26:
 3017 00b8 68000000 	.LSFDE28:
 3018              		.4byte	.LEFDE28-.LASFDE28
 3019              	.LASFDE28:
 3020              		.4byte	.Lframe0
 3021 00bc 14000000 		.4byte	.LFB19
 3022              		.4byte	.LFE19-.LFB19
 3023 00c0 00000000 		.byte	0x4
 3024 00c4 48020000 		.4byte	.LCFI8-.LFB19
 3025 00c8 F4010000 		.byte	0xe
 3026 00cc 44       		.uleb128 0xc
 3027              		.byte	0x8e
 3028 00cd 0E       		.uleb128 0x1
 3029 00ce 08       		.byte	0x85
 3030 00cf 8E       		.uleb128 0x2
 3031 00d0 01       		.byte	0x84
 3032 00d1 84       		.uleb128 0x3
 3033 00d2 02       		.align	2
 3034 00d3 00       	.LEFDE28:
 3035              	.LSFDE30:
 3036              		.4byte	.LEFDE30-.LASFDE30
 3037 00d4 14000000 	.LASFDE30:
 3038              		.4byte	.Lframe0
 3039 00d8 00000000 		.4byte	.LFB18
 3040 00dc 3C040000 		.4byte	.LFE18-.LFB18
 3041 00e0 FC010000 		.byte	0x4
 3042 00e4 44       		.4byte	.LCFI9-.LFB18
 3043              		.byte	0xe
 3044 00e5 0E       		.uleb128 0x4
 3045 00e6 04       		.byte	0x8e
 3046 00e7 8E       		.uleb128 0x1
ARM GAS  C:\DOCUME~1\pstang\LOCALS~1\Temp/cc80aaaa.s 			page 69


 3047 00e8 01       		.align	2
 3048 00e9 000000   	.LEFDE30:
 3049              	.LSFDE32:
 3050              		.4byte	.LEFDE32-.LASFDE32
 3051 00ec 14000000 	.LASFDE32:
 3052              		.4byte	.Lframe0
 3053 00f0 00000000 		.4byte	.LFB15
 3054 00f4 38060000 		.4byte	.LFE15-.LFB15
 3055 00f8 BC020000 		.byte	0x4
 3056 00fc 44       		.4byte	.LCFI10-.LFB15
 3057              		.byte	0xe
 3058 00fd 0E       		.uleb128 0x4
 3059 00fe 04       		.byte	0x4
 3060 00ff 8E       		.4byte	.LCFI11-.LCFI10
 3061 0100 01       		.byte	0xe
 3062 0101 000000   		.uleb128 0x8
 3063              		.byte	0x8e
 3064              		.uleb128 0x1
 3065 0104 1C000000 		.align	2
 3066              	.LEFDE32:
 3067 0108 00000000 	.LSFDE34:
 3068 010c F4080000 		.4byte	.LEFDE34-.LASFDE34
 3069 0110 D8010000 	.LASFDE34:
 3070 0114 44       		.4byte	.Lframe0
 3071              		.4byte	.LFB4
 3072 0115 0E       		.4byte	.LFE4-.LFB4
 3073 0116 14       		.byte	0x4
 3074 0117 8E       		.4byte	.LCFI12-.LFB4
 3075 0118 01       		.byte	0xe
 3076 0119 87       		.uleb128 0x10
 3077 011a 02       		.byte	0x8e
 3078 011b 86       		.uleb128 0x1
 3079 011c 03       		.byte	0x86
 3080 011d 85       		.uleb128 0x2
 3081 011e 04       		.byte	0x85
 3082 011f 84       		.uleb128 0x3
 3083 0120 05       		.byte	0x84
 3084 0121 000000   		.uleb128 0x4
 3085              		.align	2
 3086              	.LEFDE34:
 3087 0124 14000000 	.LSFDE36:
 3088              		.4byte	.LEFDE36-.LASFDE36
 3089 0128 00000000 	.LASFDE36:
 3090 012c CC0A0000 		.4byte	.Lframe0
 3091 0130 0C000000 		.4byte	.LFB11
 3092 0134 44       		.4byte	.LFE11-.LFB11
 3093              		.byte	0x4
 3094 0135 0E       		.4byte	.LCFI13-.LFB11
 3095 0136 04       		.byte	0xe
 3096 0137 8E       		.uleb128 0xc
 3097 0138 01       		.byte	0x8e
 3098 0139 000000   		.uleb128 0x1
 3099              		.byte	0x85
 3100              		.uleb128 0x2
 3101 013c 18000000 		.byte	0x84
 3102              		.uleb128 0x3
 3103 0140 00000000 		.align	2
ARM GAS  C:\DOCUME~1\pstang\LOCALS~1\Temp/cc80aaaa.s 			page 70


 3104 0144 D80A0000 	.LEFDE36:
 3105 0148 D8000000 	.LSFDE38:
 3106 014c 44       		.4byte	.LEFDE38-.LASFDE38
 3107              	.LASFDE38:
 3108 014d 0E       		.4byte	.Lframe0
 3109 014e 0C       		.4byte	.LFB2
 3110 014f 8E       		.4byte	.LFE2-.LFB2
 3111 0150 01       		.byte	0x4
 3112 0151 85       		.4byte	.LCFI14-.LFB2
 3113 0152 02       		.byte	0xe
 3114 0153 84       		.uleb128 0x4
 3115 0154 03       		.byte	0x8e
 3116 0155 000000   		.uleb128 0x1
 3117              		.align	2
 3118              	.LEFDE38:
 3119 0158 14000000 	.LSFDE40:
 3120              		.4byte	.LEFDE40-.LASFDE40
 3121 015c 00000000 	.LASFDE40:
 3122 0160 B00B0000 		.4byte	.Lframe0
 3123 0164 1C000000 		.4byte	.LFB6
 3124 0168 44       		.4byte	.LFE6-.LFB6
 3125              		.byte	0x4
 3126 0169 0E       		.4byte	.LCFI15-.LFB6
 3127 016a 04       		.byte	0xe
 3128 016b 8E       		.uleb128 0x8
 3129 016c 01       		.byte	0x8e
 3130 016d 000000   		.uleb128 0x1
 3131              		.byte	0x84
 3132              		.uleb128 0x2
 3133 0170 14000000 		.align	2
 3134              	.LEFDE40:
 3135 0174 00000000 	.LSFDE42:
 3136 0178 CC0B0000 		.4byte	.LEFDE42-.LASFDE42
 3137 017c 5C010000 	.LASFDE42:
 3138 0180 44       		.4byte	.Lframe0
 3139              		.4byte	.LFB5
 3140 0181 0E       		.4byte	.LFE5-.LFB5
 3141 0182 04       		.byte	0x4
 3142 0183 44       		.4byte	.LCFI16-.LFB5
 3143              		.byte	0xe
 3144 0184 0E       		.uleb128 0x4
 3145 0185 08       		.byte	0x8e
 3146 0186 8E       		.uleb128 0x1
 3147 0187 01       		.align	2
 3148              	.LEFDE42:
 3149              		.file 2 "c:\\code\\arm\\armlib/armlibtypes.h"
 3150              		.text
 3151 0188 18000000 	.Letext0: