ARM GAS  C:\DOCUME~1\pstang\LOCALS~1\Temp/cccLaaaa.s 			page 1


   1              		.file	"netstack.c"
   8 0000 D3000000 		.text
   8      02009400 
   8      00000201 
   8      FB0E0D00 
   8      01010101 
   9              	.Ltext0:
  10              		.align	2
  11              		.global	netstackGetBuffer
  12              		.type	netstackGetBuffer, %function
  13              	netstackGetBuffer:
  14              	.LFB3:
  15              		.file 1 "c:\\code\\arm\\armlib/net/netstack.c"
   1:c:\code\arm\armlib/net\netstack.c **** /*! \file netstack.c \brief Network Stack. */
   2:c:\code\arm\armlib/net\netstack.c **** //*****************************************************************************
   3:c:\code\arm\armlib/net\netstack.c **** //
   4:c:\code\arm\armlib/net\netstack.c **** // File Name	: 'netstack.c'
   5:c:\code\arm\armlib/net\netstack.c **** // Title		: Network Stack
   6:c:\code\arm\armlib/net\netstack.c **** // Author		: Pascal Stang
   7:c:\code\arm\armlib/net\netstack.c **** // Created		: 6/28/2005
   8:c:\code\arm\armlib/net\netstack.c **** // Revised		: 9/20/2005
   9:c:\code\arm\armlib/net\netstack.c **** // Version		: 0.3
  10:c:\code\arm\armlib/net\netstack.c **** // Target MCU	: Atmel AVR series
  11:c:\code\arm\armlib/net\netstack.c **** // Editor Tabs	: 4
  12:c:\code\arm\armlib/net\netstack.c **** //
  13:c:\code\arm\armlib/net\netstack.c **** //*****************************************************************************
  14:c:\code\arm\armlib/net\netstack.c **** 
  15:c:\code\arm\armlib/net\netstack.c **** #include "rprintf.h"
  16:c:\code\arm\armlib/net\netstack.c **** #include "debug.h"
  17:c:\code\arm\armlib/net\netstack.c **** 
  18:c:\code\arm\armlib/net\netstack.c **** #include "netstack.h"
  19:c:\code\arm\armlib/net\netstack.c **** 
  20:c:\code\arm\armlib/net\netstack.c **** unsigned char NetBufferData[NETSTACK_BUFFERSIZE] __attribute__ ((aligned));
  21:c:\code\arm\armlib/net\netstack.c **** unsigned char* NetBuffer = &NetBufferData[2];
  22:c:\code\arm\armlib/net\netstack.c **** //#define NetBuffer	(&NetBufferData[2])
  23:c:\code\arm\armlib/net\netstack.c **** 
  24:c:\code\arm\armlib/net\netstack.c **** void netstackInit(uint32_t ipaddress, uint32_t netmask, uint32_t gatewayip)
  25:c:\code\arm\armlib/net\netstack.c **** {
  26:c:\code\arm\armlib/net\netstack.c **** 	// init network device driver
  27:c:\code\arm\armlib/net\netstack.c **** 	#ifdef NETSTACK_DEBUG
  28:c:\code\arm\armlib/net\netstack.c **** 	rprintf("Initializing Network Device\r\n");
  29:c:\code\arm\armlib/net\netstack.c **** 	#endif
  30:c:\code\arm\armlib/net\netstack.c **** 	nicInit();
  31:c:\code\arm\armlib/net\netstack.c **** 	// init ARP
  32:c:\code\arm\armlib/net\netstack.c **** 	#ifdef NETSTACK_DEBUG
  33:c:\code\arm\armlib/net\netstack.c **** 	rprintf("Initializing ARP cache\r\n");
  34:c:\code\arm\armlib/net\netstack.c **** 	#endif
  35:c:\code\arm\armlib/net\netstack.c **** 	arpInit();
  36:c:\code\arm\armlib/net\netstack.c **** 	// init addressing
  37:c:\code\arm\armlib/net\netstack.c **** 	#ifdef NETSTACK_DEBUG
  38:c:\code\arm\armlib/net\netstack.c **** 	rprintf("Initializing Addressing\r\n");
ARM GAS  C:\DOCUME~1\pstang\LOCALS~1\Temp/cccLaaaa.s 			page 2


  39:c:\code\arm\armlib/net\netstack.c **** 	#endif
  40:c:\code\arm\armlib/net\netstack.c **** 	ipSetConfig(ipaddress, netmask, gatewayip);
  41:c:\code\arm\armlib/net\netstack.c **** }
  42:c:\code\arm\armlib/net\netstack.c **** 
  43:c:\code\arm\armlib/net\netstack.c **** u08* netstackGetBuffer(void)
  44:c:\code\arm\armlib/net\netstack.c **** {
  16              	 args = 0, pretend = 0, frame = 0
  17              		@ frame_needed = 0, uses_anonymous_args = 0
  18              		@ link register save eliminated.
  19              		@ lr needed for prologue
  20              		.loc 1 46 0
  45:c:\code\arm\armlib/net\netstack.c **** 	return NetBuffer;
  46:c:\code\arm\armlib/net\netstack.c **** }
  21              	r3, .L3
  22 0000 04309FE5 		ldr	r0, [r3, #0]
  23 0004 000093E5 		bx	lr
  24 0008 1EFF2FE1 	.L4:
  25              		.align	2
  26              	.L3:
  27              		.word	NetBuffer
  28 000c 00000000 	.LFE3:
  29              		.size	netstackGetBuffer, .-netstackGetBuffer
  30              		.align	2
  31              		.weak	netstackUDPIPProcess
  32              		.type	netstackUDPIPProcess, %function
  33              	netstackUDPIPProcess:
  34              	.LFB6:
  35              		.loc 1 134 0
  47:c:\code\arm\armlib/net\netstack.c **** 
  48:c:\code\arm\armlib/net\netstack.c **** int netstackService(void)
  49:c:\code\arm\armlib/net\netstack.c **** {
  50:c:\code\arm\armlib/net\netstack.c **** 	int len;
  51:c:\code\arm\armlib/net\netstack.c **** 	struct netEthHeader* ethPacket;
  52:c:\code\arm\armlib/net\netstack.c **** 
  53:c:\code\arm\armlib/net\netstack.c **** 	// look for a packet
  54:c:\code\arm\armlib/net\netstack.c **** 	len = nicPoll(NETSTACK_BUFFERSIZE, NetBuffer);
  55:c:\code\arm\armlib/net\netstack.c **** 
  56:c:\code\arm\armlib/net\netstack.c **** 	if(len)
  57:c:\code\arm\armlib/net\netstack.c **** 	{
  58:c:\code\arm\armlib/net\netstack.c **** 		ethPacket = (struct netEthHeader*)&NetBuffer[0];
  59:c:\code\arm\armlib/net\netstack.c **** 
  60:c:\code\arm\armlib/net\netstack.c **** 		#if NET_DEBUG >= 5
  61:c:\code\arm\armlib/net\netstack.c **** 		rprintf("Received packet len: %d, type:", len);
  62:c:\code\arm\armlib/net\netstack.c **** 		rprintfu16(htons(ethPacket->type));
  63:c:\code\arm\armlib/net\netstack.c **** 		rprintfCRLF();
  64:c:\code\arm\armlib/net\netstack.c **** 		rprintf("Packet Contents\r\n");
  65:c:\code\arm\armlib/net\netstack.c **** 		debugPrintHexTable(len, NetBuffer);
  66:c:\code\arm\armlib/net\netstack.c **** 		#endif
  67:c:\code\arm\armlib/net\netstack.c **** 		
  68:c:\code\arm\armlib/net\netstack.c **** 		if(ethPacket->type == htons(ETHTYPE_IP))
  69:c:\code\arm\armlib/net\netstack.c **** 		{
  70:c:\code\arm\armlib/net\netstack.c **** 			// process an IP packet
  71:c:\code\arm\armlib/net\netstack.c **** 			#ifdef NETSTACK_DEBUG
  72:c:\code\arm\armlib/net\netstack.c **** 			rprintfProgStrM("NET Rx: IP packet\r\n");
  73:c:\code\arm\armlib/net\netstack.c **** 			#endif
  74:c:\code\arm\armlib/net\netstack.c **** 			// add the source to the ARP cache
  75:c:\code\arm\armlib/net\netstack.c **** 			// also correctly set the ethernet packet length before processing?
ARM GAS  C:\DOCUME~1\pstang\LOCALS~1\Temp/cccLaaaa.s 			page 3


  76:c:\code\arm\armlib/net\netstack.c **** 			arpIpIn((struct netEthIpHeader*)&NetBuffer[0]);
  77:c:\code\arm\armlib/net\netstack.c **** 			//arpPrintTable();
  78:c:\code\arm\armlib/net\netstack.c **** 			
  79:c:\code\arm\armlib/net\netstack.c **** 			netstackIPProcess( len-ETH_HEADER_LEN, (ip_hdr*)&NetBuffer[ETH_HEADER_LEN] );
  80:c:\code\arm\armlib/net\netstack.c **** 		}
  81:c:\code\arm\armlib/net\netstack.c **** 		else if(ethPacket->type == htons(ETHTYPE_ARP))
  82:c:\code\arm\armlib/net\netstack.c **** 		{
  83:c:\code\arm\armlib/net\netstack.c **** 			// process an ARP packet
  84:c:\code\arm\armlib/net\netstack.c **** 			#ifdef NETSTACK_DEBUG
  85:c:\code\arm\armlib/net\netstack.c **** 			rprintfProgStrM("NET Rx: ARP packet\r\n");
  86:c:\code\arm\armlib/net\netstack.c **** 			#endif
  87:c:\code\arm\armlib/net\netstack.c **** 			arpArpIn(len, ((struct netEthArpHeader*)&NetBuffer[0]) );
  88:c:\code\arm\armlib/net\netstack.c **** 		}
  89:c:\code\arm\armlib/net\netstack.c **** 	}
  90:c:\code\arm\armlib/net\netstack.c **** 	return len;
  91:c:\code\arm\armlib/net\netstack.c **** }
  92:c:\code\arm\armlib/net\netstack.c **** 
  93:c:\code\arm\armlib/net\netstack.c **** void netstackIPProcess(unsigned int len, ip_hdr* packet)
  94:c:\code\arm\armlib/net\netstack.c **** {
  95:c:\code\arm\armlib/net\netstack.c **** 	// check IP addressing, stop processing if not for me and not a broadcast
  96:c:\code\arm\armlib/net\netstack.c **** 	if( (htonl(packet->destipaddr) != ipGetConfig()->ip) &&
  97:c:\code\arm\armlib/net\netstack.c **** 		(htonl(packet->destipaddr) != (ipGetConfig()->ip|ipGetConfig()->netmask)) &&
  98:c:\code\arm\armlib/net\netstack.c **** 		(htonl(packet->destipaddr) != 0xFFFFFFFF) ) 
  99:c:\code\arm\armlib/net\netstack.c **** 		return;
 100:c:\code\arm\armlib/net\netstack.c **** 
 101:c:\code\arm\armlib/net\netstack.c **** 	// handle ICMP packet
 102:c:\code\arm\armlib/net\netstack.c **** 	if( packet->proto == IP_PROTO_ICMP )
 103:c:\code\arm\armlib/net\netstack.c **** 	{
 104:c:\code\arm\armlib/net\netstack.c **** 		#ifdef NETSTACK_DEBUG
 105:c:\code\arm\armlib/net\netstack.c **** 		rprintfProgStrM("NET Rx: ICMP/IP packet\r\n");
 106:c:\code\arm\armlib/net\netstack.c **** 		//icmpPrintHeader((icmpip_hdr*)packet);
 107:c:\code\arm\armlib/net\netstack.c **** 		#endif
 108:c:\code\arm\armlib/net\netstack.c **** 		icmpIpIn((icmpip_hdr*)packet);
 109:c:\code\arm\armlib/net\netstack.c **** 	}
 110:c:\code\arm\armlib/net\netstack.c **** 	else if( packet->proto == IP_PROTO_UDP )
 111:c:\code\arm\armlib/net\netstack.c **** 	{
 112:c:\code\arm\armlib/net\netstack.c **** 		#ifdef NETSTACK_DEBUG
 113:c:\code\arm\armlib/net\netstack.c **** 		rprintfProgStrM("NET Rx: UDP/IP packet\r\n");
 114:c:\code\arm\armlib/net\netstack.c **** 		//debugPrintHexTable(NetBufferLen-14, &NetBuffer[14]);
 115:c:\code\arm\armlib/net\netstack.c **** 		#endif
 116:c:\code\arm\armlib/net\netstack.c **** 		netstackUDPIPProcess(len, ((udpip_hdr*)packet) );
 117:c:\code\arm\armlib/net\netstack.c **** 	}
 118:c:\code\arm\armlib/net\netstack.c **** 	else if( packet->proto == IP_PROTO_TCP )
 119:c:\code\arm\armlib/net\netstack.c **** 	{
 120:c:\code\arm\armlib/net\netstack.c **** 		#ifdef NETSTACK_DEBUG
 121:c:\code\arm\armlib/net\netstack.c **** 		rprintfProgStrM("NET Rx: TCP/IP packet\r\n");
 122:c:\code\arm\armlib/net\netstack.c **** 		#endif
 123:c:\code\arm\armlib/net\netstack.c **** 		netstackTCPIPProcess(len, ((tcpip_hdr*)packet) );
 124:c:\code\arm\armlib/net\netstack.c **** 	}
 125:c:\code\arm\armlib/net\netstack.c **** 	else
 126:c:\code\arm\armlib/net\netstack.c **** 	{
 127:c:\code\arm\armlib/net\netstack.c **** 		#ifdef NETSTACK_DEBUG
 128:c:\code\arm\armlib/net\netstack.c **** 		rprintfProgStrM("NET Rx: IP packet\r\n");
 129:c:\code\arm\armlib/net\netstack.c **** 		#endif
 130:c:\code\arm\armlib/net\netstack.c **** 	}
 131:c:\code\arm\armlib/net\netstack.c **** }
 132:c:\code\arm\armlib/net\netstack.c **** 
ARM GAS  C:\DOCUME~1\pstang\LOCALS~1\Temp/cccLaaaa.s 			page 4


 133:c:\code\arm\armlib/net\netstack.c **** void netstackUDPIPProcess(unsigned int len, udpip_hdr* packet)
 134:c:\code\arm\armlib/net\netstack.c **** {
  36              	etend = 0, frame = 0
  37              		@ frame_needed = 0, uses_anonymous_args = 0
  38              		@ link register save eliminated.
  39              	.LVL0:
  40              		@ lr needed for prologue
  41              		.loc 1 138 0
 135:c:\code\arm\armlib/net\netstack.c **** 	#ifdef NETSTACK_DEBUG
 136:c:\code\arm\armlib/net\netstack.c **** 	rprintf("NetStack UDP/IP Rx Dummy Handler\r\n");
 137:c:\code\arm\armlib/net\netstack.c **** 	#endif
 138:c:\code\arm\armlib/net\netstack.c **** 	asm volatile ("nop");
  42              	.loc 1 139 0
  43 0010 0000A0E1 		bx	lr
 139:c:\code\arm\armlib/net\netstack.c **** }
  44              	FE6:
  45 0014 1EFF2FE1 		.size	netstackUDPIPProcess, .-netstackUDPIPProcess
  46              		.align	2
  47              		.weak	netstackTCPIPProcess
  48              		.type	netstackTCPIPProcess, %function
  49              	netstackTCPIPProcess:
  50              	.LFB7:
  51              		.loc 1 142 0
  52              		@ args = 0, pretend = 0, frame = 0
 140:c:\code\arm\armlib/net\netstack.c **** 
 141:c:\code\arm\armlib/net\netstack.c **** void netstackTCPIPProcess(unsigned int len, tcpip_hdr* packet)
 142:c:\code\arm\armlib/net\netstack.c **** {
  53              	needed = 0, uses_anonymous_args = 0
  54              		@ link register save eliminated.
  55              	.LVL1:
  56              		@ lr needed for prologue
  57              		.loc 1 146 0
  58              		nop
 143:c:\code\arm\armlib/net\netstack.c **** 	#ifdef NETSTACK_DEBUG
 144:c:\code\arm\armlib/net\netstack.c **** 	rprintf("NetStack TCP/IP Rx Dummy Handler\r\n");
 145:c:\code\arm\armlib/net\netstack.c **** 	#endif
 146:c:\code\arm\armlib/net\netstack.c **** 	asm volatile ("nop");
  59              	1 147 0
  60 0018 0000A0E1 		bx	lr
 147:c:\code\arm\armlib/net\netstack.c **** }
  61              	FE7:
  62 001c 1EFF2FE1 		.size	netstackTCPIPProcess, .-netstackTCPIPProcess
  63              		.align	2
  64              		.global	netstackIPProcess
  65              		.type	netstackIPProcess, %function
  66              	netstackIPProcess:
  67              	.LFB5:
  68              		.loc 1 94 0
  69              		@ args = 0, pretend = 0, frame = 0
  70              		@ frame_needed = 0, uses_anonymous_args = 0
  71              	.LVL2:
  72              		stmfd	sp!, {r4, r5, r6, r7, lr}
  73              	.LCFI0:
  74 0020 F0402DE9 		mov	r7, r0
  75              		mov	r6, r1
  76 0024 0070A0E1 		.loc 1 96 0
  77 0028 0160A0E1 		ldrb	r0, [r1, #16]	@ zero_extendqisi2
ARM GAS  C:\DOCUME~1\pstang\LOCALS~1\Temp/cccLaaaa.s 			page 5


  78              	.LVL3:
  79 002c 1000D1E5 		ldrb	r3, [r1, #17]	@ zero_extendqisi2
  80              		orr	r0, r0, r3, asl #8
  81 0030 1130D1E5 		ldrb	r3, [r1, #18]	@ zero_extendqisi2
  82 0034 030480E1 		orr	r0, r0, r3, asl #16
  83 0038 1230D1E5 		ldrb	r3, [r1, #19]	@ zero_extendqisi2
  84 003c 030880E1 		orr	r0, r0, r3, asl #24
  85 0040 1330D1E5 		bl	htonl
  86 0044 030C80E1 	.LVL4:
  87 0048 FEFFFFEB 		mov	r4, r0
  88              		bl	ipGetConfig
  89 004c 0040A0E1 		ldr	r3, [r0, #0]
  90 0050 FEFFFFEB 		cmp	r4, r3
  91 0054 003090E5 		beq	.L10
  92 0058 030054E1 		ldrb	r0, [r6, #16]	@ zero_extendqisi2
  93 005c 1900000A 		ldrb	r3, [r6, #17]	@ zero_extendqisi2
  94 0060 1000D6E5 		orr	r0, r0, r3, asl #8
  95 0064 1130D6E5 		ldrb	r3, [r6, #18]	@ zero_extendqisi2
  96 0068 030480E1 		orr	r0, r0, r3, asl #16
  97 006c 1230D6E5 		ldrb	r3, [r6, #19]	@ zero_extendqisi2
  98 0070 030880E1 		orr	r0, r0, r3, asl #24
  99 0074 1330D6E5 		bl	htonl
 100 0078 030C80E1 		mov	r5, r0
 101 007c FEFFFFEB 		bl	ipGetConfig
 102 0080 0050A0E1 		ldr	r4, [r0, #0]
 103 0084 FEFFFFEB 		bl	ipGetConfig
 104 0088 004090E5 		ldr	r3, [r0, #4]
 105 008c FEFFFFEB 		orr	r4, r4, r3
 106 0090 043090E5 		cmp	r5, r4
 107 0094 034084E1 		beq	.L10
 108 0098 040055E1 		ldrb	r0, [r6, #16]	@ zero_extendqisi2
 109 009c 0900000A 		ldrb	r3, [r6, #17]	@ zero_extendqisi2
 110 00a0 1000D6E5 		orr	r0, r0, r3, asl #8
 111 00a4 1130D6E5 		ldrb	r3, [r6, #18]	@ zero_extendqisi2
 112 00a8 030480E1 		orr	r0, r0, r3, asl #16
 113 00ac 1230D6E5 		ldrb	r3, [r6, #19]	@ zero_extendqisi2
 114 00b0 030880E1 		orr	r0, r0, r3, asl #24
 115 00b4 1330D6E5 		bl	htonl
 116 00b8 030C80E1 		cmn	r0, #1
 117 00bc FEFFFFEB 		ldmnefd	sp!, {r4, r5, r6, r7, pc}
 118 00c0 010070E3 	.L10:
 119 00c4 F080BD18 		.loc 1 102 0
 120              		ldrb	r3, [r6, #9]	@ zero_extendqisi2
 121              		cmp	r3, #1
 122 00c8 0930D6E5 		bne	.L14
 123 00cc 010053E3 		.loc 1 108 0
 124 00d0 0200001A 		mov	r0, r6
 125              		bl	icmpIpIn
 126 00d4 0600A0E1 		ldmfd	sp!, {r4, r5, r6, r7, pc}
 127 00d8 FEFFFFEB 	.L14:
 128 00dc F080BDE8 		.loc 1 110 0
 129              		cmp	r3, #17
 130              		bne	.L16
 131 00e0 110053E3 		.loc 1 116 0
 132 00e4 0500001A 		mov	r0, r7
 133              		mov	r1, r6
 134 00e8 0700A0E1 		ldr	r3, .L20
ARM GAS  C:\DOCUME~1\pstang\LOCALS~1\Temp/cccLaaaa.s 			page 6


 135 00ec 0610A0E1 		mov	lr, pc
 136 00f0 28309FE5 		bx	r3
 137 00f4 0FE0A0E1 		ldmfd	sp!, {r4, r5, r6, r7, pc}
 138 00f8 13FF2FE1 	.L16:
 139 00fc F080BDE8 		.loc 1 118 0
 140              		cmp	r3, #6
 141              		ldmnefd	sp!, {r4, r5, r6, r7, pc}
 142 0100 060053E3 		.loc 1 123 0
 143 0104 F080BD18 		mov	r0, r7
 144              		mov	r1, r6
 145 0108 0700A0E1 		ldr	r3, .L20+4
 146 010c 0610A0E1 		mov	lr, pc
 147 0110 0C309FE5 		bx	r3
 148 0114 0FE0A0E1 		ldmfd	sp!, {r4, r5, r6, r7, pc}
 149 0118 13FF2FE1 	.L21:
 150 011c F080BDE8 		.align	2
 151              	.L20:
 152              		.word	netstackUDPIPProcess
 153              		.word	netstackTCPIPProcess
 154 0120 00000000 	.LFE5:
 155 0124 00000000 		.size	netstackIPProcess, .-netstackIPProcess
 156              		.align	2
 157              		.global	netstackService
 158              		.type	netstackService, %function
 159              	netstackService:
 160              	.LFB4:
 161              		.loc 1 49 0
 162              		@ args = 0, pretend = 0, frame = 0
 163              		@ frame_needed = 0, uses_anonymous_args = 0
 164              		stmfd	sp!, {r4, r5, r6, r7, lr}
 165              	.LCFI1:
 166 0128 F0402DE9 		.loc 1 54 0
 167              		ldr	r6, .L29
 168              		mov	r0, #588
 169 012c 84609FE5 		add	r0, r0, #2
 170 0130 930FA0E3 		ldr	r1, [r6, #0]
 171 0134 020080E2 		bl	nicPoll
 172 0138 001096E5 		.loc 1 56 0
 173 013c FEFFFFEB 		subs	r7, r0, #0
 174              	.LVL5:
 175 0140 007050E2 		beq	.L23
 176              		.loc 1 58 0
 177 0144 1900000A 		ldr	r5, [r6, #0]
 178              	.LVL6:
 179 0148 005096E5 		.loc 1 68 0
 180              		ldrb	r4, [r5, #12]	@ zero_extendqisi2
 181              		ldrb	r3, [r5, #13]	@ zero_extendqisi2
 182 014c 0C40D5E5 		orr	r4, r4, r3, asl #8
 183 0150 0D30D5E5 		mov	r0, #2048
 184 0154 034484E1 		bl	htons
 185 0158 020BA0E3 		cmp	r4, r0
 186 015c FEFFFFEB 		bne	.L25
 187 0160 000054E1 		.loc 1 76 0
 188 0164 0600001A 		ldr	r0, [r6, #0]
 189              		bl	arpIpIn
 190 0168 000096E5 		.loc 1 79 0
 191 016c FEFFFFEB 		ldr	r1, [r6, #0]
ARM GAS  C:\DOCUME~1\pstang\LOCALS~1\Temp/cccLaaaa.s 			page 7


 192              		sub	r0, r7, #14
 193 0170 001096E5 		add	r1, r1, #14
 194 0174 0E0047E2 		bl	netstackIPProcess
 195 0178 0E1081E2 		b	.L23
 196 017c FEFFFFEB 	.L25:
 197 0180 0A0000EA 		.loc 1 81 0
 198              		ldrb	r4, [r5, #12]	@ zero_extendqisi2
 199              		ldrb	r3, [r5, #13]	@ zero_extendqisi2
 200 0184 0C40D5E5 		orr	r4, r4, r3, asl #8
 201 0188 0D30D5E5 		mov	r0, #2048
 202 018c 034484E1 		add	r0, r0, #6
 203 0190 020BA0E3 		bl	htons
 204 0194 060080E2 		cmp	r4, r0
 205 0198 FEFFFFEB 		.loc 1 87 0
 206 019c 000054E1 		moveq	r0, r7
 207              		ldreq	r3, .L29
 208 01a0 0700A001 		ldreq	r1, [r3, #0]
 209 01a4 0C309F05 		bleq	arpArpIn
 210 01a8 00109305 	.L23:
 211 01ac FEFFFF0B 		.loc 1 91 0
 212              		mov	r0, r7
 213              		ldmfd	sp!, {r4, r5, r6, r7, pc}
 214 01b0 0700A0E1 	.L30:
 215 01b4 F080BDE8 		.align	2
 216              	.L29:
 217              		.word	NetBuffer
 218              	.LFE4:
 219 01b8 00000000 		.size	netstackService, .-netstackService
 220              		.align	2
 221              		.global	netstackInit
 222              		.type	netstackInit, %function
 223              	netstackInit:
 224              	.LFB2:
 225              		.loc 1 25 0
 226              		@ args = 0, pretend = 0, frame = 0
 227              		@ frame_needed = 0, uses_anonymous_args = 0
 228              	.LVL7:
 229              		stmfd	sp!, {r4, r5, r6, lr}
 230              	.LCFI2:
 231 01bc 70402DE9 		mov	r4, r0
 232              		mov	r5, r1
 233 01c0 0040A0E1 		mov	r6, r2
 234 01c4 0150A0E1 		.loc 1 30 0
 235 01c8 0260A0E1 		bl	nicInit
 236              	.LVL8:
 237 01cc FEFFFFEB 		.loc 1 35 0
 238              		bl	arpInit
 239              		.loc 1 40 0
 240 01d0 FEFFFFEB 		mov	r0, r4
 241              		mov	r1, r5
 242 01d4 0400A0E1 		mov	r2, r6
 243 01d8 0510A0E1 		bl	ipSetConfig
 244 01dc 0620A0E1 		.loc 1 41 0
 245 01e0 FEFFFFEB 		ldmfd	sp!, {r4, r5, r6, pc}
 246              	.LFE2:
 247 01e4 7080BDE8 		.size	netstackInit, .-netstackInit
 248              		.global	NetBuffer
ARM GAS  C:\DOCUME~1\pstang\LOCALS~1\Temp/cccLaaaa.s 			page 8


 249              		.data
 250              		.align	2
 251              		.type	NetBuffer, %object
 252              		.size	NetBuffer, 4
 253              	NetBuffer:
 254              		.word	NetBufferData+2
 255              		.comm	NetBufferData,590,4
 256 0000 02000000 		.section	.debug_frame,"",%progbits
 257              	.Lframe0:
 258              		.4byte	.LECIE0-.LSCIE0
 259              	.LSCIE0:
 260 0000 0C000000 		.4byte	0xffffffff
 261              		.byte	0x1
 262 0004 FFFFFFFF 		.ascii	"\000"
 263 0008 01       		.uleb128 0x1
 264 0009 00       		.sleb128 -4
 265 000a 01       		.byte	0xe
 266 000b 7C       		.byte	0xc
 267 000c 0E       		.uleb128 0xd
 268 000d 0C       		.uleb128 0x0
 269 000e 0D       		.align	2
 270 000f 00       	.LECIE0:
 271              	.LSFDE0:
 272              		.4byte	.LEFDE0-.LASFDE0
 273              	.LASFDE0:
 274 0010 0C000000 		.4byte	.Lframe0
 275              		.4byte	.LFB3
 276 0014 00000000 		.4byte	.LFE3-.LFB3
 277 0018 00000000 		.align	2
 278 001c 10000000 	.LEFDE0:
 279              	.LSFDE2:
 280              		.4byte	.LEFDE2-.LASFDE2
 281              	.LASFDE2:
 282 0020 0C000000 		.4byte	.Lframe0
 283              		.4byte	.LFB6
 284 0024 00000000 		.4byte	.LFE6-.LFB6
 285 0028 10000000 		.align	2
 286 002c 08000000 	.LEFDE2:
 287              	.LSFDE4:
 288              		.4byte	.LEFDE4-.LASFDE4
 289              	.LASFDE4:
 290 0030 0C000000 		.4byte	.Lframe0
 291              		.4byte	.LFB7
 292 0034 00000000 		.4byte	.LFE7-.LFB7
 293 0038 18000000 		.align	2
 294 003c 08000000 	.LEFDE4:
 295              	.LSFDE6:
 296              		.4byte	.LEFDE6-.LASFDE6
 297              	.LASFDE6:
 298 0040 1C000000 		.4byte	.Lframe0
 299              		.4byte	.LFB5
 300 0044 00000000 		.4byte	.LFE5-.LFB5
 301 0048 20000000 		.byte	0x4
 302 004c 08010000 		.4byte	.LCFI0-.LFB5
 303 0050 44       		.byte	0xe
 304              		.uleb128 0x14
 305 0051 0E       		.byte	0x8e
ARM GAS  C:\DOCUME~1\pstang\LOCALS~1\Temp/cccLaaaa.s 			page 9


 306 0052 14       		.uleb128 0x1
 307 0053 8E       		.byte	0x87
 308 0054 01       		.uleb128 0x2
 309 0055 87       		.byte	0x86
 310 0056 02       		.uleb128 0x3
 311 0057 86       		.byte	0x85
 312 0058 03       		.uleb128 0x4
 313 0059 85       		.byte	0x84
 314 005a 04       		.uleb128 0x5
 315 005b 84       		.align	2
 316 005c 05       	.LEFDE6:
 317 005d 000000   	.LSFDE8:
 318              		.4byte	.LEFDE8-.LASFDE8
 319              	.LASFDE8:
 320 0060 1C000000 		.4byte	.Lframe0
 321              		.4byte	.LFB4
 322 0064 00000000 		.4byte	.LFE4-.LFB4
 323 0068 28010000 		.byte	0x4
 324 006c 94000000 		.4byte	.LCFI1-.LFB4
 325 0070 44       		.byte	0xe
 326              		.uleb128 0x14
 327 0071 0E       		.byte	0x8e
 328 0072 14       		.uleb128 0x1
 329 0073 8E       		.byte	0x87
 330 0074 01       		.uleb128 0x2
 331 0075 87       		.byte	0x86
 332 0076 02       		.uleb128 0x3
 333 0077 86       		.byte	0x85
 334 0078 03       		.uleb128 0x4
 335 0079 85       		.byte	0x84
 336 007a 04       		.uleb128 0x5
 337 007b 84       		.align	2
 338 007c 05       	.LEFDE8:
 339 007d 000000   	.LSFDE10:
 340              		.4byte	.LEFDE10-.LASFDE10
 341              	.LASFDE10:
 342 0080 18000000 		.4byte	.Lframe0
 343              		.4byte	.LFB2
 344 0084 00000000 		.4byte	.LFE2-.LFB2
 345 0088 BC010000 		.byte	0x4
 346 008c 2C000000 		.4byte	.LCFI2-.LFB2
 347 0090 44       		.byte	0xe
 348              		.uleb128 0x10
 349 0091 0E       		.byte	0x8e
 350 0092 10       		.uleb128 0x1
 351 0093 8E       		.byte	0x86
 352 0094 01       		.uleb128 0x2
 353 0095 86       		.byte	0x85
 354 0096 02       		.uleb128 0x3
 355 0097 85       		.byte	0x84
 356 0098 03       		.uleb128 0x4
 357 0099 84       		.align	2
 358 009a 04       	.LEFDE10:
 359 009b 00       		.file 2 "c:\\code\\arm\\armlib/armlibtypes.h"
 360              		.file 3 "c:\\code\\arm\\armlib/net/net.h"
 361              		.file 4 "c:\\programa\\winarm/arm-elf/include/stdint.h"
 362              		.text
ARM GAS  C:\DOCUME~1\pstang\LOCALS~1\Temp/cccLaaaa.s 			page 10


 363              	.Letext0: